
proyecto.elf:     file format elf32-littlearm

Sections:
Idx Name          Size      VMA       LMA       File off  Algn
  0 .text         00008774  0c100000  0c100000  00008000  2**2
                  CONTENTS, ALLOC, LOAD, READONLY, CODE
  1 .rodata       0000195c  0c108774  0c108774  00010774  2**2
                  CONTENTS, ALLOC, LOAD, READONLY, DATA
  2 .ARM.exidx    00000008  0c10a0d0  0c10a0d0  000120d0  2**2
                  CONTENTS, ALLOC, LOAD, READONLY, DATA
  3 .data         00000588  0c10a0d8  0c10a0d8  000120d8  2**2
                  CONTENTS, ALLOC, LOAD, DATA
  4 .bss          00012c1c  0c10a660  0c10a660  00012660  2**2
                  ALLOC
  5 .debug_abbrev 00000870  00000000  00000000  00012660  2**0
                  CONTENTS, READONLY, DEBUGGING
  6 .debug_info   00002286  00000000  00000000  00012ed0  2**0
                  CONTENTS, READONLY, DEBUGGING
  7 .debug_line   00001040  00000000  00000000  00015156  2**0
                  CONTENTS, READONLY, DEBUGGING
  8 .debug_macinfo 00029016  00000000  00000000  00016196  2**0
                  CONTENTS, READONLY, DEBUGGING
  9 .debug_loc    00001684  00000000  00000000  0003f1ac  2**0
                  CONTENTS, READONLY, DEBUGGING
 10 .debug_pubnames 0000099e  00000000  00000000  00040830  2**0
                  CONTENTS, READONLY, DEBUGGING
 11 .debug_pubtypes 00000204  00000000  00000000  000411ce  2**0
                  CONTENTS, READONLY, DEBUGGING
 12 .debug_aranges 00000100  00000000  00000000  000413d2  2**0
                  CONTENTS, READONLY, DEBUGGING
 13 .debug_str    00000a98  00000000  00000000  000414d2  2**0
                  CONTENTS, READONLY, DEBUGGING
 14 .comment      0000002a  00000000  00000000  00041f6a  2**0
                  CONTENTS, READONLY
 15 .ARM.attributes 00000032  00000000  00000000  00041f94  2**0
                  CONTENTS, READONLY
 16 .debug_frame  000013b0  00000000  00000000  00041fc8  2**2
                  CONTENTS, READONLY, DEBUGGING

Disassembly of section .text:

0c100000 <lcd_putfix>:

};
tAlimentos *p = NULL;


void lcd_putfix( uint16 a, uint16 b, uint8 color, fix16 i ){
 c100000:	e1a0c00d 	mov	ip, sp
 c100004:	e92dd800 	push	{fp, ip, lr, pc}
 c100008:	e24cb004 	sub	fp, ip, #4
 c10000c:	e24dd020 	sub	sp, sp, #32
 c100010:	e14b02b6 	strh	r0, [fp, #-38]	; 0xffffffda
 c100014:	e14b12b8 	strh	r1, [fp, #-40]	; 0xffffffd8
 c100018:	e54b2029 	strb	r2, [fp, #-41]	; 0xffffffd7
 c10001c:	e14b32bc 	strh	r3, [fp, #-44]	; 0xffffffd4
	int parte_entera;
	int parte_decimal;
	fix16 diez = 1010 << 10;
 c100020:	e3a03b32 	mov	r3, #51200	; 0xc800
 c100024:	e14b31b6 	strh	r3, [fp, #-22]	; 0xffffffea
	int num_digitos = 1;
 c100028:	e3a03001 	mov	r3, #1
 c10002c:	e50b3014 	str	r3, [fp, #-20]	; 0xffffffec
	uint16 x = a;
 c100030:	e15b32b6 	ldrh	r3, [fp, #-38]	; 0xffffffda
 c100034:	e14b31b8 	strh	r3, [fp, #-24]	; 0xffffffe8
	uint16 y = b;
 c100038:	e15b32b8 	ldrh	r3, [fp, #-40]	; 0xffffffd8
 c10003c:	e14b31ba 	strh	r3, [fp, #-26]	; 0xffffffe6

	parte_entera = i >> 10;
 c100040:	e15b32fc 	ldrsh	r3, [fp, #-44]	; 0xffffffd4
 c100044:	e1a03543 	asr	r3, r3, #10
 c100048:	e1a03803 	lsl	r3, r3, #16
 c10004c:	e1a03823 	lsr	r3, r3, #16
 c100050:	e1a03803 	lsl	r3, r3, #16
 c100054:	e1a03843 	asr	r3, r3, #16
 c100058:	e50b3010 	str	r3, [fp, #-16]
	lcd_putint_x3(x,y,color,parte_entera);
 c10005c:	e15b11b8 	ldrh	r1, [fp, #-24]	; 0xffffffe8
 c100060:	e15b21ba 	ldrh	r2, [fp, #-26]	; 0xffffffe6
 c100064:	e55b3029 	ldrb	r3, [fp, #-41]	; 0xffffffd7
 c100068:	e1a00001 	mov	r0, r1
 c10006c:	e1a01002 	mov	r1, r2
 c100070:	e1a02003 	mov	r2, r3
 c100074:	e51b3010 	ldr	r3, [fp, #-16]
 c100078:	eb001087 	bl	c10429c <lcd_putint_x3>


	while (parte_entera > 10){
 c10007c:	ea000009 	b	c1000a8 <lcd_putfix+0xa8>
		parte_entera = parte_entera/10;
 c100080:	e51b3010 	ldr	r3, [fp, #-16]
 c100084:	e59f213c 	ldr	r2, [pc, #316]	; c1001c8 <lcd_putfix+0x1c8>
 c100088:	e0c21293 	smull	r1, r2, r3, r2
 c10008c:	e1a02142 	asr	r2, r2, #2
 c100090:	e1a03fc3 	asr	r3, r3, #31
 c100094:	e0633002 	rsb	r3, r3, r2
 c100098:	e50b3010 	str	r3, [fp, #-16]
		num_digitos++;
 c10009c:	e51b3014 	ldr	r3, [fp, #-20]	; 0xffffffec
 c1000a0:	e2833001 	add	r3, r3, #1
 c1000a4:	e50b3014 	str	r3, [fp, #-20]	; 0xffffffec

	parte_entera = i >> 10;
	lcd_putint_x3(x,y,color,parte_entera);


	while (parte_entera > 10){
 c1000a8:	e51b3010 	ldr	r3, [fp, #-16]
 c1000ac:	e353000a 	cmp	r3, #10
 c1000b0:	cafffff2 	bgt	c100080 <lcd_putfix+0x80>
		parte_entera = parte_entera/10;
		num_digitos++;
	}

	x = x + (num_digitos*24);
 c1000b4:	e51b3014 	ldr	r3, [fp, #-20]	; 0xffffffec
 c1000b8:	e1a03803 	lsl	r3, r3, #16
 c1000bc:	e1a03823 	lsr	r3, r3, #16
 c1000c0:	e1a02003 	mov	r2, r3
 c1000c4:	e1a02082 	lsl	r2, r2, #1
 c1000c8:	e0823003 	add	r3, r2, r3
 c1000cc:	e1a03183 	lsl	r3, r3, #3
 c1000d0:	e1a03803 	lsl	r3, r3, #16
 c1000d4:	e1a02823 	lsr	r2, r3, #16
 c1000d8:	e15b31b8 	ldrh	r3, [fp, #-24]	; 0xffffffe8
 c1000dc:	e0823003 	add	r3, r2, r3
 c1000e0:	e14b31b8 	strh	r3, [fp, #-24]	; 0xffffffe8

	lcd_puts_x3(x,y,color,",");
 c1000e4:	e15b11b8 	ldrh	r1, [fp, #-24]	; 0xffffffe8
 c1000e8:	e15b21ba 	ldrh	r2, [fp, #-26]	; 0xffffffe6
 c1000ec:	e55b3029 	ldrb	r3, [fp, #-41]	; 0xffffffd7
 c1000f0:	e1a00001 	mov	r0, r1
 c1000f4:	e1a01002 	mov	r1, r2
 c1000f8:	e1a02003 	mov	r2, r3
 c1000fc:	e59f30c8 	ldr	r3, [pc, #200]	; c1001cc <lcd_putfix+0x1cc>
 c100100:	eb001048 	bl	c104228 <lcd_puts_x3>
	x = x+24;
 c100104:	e15b31b8 	ldrh	r3, [fp, #-24]	; 0xffffffe8
 c100108:	e2833018 	add	r3, r3, #24
 c10010c:	e14b31b8 	strh	r3, [fp, #-24]	; 0xffffffe8

	i &= 0x3FF; //solo se queda la parte decimal
 c100110:	e15b32bc 	ldrh	r3, [fp, #-44]	; 0xffffffd4
 c100114:	e1a03b03 	lsl	r3, r3, #22
 c100118:	e1a03b23 	lsr	r3, r3, #22
 c10011c:	e14b32bc 	strh	r3, [fp, #-44]	; 0xffffffd4
	parte_decimal = FMULI( 10, (fix32)i); //multiplicamos por 10
 c100120:	e15b22fc 	ldrsh	r2, [fp, #-44]	; 0xffffffd4
 c100124:	e1a03002 	mov	r3, r2
 c100128:	e1a03103 	lsl	r3, r3, #2
 c10012c:	e0833002 	add	r3, r3, r2
 c100130:	e1a03083 	lsl	r3, r3, #1
 c100134:	e50b3020 	str	r3, [fp, #-32]	; 0xffffffe0
	lcd_putint_x3(x,y,color, parte_decimal >>10);
 c100138:	e51b3020 	ldr	r3, [fp, #-32]	; 0xffffffe0
 c10013c:	e1a03543 	asr	r3, r3, #10
 c100140:	e15b01b8 	ldrh	r0, [fp, #-24]	; 0xffffffe8
 c100144:	e15b11ba 	ldrh	r1, [fp, #-26]	; 0xffffffe6
 c100148:	e55b2029 	ldrb	r2, [fp, #-41]	; 0xffffffd7
 c10014c:	eb001052 	bl	c10429c <lcd_putint_x3>
	x = x+24;
 c100150:	e15b31b8 	ldrh	r3, [fp, #-24]	; 0xffffffe8
 c100154:	e2833018 	add	r3, r3, #24
 c100158:	e14b31b8 	strh	r3, [fp, #-24]	; 0xffffffe8

	i = FMULI( 10, (fix32)i);
 c10015c:	e15b32bc 	ldrh	r3, [fp, #-44]	; 0xffffffd4
 c100160:	e1a02003 	mov	r2, r3
 c100164:	e1a02102 	lsl	r2, r2, #2
 c100168:	e0823003 	add	r3, r2, r3
 c10016c:	e1a03083 	lsl	r3, r3, #1
 c100170:	e1a03803 	lsl	r3, r3, #16
 c100174:	e1a03823 	lsr	r3, r3, #16
 c100178:	e14b32bc 	strh	r3, [fp, #-44]	; 0xffffffd4

	i &= 0x3FF; //solo se queda la parte decimal
 c10017c:	e15b32bc 	ldrh	r3, [fp, #-44]	; 0xffffffd4
 c100180:	e1a03b03 	lsl	r3, r3, #22
 c100184:	e1a03b23 	lsr	r3, r3, #22
 c100188:	e14b32bc 	strh	r3, [fp, #-44]	; 0xffffffd4
	parte_decimal = FMULI( 10, (fix32)i); //multiplicamos por 10
 c10018c:	e15b22fc 	ldrsh	r2, [fp, #-44]	; 0xffffffd4
 c100190:	e1a03002 	mov	r3, r2
 c100194:	e1a03103 	lsl	r3, r3, #2
 c100198:	e0833002 	add	r3, r3, r2
 c10019c:	e1a03083 	lsl	r3, r3, #1
 c1001a0:	e50b3020 	str	r3, [fp, #-32]	; 0xffffffe0
	lcd_putint_x3(x,y,color, parte_decimal >> 10);
 c1001a4:	e51b3020 	ldr	r3, [fp, #-32]	; 0xffffffe0
 c1001a8:	e1a03543 	asr	r3, r3, #10
 c1001ac:	e15b01b8 	ldrh	r0, [fp, #-24]	; 0xffffffe8
 c1001b0:	e15b11ba 	ldrh	r1, [fp, #-26]	; 0xffffffe6
 c1001b4:	e55b2029 	ldrb	r2, [fp, #-41]	; 0xffffffd7
 c1001b8:	eb001037 	bl	c10429c <lcd_putint_x3>

}
 c1001bc:	e24bd00c 	sub	sp, fp, #12
 c1001c0:	e89d6800 	ldm	sp, {fp, sp, lr}
 c1001c4:	e12fff1e 	bx	lr
 c1001c8:	66666667 	.word	0x66666667
 c1001cc:	0c108774 	.word	0x0c108774

0c1001d0 <writelist_verduras>:

int writelist_verduras( int num_list, int movelist){
 c1001d0:	e1a0c00d 	mov	ip, sp
 c1001d4:	e92dd800 	push	{fp, ip, lr, pc}
 c1001d8:	e24cb004 	sub	fp, ip, #4
 c1001dc:	e24dd020 	sub	sp, sp, #32
 c1001e0:	e50b0028 	str	r0, [fp, #-40]	; 0xffffffd8
 c1001e4:	e50b102c 	str	r1, [fp, #-44]	; 0xffffffd4

	int j = 7, i=0, posicion_movelist = 0,move = movelist;
 c1001e8:	e3a03007 	mov	r3, #7
 c1001ec:	e50b3010 	str	r3, [fp, #-16]
 c1001f0:	e3a03000 	mov	r3, #0
 c1001f4:	e50b3014 	str	r3, [fp, #-20]	; 0xffffffec
 c1001f8:	e3a03000 	mov	r3, #0
 c1001fc:	e50b3018 	str	r3, [fp, #-24]	; 0xffffffe8
 c100200:	e51b302c 	ldr	r3, [fp, #-44]	; 0xffffffd4
 c100204:	e50b3020 	str	r3, [fp, #-32]	; 0xffffffe0
	uint8 scancode;

	scancode = KEYPAD_KEYA;
 c100208:	e3a0300a 	mov	r3, #10
 c10020c:	e54b3019 	strb	r3, [fp, #-25]	; 0xffffffe7

	while( i < 4){
 c100210:	ea000027 	b	c1002b4 <writelist_verduras+0xe4>

		if( i == move )
 c100214:	e51b2014 	ldr	r2, [fp, #-20]	; 0xffffffec
 c100218:	e51b3020 	ldr	r3, [fp, #-32]	; 0xffffffe0
 c10021c:	e1520003 	cmp	r2, r3
 c100220:	1a000001 	bne	c10022c <writelist_verduras+0x5c>
			posicion_movelist = j;
 c100224:	e51b3010 	ldr	r3, [fp, #-16]
 c100228:	e50b3018 	str	r3, [fp, #-24]	; 0xffffffe8

		lcd_puts( 50, 20+j, BLACK, verduras[num_list][i].nombre ); // he cambiado verduras por alimentos
 c10022c:	e51b3010 	ldr	r3, [fp, #-16]
 c100230:	e1a03803 	lsl	r3, r3, #16
 c100234:	e1a03823 	lsr	r3, r3, #16
 c100238:	e2833014 	add	r3, r3, #20
 c10023c:	e1a03803 	lsl	r3, r3, #16
 c100240:	e1a0c823 	lsr	ip, r3, #16
 c100244:	e51b3014 	ldr	r3, [fp, #-20]	; 0xffffffec
 c100248:	e1a02003 	mov	r2, r3
 c10024c:	e1a02102 	lsl	r2, r2, #2
 c100250:	e0822003 	add	r2, r2, r3
 c100254:	e1a02082 	lsl	r2, r2, #1
 c100258:	e0822003 	add	r2, r2, r3
 c10025c:	e1a03082 	lsl	r3, r2, #1
 c100260:	e1a02003 	mov	r2, r3
 c100264:	e51b1028 	ldr	r1, [fp, #-40]	; 0xffffffd8
 c100268:	e1a03001 	mov	r3, r1
 c10026c:	e1a03103 	lsl	r3, r3, #2
 c100270:	e0833001 	add	r3, r3, r1
 c100274:	e1a03083 	lsl	r3, r3, #1
 c100278:	e0833001 	add	r3, r3, r1
 c10027c:	e1a03203 	lsl	r3, r3, #4
 c100280:	e0822003 	add	r2, r2, r3
 c100284:	e59f33c0 	ldr	r3, [pc, #960]	; c10064c <writelist_verduras+0x47c>
 c100288:	e0823003 	add	r3, r2, r3
 c10028c:	e3a00032 	mov	r0, #50	; 0x32
 c100290:	e1a0100c 	mov	r1, ip
 c100294:	e3a0200f 	mov	r2, #15
 c100298:	eb000da9 	bl	c103944 <lcd_puts>
		i++;
 c10029c:	e51b3014 	ldr	r3, [fp, #-20]	; 0xffffffec
 c1002a0:	e2833001 	add	r3, r3, #1
 c1002a4:	e50b3014 	str	r3, [fp, #-20]	; 0xffffffec
		j=j+43;
 c1002a8:	e51b3010 	ldr	r3, [fp, #-16]
 c1002ac:	e283302b 	add	r3, r3, #43	; 0x2b
 c1002b0:	e50b3010 	str	r3, [fp, #-16]
	int j = 7, i=0, posicion_movelist = 0,move = movelist;
	uint8 scancode;

	scancode = KEYPAD_KEYA;

	while( i < 4){
 c1002b4:	e51b3014 	ldr	r3, [fp, #-20]	; 0xffffffec
 c1002b8:	e3530003 	cmp	r3, #3
 c1002bc:	daffffd4 	ble	c100214 <writelist_verduras+0x44>
		lcd_puts( 50, 20+j, BLACK, verduras[num_list][i].nombre ); // he cambiado verduras por alimentos
		i++;
		j=j+43;
	}

	j=7;
 c1002c0:	e3a03007 	mov	r3, #7
 c1002c4:	e50b3010 	str	r3, [fp, #-16]

	while( i < 8 ){
 c1002c8:	ea000027 	b	c10036c <writelist_verduras+0x19c>
		if (i == move)
 c1002cc:	e51b2014 	ldr	r2, [fp, #-20]	; 0xffffffec
 c1002d0:	e51b3020 	ldr	r3, [fp, #-32]	; 0xffffffe0
 c1002d4:	e1520003 	cmp	r2, r3
 c1002d8:	1a000001 	bne	c1002e4 <writelist_verduras+0x114>
			posicion_movelist = j;
 c1002dc:	e51b3010 	ldr	r3, [fp, #-16]
 c1002e0:	e50b3018 	str	r3, [fp, #-24]	; 0xffffffe8
		lcd_puts( 200, 20+j, BLACK, verduras[num_list][i].nombre ); // lo mismo que arriba :D
 c1002e4:	e51b3010 	ldr	r3, [fp, #-16]
 c1002e8:	e1a03803 	lsl	r3, r3, #16
 c1002ec:	e1a03823 	lsr	r3, r3, #16
 c1002f0:	e2833014 	add	r3, r3, #20
 c1002f4:	e1a03803 	lsl	r3, r3, #16
 c1002f8:	e1a0c823 	lsr	ip, r3, #16
 c1002fc:	e51b3014 	ldr	r3, [fp, #-20]	; 0xffffffec
 c100300:	e1a02003 	mov	r2, r3
 c100304:	e1a02102 	lsl	r2, r2, #2
 c100308:	e0822003 	add	r2, r2, r3
 c10030c:	e1a02082 	lsl	r2, r2, #1
 c100310:	e0822003 	add	r2, r2, r3
 c100314:	e1a03082 	lsl	r3, r2, #1
 c100318:	e1a02003 	mov	r2, r3
 c10031c:	e51b1028 	ldr	r1, [fp, #-40]	; 0xffffffd8
 c100320:	e1a03001 	mov	r3, r1
 c100324:	e1a03103 	lsl	r3, r3, #2
 c100328:	e0833001 	add	r3, r3, r1
 c10032c:	e1a03083 	lsl	r3, r3, #1
 c100330:	e0833001 	add	r3, r3, r1
 c100334:	e1a03203 	lsl	r3, r3, #4
 c100338:	e0822003 	add	r2, r2, r3
 c10033c:	e59f3308 	ldr	r3, [pc, #776]	; c10064c <writelist_verduras+0x47c>
 c100340:	e0823003 	add	r3, r2, r3
 c100344:	e3a000c8 	mov	r0, #200	; 0xc8
 c100348:	e1a0100c 	mov	r1, ip
 c10034c:	e3a0200f 	mov	r2, #15
 c100350:	eb000d7b 	bl	c103944 <lcd_puts>
		i++;
 c100354:	e51b3014 	ldr	r3, [fp, #-20]	; 0xffffffec
 c100358:	e2833001 	add	r3, r3, #1
 c10035c:	e50b3014 	str	r3, [fp, #-20]	; 0xffffffec
		j=j+43;
 c100360:	e51b3010 	ldr	r3, [fp, #-16]
 c100364:	e283302b 	add	r3, r3, #43	; 0x2b
 c100368:	e50b3010 	str	r3, [fp, #-16]
		j=j+43;
	}

	j=7;

	while( i < 8 ){
 c10036c:	e51b3014 	ldr	r3, [fp, #-20]	; 0xffffffec
 c100370:	e3530007 	cmp	r3, #7
 c100374:	daffffd4 	ble	c1002cc <writelist_verduras+0xfc>
		lcd_puts( 200, 20+j, BLACK, verduras[num_list][i].nombre ); // lo mismo que arriba :D
		i++;
		j=j+43;
	}

	while(scancode != KEYPAD_KEYE && scancode != KEYPAD_KEYC && scancode != KEYPAD_KEYD
 c100378:	ea000068 	b	c100520 <writelist_verduras+0x350>
			&& scancode != KEYPAD_KEYF && scancode != KEYPAD_KEY0 && scancode != KEYPAD_KEY1 ){

		if(move <= 3)
 c10037c:	e51b3020 	ldr	r3, [fp, #-32]	; 0xffffffe0
 c100380:	e3530003 	cmp	r3, #3
 c100384:	ca00001c 	bgt	c1003fc <writelist_verduras+0x22c>
			lcd_puts( 50, 20+posicion_movelist, BLACK, verduras[num_list][move].nombre ); //mas de lo mismo
 c100388:	e51b3018 	ldr	r3, [fp, #-24]	; 0xffffffe8
 c10038c:	e1a03803 	lsl	r3, r3, #16
 c100390:	e1a03823 	lsr	r3, r3, #16
 c100394:	e2833014 	add	r3, r3, #20
 c100398:	e1a03803 	lsl	r3, r3, #16
 c10039c:	e1a0c823 	lsr	ip, r3, #16
 c1003a0:	e51b3020 	ldr	r3, [fp, #-32]	; 0xffffffe0
 c1003a4:	e1a02003 	mov	r2, r3
 c1003a8:	e1a02102 	lsl	r2, r2, #2
 c1003ac:	e0822003 	add	r2, r2, r3
 c1003b0:	e1a02082 	lsl	r2, r2, #1
 c1003b4:	e0822003 	add	r2, r2, r3
 c1003b8:	e1a03082 	lsl	r3, r2, #1
 c1003bc:	e1a02003 	mov	r2, r3
 c1003c0:	e51b1028 	ldr	r1, [fp, #-40]	; 0xffffffd8
 c1003c4:	e1a03001 	mov	r3, r1
 c1003c8:	e1a03103 	lsl	r3, r3, #2
 c1003cc:	e0833001 	add	r3, r3, r1
 c1003d0:	e1a03083 	lsl	r3, r3, #1
 c1003d4:	e0833001 	add	r3, r3, r1
 c1003d8:	e1a03203 	lsl	r3, r3, #4
 c1003dc:	e0822003 	add	r2, r2, r3
 c1003e0:	e59f3264 	ldr	r3, [pc, #612]	; c10064c <writelist_verduras+0x47c>
 c1003e4:	e0823003 	add	r3, r2, r3
 c1003e8:	e3a00032 	mov	r0, #50	; 0x32
 c1003ec:	e1a0100c 	mov	r1, ip
 c1003f0:	e3a0200f 	mov	r2, #15
 c1003f4:	eb000d52 	bl	c103944 <lcd_puts>
 c1003f8:	ea00001b 	b	c10046c <writelist_verduras+0x29c>
		else
			lcd_puts( 200, 20+posicion_movelist, BLACK, verduras[num_list][move].nombre ); //mas de lo mismo
 c1003fc:	e51b3018 	ldr	r3, [fp, #-24]	; 0xffffffe8
 c100400:	e1a03803 	lsl	r3, r3, #16
 c100404:	e1a03823 	lsr	r3, r3, #16
 c100408:	e2833014 	add	r3, r3, #20
 c10040c:	e1a03803 	lsl	r3, r3, #16
 c100410:	e1a0c823 	lsr	ip, r3, #16
 c100414:	e51b3020 	ldr	r3, [fp, #-32]	; 0xffffffe0
 c100418:	e1a02003 	mov	r2, r3
 c10041c:	e1a02102 	lsl	r2, r2, #2
 c100420:	e0822003 	add	r2, r2, r3
 c100424:	e1a02082 	lsl	r2, r2, #1
 c100428:	e0822003 	add	r2, r2, r3
 c10042c:	e1a03082 	lsl	r3, r2, #1
 c100430:	e1a02003 	mov	r2, r3
 c100434:	e51b1028 	ldr	r1, [fp, #-40]	; 0xffffffd8
 c100438:	e1a03001 	mov	r3, r1
 c10043c:	e1a03103 	lsl	r3, r3, #2
 c100440:	e0833001 	add	r3, r3, r1
 c100444:	e1a03083 	lsl	r3, r3, #1
 c100448:	e0833001 	add	r3, r3, r1
 c10044c:	e1a03203 	lsl	r3, r3, #4
 c100450:	e0822003 	add	r2, r2, r3
 c100454:	e59f31f0 	ldr	r3, [pc, #496]	; c10064c <writelist_verduras+0x47c>
 c100458:	e0823003 	add	r3, r2, r3
 c10045c:	e3a000c8 	mov	r0, #200	; 0xc8
 c100460:	e1a0100c 	mov	r1, ip
 c100464:	e3a0200f 	mov	r2, #15
 c100468:	eb000d35 	bl	c103944 <lcd_puts>

		scancode = keypad_scan();
 c10046c:	eb00092b 	bl	c102920 <keypad_scan>
 c100470:	e1a03000 	mov	r3, r0
 c100474:	e54b3019 	strb	r3, [fp, #-25]	; 0xffffffe7
		sw_delay_ms(250);
 c100478:	e3a000fa 	mov	r0, #250	; 0xfa
 c10047c:	eb0016aa 	bl	c105f2c <sw_delay_ms>
		scancode = keypad_scan();
 c100480:	eb000926 	bl	c102920 <keypad_scan>
 c100484:	e1a03000 	mov	r3, r0
 c100488:	e54b3019 	strb	r3, [fp, #-25]	; 0xffffffe7

		if(move < 3 || move == 3)
 c10048c:	e51b3020 	ldr	r3, [fp, #-32]	; 0xffffffe0
 c100490:	e3530002 	cmp	r3, #2
 c100494:	da000002 	ble	c1004a4 <writelist_verduras+0x2d4>
 c100498:	e51b3020 	ldr	r3, [fp, #-32]	; 0xffffffe0
 c10049c:	e3530003 	cmp	r3, #3
 c1004a0:	1a00000b 	bne	c1004d4 <writelist_verduras+0x304>
			lcd_puts( 50, 20+posicion_movelist, BLACK, "              ");
 c1004a4:	e51b3018 	ldr	r3, [fp, #-24]	; 0xffffffe8
 c1004a8:	e1a03803 	lsl	r3, r3, #16
 c1004ac:	e1a03823 	lsr	r3, r3, #16
 c1004b0:	e2833014 	add	r3, r3, #20
 c1004b4:	e1a03803 	lsl	r3, r3, #16
 c1004b8:	e1a03823 	lsr	r3, r3, #16
 c1004bc:	e3a00032 	mov	r0, #50	; 0x32
 c1004c0:	e1a01003 	mov	r1, r3
 c1004c4:	e3a0200f 	mov	r2, #15
 c1004c8:	e59f3180 	ldr	r3, [pc, #384]	; c100650 <writelist_verduras+0x480>
 c1004cc:	eb000d1c 	bl	c103944 <lcd_puts>
 c1004d0:	ea00000a 	b	c100500 <writelist_verduras+0x330>
		else
			lcd_puts( 200, 20+posicion_movelist, BLACK, "             " );
 c1004d4:	e51b3018 	ldr	r3, [fp, #-24]	; 0xffffffe8
 c1004d8:	e1a03803 	lsl	r3, r3, #16
 c1004dc:	e1a03823 	lsr	r3, r3, #16
 c1004e0:	e2833014 	add	r3, r3, #20
 c1004e4:	e1a03803 	lsl	r3, r3, #16
 c1004e8:	e1a03823 	lsr	r3, r3, #16
 c1004ec:	e3a000c8 	mov	r0, #200	; 0xc8
 c1004f0:	e1a01003 	mov	r1, r3
 c1004f4:	e3a0200f 	mov	r2, #15
 c1004f8:	e59f3154 	ldr	r3, [pc, #340]	; c100654 <writelist_verduras+0x484>
 c1004fc:	eb000d10 	bl	c103944 <lcd_puts>

		scancode = keypad_scan();
 c100500:	eb000906 	bl	c102920 <keypad_scan>
 c100504:	e1a03000 	mov	r3, r0
 c100508:	e54b3019 	strb	r3, [fp, #-25]	; 0xffffffe7
		sw_delay_ms(250);
 c10050c:	e3a000fa 	mov	r0, #250	; 0xfa
 c100510:	eb001685 	bl	c105f2c <sw_delay_ms>
		scancode = keypad_scan();
 c100514:	eb000901 	bl	c102920 <keypad_scan>
 c100518:	e1a03000 	mov	r3, r0
 c10051c:	e54b3019 	strb	r3, [fp, #-25]	; 0xffffffe7
		lcd_puts( 200, 20+j, BLACK, verduras[num_list][i].nombre ); // lo mismo que arriba :D
		i++;
		j=j+43;
	}

	while(scancode != KEYPAD_KEYE && scancode != KEYPAD_KEYC && scancode != KEYPAD_KEYD
 c100520:	e55b3019 	ldrb	r3, [fp, #-25]	; 0xffffffe7
 c100524:	e353000e 	cmp	r3, #14
 c100528:	0a00000e 	beq	c100568 <writelist_verduras+0x398>
 c10052c:	e55b3019 	ldrb	r3, [fp, #-25]	; 0xffffffe7
 c100530:	e353000c 	cmp	r3, #12
 c100534:	0a00000b 	beq	c100568 <writelist_verduras+0x398>
 c100538:	e55b3019 	ldrb	r3, [fp, #-25]	; 0xffffffe7
 c10053c:	e353000d 	cmp	r3, #13
 c100540:	0a000008 	beq	c100568 <writelist_verduras+0x398>
			&& scancode != KEYPAD_KEYF && scancode != KEYPAD_KEY0 && scancode != KEYPAD_KEY1 ){
 c100544:	e55b3019 	ldrb	r3, [fp, #-25]	; 0xffffffe7
 c100548:	e353000f 	cmp	r3, #15
 c10054c:	0a000005 	beq	c100568 <writelist_verduras+0x398>
 c100550:	e55b3019 	ldrb	r3, [fp, #-25]	; 0xffffffe7
 c100554:	e3530000 	cmp	r3, #0
 c100558:	0a000002 	beq	c100568 <writelist_verduras+0x398>
 c10055c:	e55b3019 	ldrb	r3, [fp, #-25]	; 0xffffffe7
 c100560:	e3530001 	cmp	r3, #1
 c100564:	1affff84 	bne	c10037c <writelist_verduras+0x1ac>
		sw_delay_ms(250);
		scancode = keypad_scan();
	}


	if(scancode == KEYPAD_KEYC){  //pulsa anterior
 c100568:	e55b3019 	ldrb	r3, [fp, #-25]	; 0xffffffe7
 c10056c:	e353000c 	cmp	r3, #12
 c100570:	1a000001 	bne	c10057c <writelist_verduras+0x3ac>
		return 1;
 c100574:	e3a03001 	mov	r3, #1
 c100578:	ea00002f 	b	c10063c <writelist_verduras+0x46c>
	}
	if(scancode == KEYPAD_KEYD){ //pulsa cancelar
 c10057c:	e55b3019 	ldrb	r3, [fp, #-25]	; 0xffffffe7
 c100580:	e353000d 	cmp	r3, #13
 c100584:	1a000001 	bne	c100590 <writelist_verduras+0x3c0>
		return 0;
 c100588:	e3a03000 	mov	r3, #0
 c10058c:	ea00002a 	b	c10063c <writelist_verduras+0x46c>
	}
	if(scancode == KEYPAD_KEYE){ //Pulsa aceptar
 c100590:	e55b3019 	ldrb	r3, [fp, #-25]	; 0xffffffe7
 c100594:	e353000e 	cmp	r3, #14
 c100598:	1a000015 	bne	c1005f4 <writelist_verduras+0x424>
		funcion_peso(&verduras[num_list][move]);
 c10059c:	e59f10a8 	ldr	r1, [pc, #168]	; c10064c <writelist_verduras+0x47c>
 c1005a0:	e51b2028 	ldr	r2, [fp, #-40]	; 0xffffffd8
 c1005a4:	e1a03002 	mov	r3, r2
 c1005a8:	e1a03103 	lsl	r3, r3, #2
 c1005ac:	e0833002 	add	r3, r3, r2
 c1005b0:	e1a03083 	lsl	r3, r3, #1
 c1005b4:	e0833002 	add	r3, r3, r2
 c1005b8:	e1a03203 	lsl	r3, r3, #4
 c1005bc:	e1a00003 	mov	r0, r3
 c1005c0:	e51b2020 	ldr	r2, [fp, #-32]	; 0xffffffe0
 c1005c4:	e1a03002 	mov	r3, r2
 c1005c8:	e1a03103 	lsl	r3, r3, #2
 c1005cc:	e0833002 	add	r3, r3, r2
 c1005d0:	e1a03083 	lsl	r3, r3, #1
 c1005d4:	e0833002 	add	r3, r3, r2
 c1005d8:	e1a03083 	lsl	r3, r3, #1
 c1005dc:	e0803003 	add	r3, r0, r3
 c1005e0:	e0813003 	add	r3, r1, r3
 c1005e4:	e1a00003 	mov	r0, r3
 c1005e8:	eb0001bd 	bl	c100ce4 <funcion_peso>
		return 4;
 c1005ec:	e3a03004 	mov	r3, #4
 c1005f0:	ea000011 	b	c10063c <writelist_verduras+0x46c>
	}
	if(scancode == KEYPAD_KEYF){ //Pulsa siguiente
 c1005f4:	e55b3019 	ldrb	r3, [fp, #-25]	; 0xffffffe7
 c1005f8:	e353000f 	cmp	r3, #15
 c1005fc:	1a000001 	bne	c100608 <writelist_verduras+0x438>
		return 2;
 c100600:	e3a03002 	mov	r3, #2
 c100604:	ea00000c 	b	c10063c <writelist_verduras+0x46c>
	}
	if(scancode == KEYPAD_KEY0){  //pulsa pantalla anterior
 c100608:	e55b3019 	ldrb	r3, [fp, #-25]	; 0xffffffe7
 c10060c:	e3530000 	cmp	r3, #0
 c100610:	1a000002 	bne	c100620 <writelist_verduras+0x450>
		lcd_clear();
 c100614:	eb000b4d 	bl	c103350 <lcd_clear>
		return 5;
 c100618:	e3a03005 	mov	r3, #5
 c10061c:	ea000006 	b	c10063c <writelist_verduras+0x46c>
	}
	if(scancode == KEYPAD_KEY1){  //pulsa pantalla siguiente
 c100620:	e55b3019 	ldrb	r3, [fp, #-25]	; 0xffffffe7
 c100624:	e3530001 	cmp	r3, #1
 c100628:	1a000002 	bne	c100638 <writelist_verduras+0x468>
		lcd_clear();
 c10062c:	eb000b47 	bl	c103350 <lcd_clear>
		return 6;
 c100630:	e3a03006 	mov	r3, #6
 c100634:	ea000000 	b	c10063c <writelist_verduras+0x46c>
 c100638:	eaffffff 	b	c10063c <writelist_verduras+0x46c>
	}
}
 c10063c:	e1a00003 	mov	r0, r3
 c100640:	e24bd00c 	sub	sp, fp, #12
 c100644:	e89d6800 	ldm	sp, {fp, sp, lr}
 c100648:	e12fff1e 	bx	lr
 c10064c:	0c10a0e0 	.word	0x0c10a0e0
 c100650:	0c108778 	.word	0x0c108778
 c100654:	0c108788 	.word	0x0c108788

0c100658 <writelist_frutas>:

int writelist_frutas( int num_list, int movelist){
 c100658:	e1a0c00d 	mov	ip, sp
 c10065c:	e92dd800 	push	{fp, ip, lr, pc}
 c100660:	e24cb004 	sub	fp, ip, #4
 c100664:	e24dd020 	sub	sp, sp, #32
 c100668:	e50b0028 	str	r0, [fp, #-40]	; 0xffffffd8
 c10066c:	e50b102c 	str	r1, [fp, #-44]	; 0xffffffd4

	int j = 7, i=0, posicion_movelist = 0,move = movelist;
 c100670:	e3a03007 	mov	r3, #7
 c100674:	e50b3010 	str	r3, [fp, #-16]
 c100678:	e3a03000 	mov	r3, #0
 c10067c:	e50b3014 	str	r3, [fp, #-20]	; 0xffffffec
 c100680:	e3a03000 	mov	r3, #0
 c100684:	e50b3018 	str	r3, [fp, #-24]	; 0xffffffe8
 c100688:	e51b302c 	ldr	r3, [fp, #-44]	; 0xffffffd4
 c10068c:	e50b3020 	str	r3, [fp, #-32]	; 0xffffffe0
	uint8 scancode;

	scancode = KEYPAD_KEYA;
 c100690:	e3a0300a 	mov	r3, #10
 c100694:	e54b3019 	strb	r3, [fp, #-25]	; 0xffffffe7

	while( i < 4){
 c100698:	ea000027 	b	c10073c <writelist_frutas+0xe4>

		if( i == move )
 c10069c:	e51b2014 	ldr	r2, [fp, #-20]	; 0xffffffec
 c1006a0:	e51b3020 	ldr	r3, [fp, #-32]	; 0xffffffe0
 c1006a4:	e1520003 	cmp	r2, r3
 c1006a8:	1a000001 	bne	c1006b4 <writelist_frutas+0x5c>
			posicion_movelist = j;
 c1006ac:	e51b3010 	ldr	r3, [fp, #-16]
 c1006b0:	e50b3018 	str	r3, [fp, #-24]	; 0xffffffe8

		lcd_puts( 50, 20+j, BLACK, frutas[num_list][i].nombre ); // he cambiado verduras por alimentos
 c1006b4:	e51b3010 	ldr	r3, [fp, #-16]
 c1006b8:	e1a03803 	lsl	r3, r3, #16
 c1006bc:	e1a03823 	lsr	r3, r3, #16
 c1006c0:	e2833014 	add	r3, r3, #20
 c1006c4:	e1a03803 	lsl	r3, r3, #16
 c1006c8:	e1a0c823 	lsr	ip, r3, #16
 c1006cc:	e51b3014 	ldr	r3, [fp, #-20]	; 0xffffffec
 c1006d0:	e1a02003 	mov	r2, r3
 c1006d4:	e1a02102 	lsl	r2, r2, #2
 c1006d8:	e0822003 	add	r2, r2, r3
 c1006dc:	e1a02082 	lsl	r2, r2, #1
 c1006e0:	e0822003 	add	r2, r2, r3
 c1006e4:	e1a03082 	lsl	r3, r2, #1
 c1006e8:	e1a02003 	mov	r2, r3
 c1006ec:	e51b1028 	ldr	r1, [fp, #-40]	; 0xffffffd8
 c1006f0:	e1a03001 	mov	r3, r1
 c1006f4:	e1a03103 	lsl	r3, r3, #2
 c1006f8:	e0833001 	add	r3, r3, r1
 c1006fc:	e1a03083 	lsl	r3, r3, #1
 c100700:	e0833001 	add	r3, r3, r1
 c100704:	e1a03203 	lsl	r3, r3, #4
 c100708:	e0822003 	add	r2, r2, r3
 c10070c:	e59f33c0 	ldr	r3, [pc, #960]	; c100ad4 <writelist_frutas+0x47c>
 c100710:	e0823003 	add	r3, r2, r3
 c100714:	e3a00032 	mov	r0, #50	; 0x32
 c100718:	e1a0100c 	mov	r1, ip
 c10071c:	e3a0200f 	mov	r2, #15
 c100720:	eb000c87 	bl	c103944 <lcd_puts>
		i++;
 c100724:	e51b3014 	ldr	r3, [fp, #-20]	; 0xffffffec
 c100728:	e2833001 	add	r3, r3, #1
 c10072c:	e50b3014 	str	r3, [fp, #-20]	; 0xffffffec
		j=j+43;
 c100730:	e51b3010 	ldr	r3, [fp, #-16]
 c100734:	e283302b 	add	r3, r3, #43	; 0x2b
 c100738:	e50b3010 	str	r3, [fp, #-16]
	int j = 7, i=0, posicion_movelist = 0,move = movelist;
	uint8 scancode;

	scancode = KEYPAD_KEYA;

	while( i < 4){
 c10073c:	e51b3014 	ldr	r3, [fp, #-20]	; 0xffffffec
 c100740:	e3530003 	cmp	r3, #3
 c100744:	daffffd4 	ble	c10069c <writelist_frutas+0x44>
		lcd_puts( 50, 20+j, BLACK, frutas[num_list][i].nombre ); // he cambiado verduras por alimentos
		i++;
		j=j+43;
	}

	j=7;
 c100748:	e3a03007 	mov	r3, #7
 c10074c:	e50b3010 	str	r3, [fp, #-16]

	while( i < 8 ){
 c100750:	ea000027 	b	c1007f4 <writelist_frutas+0x19c>

		if( i == move )
 c100754:	e51b2014 	ldr	r2, [fp, #-20]	; 0xffffffec
 c100758:	e51b3020 	ldr	r3, [fp, #-32]	; 0xffffffe0
 c10075c:	e1520003 	cmp	r2, r3
 c100760:	1a000001 	bne	c10076c <writelist_frutas+0x114>
			posicion_movelist = j;
 c100764:	e51b3010 	ldr	r3, [fp, #-16]
 c100768:	e50b3018 	str	r3, [fp, #-24]	; 0xffffffe8

		lcd_puts( 200, 20+j, BLACK, frutas[num_list][i].nombre ); // lo mismo que arriba :D
 c10076c:	e51b3010 	ldr	r3, [fp, #-16]
 c100770:	e1a03803 	lsl	r3, r3, #16
 c100774:	e1a03823 	lsr	r3, r3, #16
 c100778:	e2833014 	add	r3, r3, #20
 c10077c:	e1a03803 	lsl	r3, r3, #16
 c100780:	e1a0c823 	lsr	ip, r3, #16
 c100784:	e51b3014 	ldr	r3, [fp, #-20]	; 0xffffffec
 c100788:	e1a02003 	mov	r2, r3
 c10078c:	e1a02102 	lsl	r2, r2, #2
 c100790:	e0822003 	add	r2, r2, r3
 c100794:	e1a02082 	lsl	r2, r2, #1
 c100798:	e0822003 	add	r2, r2, r3
 c10079c:	e1a03082 	lsl	r3, r2, #1
 c1007a0:	e1a02003 	mov	r2, r3
 c1007a4:	e51b1028 	ldr	r1, [fp, #-40]	; 0xffffffd8
 c1007a8:	e1a03001 	mov	r3, r1
 c1007ac:	e1a03103 	lsl	r3, r3, #2
 c1007b0:	e0833001 	add	r3, r3, r1
 c1007b4:	e1a03083 	lsl	r3, r3, #1
 c1007b8:	e0833001 	add	r3, r3, r1
 c1007bc:	e1a03203 	lsl	r3, r3, #4
 c1007c0:	e0822003 	add	r2, r2, r3
 c1007c4:	e59f3308 	ldr	r3, [pc, #776]	; c100ad4 <writelist_frutas+0x47c>
 c1007c8:	e0823003 	add	r3, r2, r3
 c1007cc:	e3a000c8 	mov	r0, #200	; 0xc8
 c1007d0:	e1a0100c 	mov	r1, ip
 c1007d4:	e3a0200f 	mov	r2, #15
 c1007d8:	eb000c59 	bl	c103944 <lcd_puts>
		i++;
 c1007dc:	e51b3014 	ldr	r3, [fp, #-20]	; 0xffffffec
 c1007e0:	e2833001 	add	r3, r3, #1
 c1007e4:	e50b3014 	str	r3, [fp, #-20]	; 0xffffffec
		j=j+43;
 c1007e8:	e51b3010 	ldr	r3, [fp, #-16]
 c1007ec:	e283302b 	add	r3, r3, #43	; 0x2b
 c1007f0:	e50b3010 	str	r3, [fp, #-16]
		j=j+43;
	}

	j=7;

	while( i < 8 ){
 c1007f4:	e51b3014 	ldr	r3, [fp, #-20]	; 0xffffffec
 c1007f8:	e3530007 	cmp	r3, #7
 c1007fc:	daffffd4 	ble	c100754 <writelist_frutas+0xfc>
		lcd_puts( 200, 20+j, BLACK, frutas[num_list][i].nombre ); // lo mismo que arriba :D
		i++;
		j=j+43;
	}

	while(scancode != KEYPAD_KEYE && scancode != KEYPAD_KEYC && scancode != KEYPAD_KEYD
 c100800:	ea000068 	b	c1009a8 <writelist_frutas+0x350>
			&& scancode != KEYPAD_KEYF && scancode != KEYPAD_KEY0 && scancode != KEYPAD_KEY1 ){

		if(move <= 3)
 c100804:	e51b3020 	ldr	r3, [fp, #-32]	; 0xffffffe0
 c100808:	e3530003 	cmp	r3, #3
 c10080c:	ca00001c 	bgt	c100884 <writelist_frutas+0x22c>
			lcd_puts( 50, 20+posicion_movelist, BLACK, frutas[num_list][move].nombre ); //mas de lo mismo
 c100810:	e51b3018 	ldr	r3, [fp, #-24]	; 0xffffffe8
 c100814:	e1a03803 	lsl	r3, r3, #16
 c100818:	e1a03823 	lsr	r3, r3, #16
 c10081c:	e2833014 	add	r3, r3, #20
 c100820:	e1a03803 	lsl	r3, r3, #16
 c100824:	e1a0c823 	lsr	ip, r3, #16
 c100828:	e51b3020 	ldr	r3, [fp, #-32]	; 0xffffffe0
 c10082c:	e1a02003 	mov	r2, r3
 c100830:	e1a02102 	lsl	r2, r2, #2
 c100834:	e0822003 	add	r2, r2, r3
 c100838:	e1a02082 	lsl	r2, r2, #1
 c10083c:	e0822003 	add	r2, r2, r3
 c100840:	e1a03082 	lsl	r3, r2, #1
 c100844:	e1a02003 	mov	r2, r3
 c100848:	e51b1028 	ldr	r1, [fp, #-40]	; 0xffffffd8
 c10084c:	e1a03001 	mov	r3, r1
 c100850:	e1a03103 	lsl	r3, r3, #2
 c100854:	e0833001 	add	r3, r3, r1
 c100858:	e1a03083 	lsl	r3, r3, #1
 c10085c:	e0833001 	add	r3, r3, r1
 c100860:	e1a03203 	lsl	r3, r3, #4
 c100864:	e0822003 	add	r2, r2, r3
 c100868:	e59f3264 	ldr	r3, [pc, #612]	; c100ad4 <writelist_frutas+0x47c>
 c10086c:	e0823003 	add	r3, r2, r3
 c100870:	e3a00032 	mov	r0, #50	; 0x32
 c100874:	e1a0100c 	mov	r1, ip
 c100878:	e3a0200f 	mov	r2, #15
 c10087c:	eb000c30 	bl	c103944 <lcd_puts>
 c100880:	ea00001b 	b	c1008f4 <writelist_frutas+0x29c>
		else
			lcd_puts( 200, 20+posicion_movelist, BLACK, frutas[num_list][move].nombre ); //mas de lo mismo
 c100884:	e51b3018 	ldr	r3, [fp, #-24]	; 0xffffffe8
 c100888:	e1a03803 	lsl	r3, r3, #16
 c10088c:	e1a03823 	lsr	r3, r3, #16
 c100890:	e2833014 	add	r3, r3, #20
 c100894:	e1a03803 	lsl	r3, r3, #16
 c100898:	e1a0c823 	lsr	ip, r3, #16
 c10089c:	e51b3020 	ldr	r3, [fp, #-32]	; 0xffffffe0
 c1008a0:	e1a02003 	mov	r2, r3
 c1008a4:	e1a02102 	lsl	r2, r2, #2
 c1008a8:	e0822003 	add	r2, r2, r3
 c1008ac:	e1a02082 	lsl	r2, r2, #1
 c1008b0:	e0822003 	add	r2, r2, r3
 c1008b4:	e1a03082 	lsl	r3, r2, #1
 c1008b8:	e1a02003 	mov	r2, r3
 c1008bc:	e51b1028 	ldr	r1, [fp, #-40]	; 0xffffffd8
 c1008c0:	e1a03001 	mov	r3, r1
 c1008c4:	e1a03103 	lsl	r3, r3, #2
 c1008c8:	e0833001 	add	r3, r3, r1
 c1008cc:	e1a03083 	lsl	r3, r3, #1
 c1008d0:	e0833001 	add	r3, r3, r1
 c1008d4:	e1a03203 	lsl	r3, r3, #4
 c1008d8:	e0822003 	add	r2, r2, r3
 c1008dc:	e59f31f0 	ldr	r3, [pc, #496]	; c100ad4 <writelist_frutas+0x47c>
 c1008e0:	e0823003 	add	r3, r2, r3
 c1008e4:	e3a000c8 	mov	r0, #200	; 0xc8
 c1008e8:	e1a0100c 	mov	r1, ip
 c1008ec:	e3a0200f 	mov	r2, #15
 c1008f0:	eb000c13 	bl	c103944 <lcd_puts>

		scancode = keypad_scan();
 c1008f4:	eb000809 	bl	c102920 <keypad_scan>
 c1008f8:	e1a03000 	mov	r3, r0
 c1008fc:	e54b3019 	strb	r3, [fp, #-25]	; 0xffffffe7
		sw_delay_ms(250);
 c100900:	e3a000fa 	mov	r0, #250	; 0xfa
 c100904:	eb001588 	bl	c105f2c <sw_delay_ms>
		scancode = keypad_scan();
 c100908:	eb000804 	bl	c102920 <keypad_scan>
 c10090c:	e1a03000 	mov	r3, r0
 c100910:	e54b3019 	strb	r3, [fp, #-25]	; 0xffffffe7

		if(move < 3 || move == 3)
 c100914:	e51b3020 	ldr	r3, [fp, #-32]	; 0xffffffe0
 c100918:	e3530002 	cmp	r3, #2
 c10091c:	da000002 	ble	c10092c <writelist_frutas+0x2d4>
 c100920:	e51b3020 	ldr	r3, [fp, #-32]	; 0xffffffe0
 c100924:	e3530003 	cmp	r3, #3
 c100928:	1a00000b 	bne	c10095c <writelist_frutas+0x304>
			lcd_puts( 50, 20+posicion_movelist, BLACK, "            ");
 c10092c:	e51b3018 	ldr	r3, [fp, #-24]	; 0xffffffe8
 c100930:	e1a03803 	lsl	r3, r3, #16
 c100934:	e1a03823 	lsr	r3, r3, #16
 c100938:	e2833014 	add	r3, r3, #20
 c10093c:	e1a03803 	lsl	r3, r3, #16
 c100940:	e1a03823 	lsr	r3, r3, #16
 c100944:	e3a00032 	mov	r0, #50	; 0x32
 c100948:	e1a01003 	mov	r1, r3
 c10094c:	e3a0200f 	mov	r2, #15
 c100950:	e59f3180 	ldr	r3, [pc, #384]	; c100ad8 <writelist_frutas+0x480>
 c100954:	eb000bfa 	bl	c103944 <lcd_puts>
 c100958:	ea00000a 	b	c100988 <writelist_frutas+0x330>
		else
			lcd_puts( 200, 20+posicion_movelist, BLACK, "           " );
 c10095c:	e51b3018 	ldr	r3, [fp, #-24]	; 0xffffffe8
 c100960:	e1a03803 	lsl	r3, r3, #16
 c100964:	e1a03823 	lsr	r3, r3, #16
 c100968:	e2833014 	add	r3, r3, #20
 c10096c:	e1a03803 	lsl	r3, r3, #16
 c100970:	e1a03823 	lsr	r3, r3, #16
 c100974:	e3a000c8 	mov	r0, #200	; 0xc8
 c100978:	e1a01003 	mov	r1, r3
 c10097c:	e3a0200f 	mov	r2, #15
 c100980:	e59f3154 	ldr	r3, [pc, #340]	; c100adc <writelist_frutas+0x484>
 c100984:	eb000bee 	bl	c103944 <lcd_puts>

		scancode = keypad_scan();
 c100988:	eb0007e4 	bl	c102920 <keypad_scan>
 c10098c:	e1a03000 	mov	r3, r0
 c100990:	e54b3019 	strb	r3, [fp, #-25]	; 0xffffffe7
		sw_delay_ms(250);
 c100994:	e3a000fa 	mov	r0, #250	; 0xfa
 c100998:	eb001563 	bl	c105f2c <sw_delay_ms>
		scancode = keypad_scan();
 c10099c:	eb0007df 	bl	c102920 <keypad_scan>
 c1009a0:	e1a03000 	mov	r3, r0
 c1009a4:	e54b3019 	strb	r3, [fp, #-25]	; 0xffffffe7
		lcd_puts( 200, 20+j, BLACK, frutas[num_list][i].nombre ); // lo mismo que arriba :D
		i++;
		j=j+43;
	}

	while(scancode != KEYPAD_KEYE && scancode != KEYPAD_KEYC && scancode != KEYPAD_KEYD
 c1009a8:	e55b3019 	ldrb	r3, [fp, #-25]	; 0xffffffe7
 c1009ac:	e353000e 	cmp	r3, #14
 c1009b0:	0a00000e 	beq	c1009f0 <writelist_frutas+0x398>
 c1009b4:	e55b3019 	ldrb	r3, [fp, #-25]	; 0xffffffe7
 c1009b8:	e353000c 	cmp	r3, #12
 c1009bc:	0a00000b 	beq	c1009f0 <writelist_frutas+0x398>
 c1009c0:	e55b3019 	ldrb	r3, [fp, #-25]	; 0xffffffe7
 c1009c4:	e353000d 	cmp	r3, #13
 c1009c8:	0a000008 	beq	c1009f0 <writelist_frutas+0x398>
			&& scancode != KEYPAD_KEYF && scancode != KEYPAD_KEY0 && scancode != KEYPAD_KEY1 ){
 c1009cc:	e55b3019 	ldrb	r3, [fp, #-25]	; 0xffffffe7
 c1009d0:	e353000f 	cmp	r3, #15
 c1009d4:	0a000005 	beq	c1009f0 <writelist_frutas+0x398>
 c1009d8:	e55b3019 	ldrb	r3, [fp, #-25]	; 0xffffffe7
 c1009dc:	e3530000 	cmp	r3, #0
 c1009e0:	0a000002 	beq	c1009f0 <writelist_frutas+0x398>
 c1009e4:	e55b3019 	ldrb	r3, [fp, #-25]	; 0xffffffe7
 c1009e8:	e3530001 	cmp	r3, #1
 c1009ec:	1affff84 	bne	c100804 <writelist_frutas+0x1ac>
		sw_delay_ms(250);
		scancode = keypad_scan();
	}


	if(scancode == KEYPAD_KEYC){  //pulsa anterior
 c1009f0:	e55b3019 	ldrb	r3, [fp, #-25]	; 0xffffffe7
 c1009f4:	e353000c 	cmp	r3, #12
 c1009f8:	1a000001 	bne	c100a04 <writelist_frutas+0x3ac>
		return 1;
 c1009fc:	e3a03001 	mov	r3, #1
 c100a00:	ea00002f 	b	c100ac4 <writelist_frutas+0x46c>
	}
	if(scancode == KEYPAD_KEYD){ //pulsa cancelar
 c100a04:	e55b3019 	ldrb	r3, [fp, #-25]	; 0xffffffe7
 c100a08:	e353000d 	cmp	r3, #13
 c100a0c:	1a000001 	bne	c100a18 <writelist_frutas+0x3c0>
		return 0;
 c100a10:	e3a03000 	mov	r3, #0
 c100a14:	ea00002a 	b	c100ac4 <writelist_frutas+0x46c>
	}
	if(scancode == KEYPAD_KEYE){ //Pulsa aceptar
 c100a18:	e55b3019 	ldrb	r3, [fp, #-25]	; 0xffffffe7
 c100a1c:	e353000e 	cmp	r3, #14
 c100a20:	1a000015 	bne	c100a7c <writelist_frutas+0x424>
		funcion_peso(&frutas[num_list][move]);
 c100a24:	e59f10a8 	ldr	r1, [pc, #168]	; c100ad4 <writelist_frutas+0x47c>
 c100a28:	e51b2028 	ldr	r2, [fp, #-40]	; 0xffffffd8
 c100a2c:	e1a03002 	mov	r3, r2
 c100a30:	e1a03103 	lsl	r3, r3, #2
 c100a34:	e0833002 	add	r3, r3, r2
 c100a38:	e1a03083 	lsl	r3, r3, #1
 c100a3c:	e0833002 	add	r3, r3, r2
 c100a40:	e1a03203 	lsl	r3, r3, #4
 c100a44:	e1a00003 	mov	r0, r3
 c100a48:	e51b2020 	ldr	r2, [fp, #-32]	; 0xffffffe0
 c100a4c:	e1a03002 	mov	r3, r2
 c100a50:	e1a03103 	lsl	r3, r3, #2
 c100a54:	e0833002 	add	r3, r3, r2
 c100a58:	e1a03083 	lsl	r3, r3, #1
 c100a5c:	e0833002 	add	r3, r3, r2
 c100a60:	e1a03083 	lsl	r3, r3, #1
 c100a64:	e0803003 	add	r3, r0, r3
 c100a68:	e0813003 	add	r3, r1, r3
 c100a6c:	e1a00003 	mov	r0, r3
 c100a70:	eb00009b 	bl	c100ce4 <funcion_peso>
		return 4;
 c100a74:	e3a03004 	mov	r3, #4
 c100a78:	ea000011 	b	c100ac4 <writelist_frutas+0x46c>
	}
	if(scancode == KEYPAD_KEYF){ //Pulsa siguiente
 c100a7c:	e55b3019 	ldrb	r3, [fp, #-25]	; 0xffffffe7
 c100a80:	e353000f 	cmp	r3, #15
 c100a84:	1a000001 	bne	c100a90 <writelist_frutas+0x438>
		return 2;
 c100a88:	e3a03002 	mov	r3, #2
 c100a8c:	ea00000c 	b	c100ac4 <writelist_frutas+0x46c>
	}
	if(scancode == KEYPAD_KEY0){  //pulsa pantalla anterior
 c100a90:	e55b3019 	ldrb	r3, [fp, #-25]	; 0xffffffe7
 c100a94:	e3530000 	cmp	r3, #0
 c100a98:	1a000002 	bne	c100aa8 <writelist_frutas+0x450>
		lcd_clear();
 c100a9c:	eb000a2b 	bl	c103350 <lcd_clear>
		return 5;
 c100aa0:	e3a03005 	mov	r3, #5
 c100aa4:	ea000006 	b	c100ac4 <writelist_frutas+0x46c>
	}
	if(scancode == KEYPAD_KEY1){  //pulsa pantalla siguiente
 c100aa8:	e55b3019 	ldrb	r3, [fp, #-25]	; 0xffffffe7
 c100aac:	e3530001 	cmp	r3, #1
 c100ab0:	1a000002 	bne	c100ac0 <writelist_frutas+0x468>
		lcd_clear();
 c100ab4:	eb000a25 	bl	c103350 <lcd_clear>
		return 6;
 c100ab8:	e3a03006 	mov	r3, #6
 c100abc:	ea000000 	b	c100ac4 <writelist_frutas+0x46c>
 c100ac0:	eaffffff 	b	c100ac4 <writelist_frutas+0x46c>
	}

}
 c100ac4:	e1a00003 	mov	r0, r3
 c100ac8:	e24bd00c 	sub	sp, fp, #12
 c100acc:	e89d6800 	ldm	sp, {fp, sp, lr}
 c100ad0:	e12fff1e 	bx	lr
 c100ad4:	0c10a3a0 	.word	0x0c10a3a0
 c100ad8:	0c108798 	.word	0x0c108798
 c100adc:	0c1087a8 	.word	0x0c1087a8

0c100ae0 <frutas_verduras>:

int frutas_verduras(){
 c100ae0:	e1a0c00d 	mov	ip, sp
 c100ae4:	e92dd800 	push	{fp, ip, lr, pc}
 c100ae8:	e24cb004 	sub	fp, ip, #4
 c100aec:	e24dd008 	sub	sp, sp, #8
	int i = 0; // i = 0 -> Fruta; i= 1-> verdura; i = 2 -> modo admin;
 c100af0:	e3a03000 	mov	r3, #0
 c100af4:	e50b3010 	str	r3, [fp, #-16]
	uint8 scancode;
	lcd_putWallpaper( VERDURA );
 c100af8:	e59f00ac 	ldr	r0, [pc, #172]	; c100bac <frutas_verduras+0xcc>
 c100afc:	eb000ff0 	bl	c104ac4 <lcd_putWallpaper>
	lcd_putWallpaper( FRUTA );
 c100b00:	e59f00a8 	ldr	r0, [pc, #168]	; c100bb0 <frutas_verduras+0xd0>
 c100b04:	eb000fee 	bl	c104ac4 <lcd_putWallpaper>
	scancode = keypad_getchar();
 c100b08:	eb0008fa 	bl	c102ef8 <keypad_getchar>
 c100b0c:	e1a03000 	mov	r3, r0
 c100b10:	e54b3011 	strb	r3, [fp, #-17]	; 0xffffffef
	while(scancode != KEYPAD_KEYE && scancode != KEYPAD_KEY0){ // scancode != ok o scandode != admin
 c100b14:	ea000014 	b	c100b6c <frutas_verduras+0x8c>
		if(scancode == KEYPAD_KEYC || scancode== KEYPAD_KEYF){ //scancode == flechas
 c100b18:	e55b3011 	ldrb	r3, [fp, #-17]	; 0xffffffef
 c100b1c:	e353000c 	cmp	r3, #12
 c100b20:	0a000002 	beq	c100b30 <frutas_verduras+0x50>
 c100b24:	e55b3011 	ldrb	r3, [fp, #-17]	; 0xffffffef
 c100b28:	e353000f 	cmp	r3, #15
 c100b2c:	1a00000b 	bne	c100b60 <frutas_verduras+0x80>
			if(i == 0){
 c100b30:	e51b3010 	ldr	r3, [fp, #-16]
 c100b34:	e3530000 	cmp	r3, #0
 c100b38:	1a000004 	bne	c100b50 <frutas_verduras+0x70>
				i = 1;
 c100b3c:	e3a03001 	mov	r3, #1
 c100b40:	e50b3010 	str	r3, [fp, #-16]
				lcd_putWallpaper( VERDURA );
 c100b44:	e59f0060 	ldr	r0, [pc, #96]	; c100bac <frutas_verduras+0xcc>
 c100b48:	eb000fdd 	bl	c104ac4 <lcd_putWallpaper>
 c100b4c:	ea000003 	b	c100b60 <frutas_verduras+0x80>
			}
			else{
				i = 0;
 c100b50:	e3a03000 	mov	r3, #0
 c100b54:	e50b3010 	str	r3, [fp, #-16]
				lcd_putWallpaper( FRUTA );
 c100b58:	e59f0050 	ldr	r0, [pc, #80]	; c100bb0 <frutas_verduras+0xd0>
 c100b5c:	eb000fd8 	bl	c104ac4 <lcd_putWallpaper>
			}
		}
		scancode = keypad_getchar();
 c100b60:	eb0008e4 	bl	c102ef8 <keypad_getchar>
 c100b64:	e1a03000 	mov	r3, r0
 c100b68:	e54b3011 	strb	r3, [fp, #-17]	; 0xffffffef
	int i = 0; // i = 0 -> Fruta; i= 1-> verdura; i = 2 -> modo admin;
	uint8 scancode;
	lcd_putWallpaper( VERDURA );
	lcd_putWallpaper( FRUTA );
	scancode = keypad_getchar();
	while(scancode != KEYPAD_KEYE && scancode != KEYPAD_KEY0){ // scancode != ok o scandode != admin
 c100b6c:	e55b3011 	ldrb	r3, [fp, #-17]	; 0xffffffef
 c100b70:	e353000e 	cmp	r3, #14
 c100b74:	0a000002 	beq	c100b84 <frutas_verduras+0xa4>
 c100b78:	e55b3011 	ldrb	r3, [fp, #-17]	; 0xffffffef
 c100b7c:	e3530000 	cmp	r3, #0
 c100b80:	1affffe4 	bne	c100b18 <frutas_verduras+0x38>
				lcd_putWallpaper( FRUTA );
			}
		}
		scancode = keypad_getchar();
	}
	if (scancode == KEYPAD_KEY0)
 c100b84:	e55b3011 	ldrb	r3, [fp, #-17]	; 0xffffffef
 c100b88:	e3530000 	cmp	r3, #0
 c100b8c:	1a000001 	bne	c100b98 <frutas_verduras+0xb8>
		i = 2;
 c100b90:	e3a03002 	mov	r3, #2
 c100b94:	e50b3010 	str	r3, [fp, #-16]

	return i;
 c100b98:	e51b3010 	ldr	r3, [fp, #-16]
}
 c100b9c:	e1a00003 	mov	r0, r3
 c100ba0:	e24bd00c 	sub	sp, fp, #12
 c100ba4:	e89d6800 	ldm	sp, {fp, sp, lr}
 c100ba8:	e12fff1e 	bx	lr
 c100bac:	0c220000 	.word	0x0c220000
 c100bb0:	0c210000 	.word	0x0c210000

0c100bb4 <pantalla_peso>:

void pantalla_peso(fix16 precio){//tAlimentos alimento){
 c100bb4:	e1a0c00d 	mov	ip, sp
 c100bb8:	e92dd800 	push	{fp, ip, lr, pc}
 c100bbc:	e24cb004 	sub	fp, ip, #4
 c100bc0:	e24dd010 	sub	sp, sp, #16
 c100bc4:	e1a03000 	mov	r3, r0
 c100bc8:	e14b30be 	strh	r3, [fp, #-14]
	lcd_clear();
 c100bcc:	eb0009df 	bl	c103350 <lcd_clear>
	lcd_draw_box( 10, 10, 310, 230, BLACK, 5 );
 c100bd0:	e3a0300f 	mov	r3, #15
 c100bd4:	e58d3000 	str	r3, [sp]
 c100bd8:	e3a03005 	mov	r3, #5
 c100bdc:	e58d3004 	str	r3, [sp, #4]
 c100be0:	e3a0000a 	mov	r0, #10
 c100be4:	e3a0100a 	mov	r1, #10
 c100be8:	e59f20d4 	ldr	r2, [pc, #212]	; c100cc4 <pantalla_peso+0x110>
 c100bec:	e3a030e6 	mov	r3, #230	; 0xe6
 c100bf0:	eb000ad7 	bl	c103754 <lcd_draw_box>
	lcd_draw_hline(10,310,115,BLACK,5);
 c100bf4:	e3a03005 	mov	r3, #5
 c100bf8:	e58d3000 	str	r3, [sp]
 c100bfc:	e3a0000a 	mov	r0, #10
 c100c00:	e59f10bc 	ldr	r1, [pc, #188]	; c100cc4 <pantalla_peso+0x110>
 c100c04:	e3a02073 	mov	r2, #115	; 0x73
 c100c08:	e3a0300f 	mov	r3, #15
 c100c0c:	eb000a50 	bl	c103554 <lcd_draw_hline>
	lcd_draw_vline(115,230,155,BLACK,5);
 c100c10:	e3a03005 	mov	r3, #5
 c100c14:	e58d3000 	str	r3, [sp]
 c100c18:	e3a00073 	mov	r0, #115	; 0x73
 c100c1c:	e3a010e6 	mov	r1, #230	; 0xe6
 c100c20:	e3a0209b 	mov	r2, #155	; 0x9b
 c100c24:	e3a0300f 	mov	r3, #15
 c100c28:	eb000a9b 	bl	c10369c <lcd_draw_vline>
	lcd_puts( 16, 3, BLACK, "Peso:" );
 c100c2c:	e3a00010 	mov	r0, #16
 c100c30:	e3a01003 	mov	r1, #3
 c100c34:	e3a0200f 	mov	r2, #15
 c100c38:	e59f3088 	ldr	r3, [pc, #136]	; c100cc8 <pantalla_peso+0x114>
 c100c3c:	eb000b40 	bl	c103944 <lcd_puts>
	lcd_puts_x3( 240, 63, BLACK, "Kg" );
 c100c40:	e3a000f0 	mov	r0, #240	; 0xf0
 c100c44:	e3a0103f 	mov	r1, #63	; 0x3f
 c100c48:	e3a0200f 	mov	r2, #15
 c100c4c:	e59f3078 	ldr	r3, [pc, #120]	; c100ccc <pantalla_peso+0x118>
 c100c50:	eb000d74 	bl	c104228 <lcd_puts_x3>
	lcd_puts( 162, 108, BLACK, "Total:" );
 c100c54:	e3a000a2 	mov	r0, #162	; 0xa2
 c100c58:	e3a0106c 	mov	r1, #108	; 0x6c
 c100c5c:	e3a0200f 	mov	r2, #15
 c100c60:	e59f3068 	ldr	r3, [pc, #104]	; c100cd0 <pantalla_peso+0x11c>
 c100c64:	eb000b36 	bl	c103944 <lcd_puts>
	lcd_puts( 16, 108, BLACK, "Precio/Kg:" );
 c100c68:	e3a00010 	mov	r0, #16
 c100c6c:	e3a0106c 	mov	r1, #108	; 0x6c
 c100c70:	e3a0200f 	mov	r2, #15
 c100c74:	e59f3058 	ldr	r3, [pc, #88]	; c100cd4 <pantalla_peso+0x120>
 c100c78:	eb000b31 	bl	c103944 <lcd_puts>
	lcd_putfix(24,145, BLACK, precio);
 c100c7c:	e15b30fe 	ldrsh	r3, [fp, #-14]
 c100c80:	e3a00018 	mov	r0, #24
 c100c84:	e3a01091 	mov	r1, #145	; 0x91
 c100c88:	e3a0200f 	mov	r2, #15
 c100c8c:	ebfffcdb 	bl	c100000 <lcd_putfix>
	lcd_puts_x2(90,195, BLACK, "$/Kg" );
 c100c90:	e3a0005a 	mov	r0, #90	; 0x5a
 c100c94:	e3a010c3 	mov	r1, #195	; 0xc3
 c100c98:	e3a0200f 	mov	r2, #15
 c100c9c:	e59f3034 	ldr	r3, [pc, #52]	; c100cd8 <pantalla_peso+0x124>
 c100ca0:	eb000c70 	bl	c103e68 <lcd_puts_x2>
	lcd_puts_x2(290,195,BLACK,"$");
 c100ca4:	e59f0030 	ldr	r0, [pc, #48]	; c100cdc <pantalla_peso+0x128>
 c100ca8:	e3a010c3 	mov	r1, #195	; 0xc3
 c100cac:	e3a0200f 	mov	r2, #15
 c100cb0:	e59f3028 	ldr	r3, [pc, #40]	; c100ce0 <pantalla_peso+0x12c>
 c100cb4:	eb000c6b 	bl	c103e68 <lcd_puts_x2>

}
 c100cb8:	e24bd00c 	sub	sp, fp, #12
 c100cbc:	e89d6800 	ldm	sp, {fp, sp, lr}
 c100cc0:	e12fff1e 	bx	lr
 c100cc4:	00000136 	.word	0x00000136
 c100cc8:	0c1087b4 	.word	0x0c1087b4
 c100ccc:	0c1087bc 	.word	0x0c1087bc
 c100cd0:	0c1087c0 	.word	0x0c1087c0
 c100cd4:	0c1087c8 	.word	0x0c1087c8
 c100cd8:	0c1087d4 	.word	0x0c1087d4
 c100cdc:	00000122 	.word	0x00000122
 c100ce0:	0c1087dc 	.word	0x0c1087dc

0c100ce4 <funcion_peso>:

void funcion_peso(tAlimentos *alimentos){
 c100ce4:	e1a0c00d 	mov	ip, sp
 c100ce8:	e92dd800 	push	{fp, ip, lr, pc}
 c100cec:	e24cb004 	sub	fp, ip, #4
 c100cf0:	e24dd010 	sub	sp, sp, #16
 c100cf4:	e50b0018 	str	r0, [fp, #-24]	; 0xffffffe8
	ufix16 weight = 0;
 c100cf8:	e3a03000 	mov	r3, #0
 c100cfc:	e14b30be 	strh	r3, [fp, #-14]
	ufix16 lastWeight = 1;
 c100d00:	e3a03001 	mov	r3, #1
 c100d04:	e14b31b0 	strh	r3, [fp, #-16]

	scale_init();
 c100d08:	eb000589 	bl	c102334 <scale_init>
	lcd_clear();
 c100d0c:	eb00098f 	bl	c103350 <lcd_clear>
	pbs_init();
 c100d10:	eb000ffe 	bl	c104d10 <pbs_init>

	pantalla_peso(alimentos->precio);
 c100d14:	e51b3018 	ldr	r3, [fp, #-24]	; 0xffffffe8
 c100d18:	e1d331b4 	ldrh	r3, [r3, #20]
 c100d1c:	e1a03803 	lsl	r3, r3, #16
 c100d20:	e1a03843 	asr	r3, r3, #16
 c100d24:	e1a00003 	mov	r0, r3
 c100d28:	ebffffa1 	bl	c100bb4 <pantalla_peso>
	lcd_putint_x2(110,70,BLACK, 0);
 c100d2c:	e3a0006e 	mov	r0, #110	; 0x6e
 c100d30:	e3a01046 	mov	r1, #70	; 0x46
 c100d34:	e3a0200f 	mov	r2, #15
 c100d38:	e3a03000 	mov	r3, #0
 c100d3c:	eb000c66 	bl	c103edc <lcd_putint_x2>
	timer3_delay_ms(200);
 c100d40:	e3a000c8 	mov	r0, #200	; 0xc8
 c100d44:	eb00143f 	bl	c105e48 <timer3_delay_ms>



	pb_wait_any_keydown();
 c100d48:	eb00104a 	bl	c104e78 <pb_wait_any_keydown>
	while( weight != lastWeight )
 c100d4c:	ea00001c 	b	c100dc4 <funcion_peso+0xe0>
	 {
		timer3_delay_ms(250);
 c100d50:	e3a000fa 	mov	r0, #250	; 0xfa
 c100d54:	eb00143b 	bl	c105e48 <timer3_delay_ms>
		lastWeight = weight;
 c100d58:	e15b30be 	ldrh	r3, [fp, #-14]
 c100d5c:	e14b31b0 	strh	r3, [fp, #-16]
	    weight = scale_getWeight();                         // lee el sensor de peso
 c100d60:	eb0005f0 	bl	c102528 <scale_getWeight>
 c100d64:	e1a03000 	mov	r3, r0
 c100d68:	e14b30be 	strh	r3, [fp, #-14]
	    lcd_putfix(110,63,BLACK, weight);
 c100d6c:	e15b30be 	ldrh	r3, [fp, #-14]
 c100d70:	e1a03803 	lsl	r3, r3, #16
 c100d74:	e1a03843 	asr	r3, r3, #16
 c100d78:	e3a0006e 	mov	r0, #110	; 0x6e
 c100d7c:	e3a0103f 	mov	r1, #63	; 0x3f
 c100d80:	e3a0200f 	mov	r2, #15
 c100d84:	ebfffc9d 	bl	c100000 <lcd_putfix>
	    lcd_putfix(170,145,BLACK, FMUL(alimentos->precio, weight, 10));
 c100d88:	e51b3018 	ldr	r3, [fp, #-24]	; 0xffffffe8
 c100d8c:	e1d331b4 	ldrh	r3, [r3, #20]
 c100d90:	e1a03803 	lsl	r3, r3, #16
 c100d94:	e1a03843 	asr	r3, r3, #16
 c100d98:	e15b20be 	ldrh	r2, [fp, #-14]
 c100d9c:	e0030392 	mul	r3, r2, r3
 c100da0:	e1a03543 	asr	r3, r3, #10
 c100da4:	e1a03803 	lsl	r3, r3, #16
 c100da8:	e1a03823 	lsr	r3, r3, #16
 c100dac:	e1a03803 	lsl	r3, r3, #16
 c100db0:	e1a03843 	asr	r3, r3, #16
 c100db4:	e3a000aa 	mov	r0, #170	; 0xaa
 c100db8:	e3a01091 	mov	r1, #145	; 0x91
 c100dbc:	e3a0200f 	mov	r2, #15
 c100dc0:	ebfffc8e 	bl	c100000 <lcd_putfix>
	timer3_delay_ms(200);



	pb_wait_any_keydown();
	while( weight != lastWeight )
 c100dc4:	e15b20be 	ldrh	r2, [fp, #-14]
 c100dc8:	e15b31b0 	ldrh	r3, [fp, #-16]
 c100dcc:	e1520003 	cmp	r2, r3
 c100dd0:	1affffde 	bne	c100d50 <funcion_peso+0x6c>
	    weight = scale_getWeight();                         // lee el sensor de peso
	    lcd_putfix(110,63,BLACK, weight);
	    lcd_putfix(170,145,BLACK, FMUL(alimentos->precio, weight, 10));

	 }
	imprimeticket(alimentos->nombre, weight, alimentos->precio);
 c100dd4:	e59f3028 	ldr	r3, [pc, #40]	; c100e04 <funcion_peso+0x120>
 c100dd8:	e51b0018 	ldr	r0, [fp, #-24]	; 0xffffffe8
 c100ddc:	e15b10be 	ldrh	r1, [fp, #-14]
 c100de0:	e51b2018 	ldr	r2, [fp, #-24]	; 0xffffffe8
 c100de4:	e1d221b4 	ldrh	r2, [r2, #20]
 c100de8:	e1a02802 	lsl	r2, r2, #16
 c100dec:	e1a02842 	asr	r2, r2, #16
 c100df0:	e1a0e00f 	mov	lr, pc
 c100df4:	e12fff13 	bx	r3
}
 c100df8:	e24bd00c 	sub	sp, fp, #12
 c100dfc:	e89d6800 	ldm	sp, {fp, sp, lr}
 c100e00:	e12fff1e 	bx	lr
 c100e04:	0c10142c 	.word	0x0c10142c

0c100e08 <strcpy>:

char *strcpy(char *dest, const char *src)
{
 c100e08:	e1a0c00d 	mov	ip, sp
 c100e0c:	e92dd800 	push	{fp, ip, lr, pc}
 c100e10:	e24cb004 	sub	fp, ip, #4
 c100e14:	e24dd010 	sub	sp, sp, #16
 c100e18:	e50b0018 	str	r0, [fp, #-24]	; 0xffffffe8
 c100e1c:	e50b101c 	str	r1, [fp, #-28]	; 0xffffffe4
  unsigned i;
  for (i=0; src[i] != '\0'; ++i)
 c100e20:	e3a03000 	mov	r3, #0
 c100e24:	e50b3010 	str	r3, [fp, #-16]
 c100e28:	ea00000a 	b	c100e58 <strcpy+0x50>
    dest[i] = src[i];
 c100e2c:	e51b2018 	ldr	r2, [fp, #-24]	; 0xffffffe8
 c100e30:	e51b3010 	ldr	r3, [fp, #-16]
 c100e34:	e0823003 	add	r3, r2, r3
 c100e38:	e51b101c 	ldr	r1, [fp, #-28]	; 0xffffffe4
 c100e3c:	e51b2010 	ldr	r2, [fp, #-16]
 c100e40:	e0812002 	add	r2, r1, r2
 c100e44:	e5d22000 	ldrb	r2, [r2]
 c100e48:	e5c32000 	strb	r2, [r3]
}

char *strcpy(char *dest, const char *src)
{
  unsigned i;
  for (i=0; src[i] != '\0'; ++i)
 c100e4c:	e51b3010 	ldr	r3, [fp, #-16]
 c100e50:	e2833001 	add	r3, r3, #1
 c100e54:	e50b3010 	str	r3, [fp, #-16]
 c100e58:	e51b201c 	ldr	r2, [fp, #-28]	; 0xffffffe4
 c100e5c:	e51b3010 	ldr	r3, [fp, #-16]
 c100e60:	e0823003 	add	r3, r2, r3
 c100e64:	e5d33000 	ldrb	r3, [r3]
 c100e68:	e3530000 	cmp	r3, #0
 c100e6c:	1affffee 	bne	c100e2c <strcpy+0x24>
    dest[i] = src[i];
  dest[i] = '\0';
 c100e70:	e51b2018 	ldr	r2, [fp, #-24]	; 0xffffffe8
 c100e74:	e51b3010 	ldr	r3, [fp, #-16]
 c100e78:	e0823003 	add	r3, r2, r3
 c100e7c:	e3a02000 	mov	r2, #0
 c100e80:	e5c32000 	strb	r2, [r3]
  return dest;
 c100e84:	e51b3018 	ldr	r3, [fp, #-24]	; 0xffffffe8
}
 c100e88:	e1a00003 	mov	r0, r3
 c100e8c:	e24bd00c 	sub	sp, fp, #12
 c100e90:	e89d6800 	ldm	sp, {fp, sp, lr}
 c100e94:	e12fff1e 	bx	lr

0c100e98 <nuevoAlimento>:

tAlimentos nuevoAlimento(){
 c100e98:	e1a0c00d 	mov	ip, sp
 c100e9c:	e92dd830 	push	{r4, r5, fp, ip, lr, pc}
 c100ea0:	e24cb004 	sub	fp, ip, #4
 c100ea4:	e24dd038 	sub	sp, sp, #56	; 0x38
 c100ea8:	e1a05000 	mov	r5, r0
	tAlimentos nuevo;
	char   new_name[20];
	int32 i;
	fix16 new_precio;
	fix16 cien = TOFIX(fix16, 100, 10);
 c100eac:	e3e03902 	mvn	r3, #32768	; 0x8000
 c100eb0:	e14b31b6 	strh	r3, [fp, #-22]	; 0xffffffea
	uart0_puts( "Escriba el Nombre del nuevo Producto: " );
 c100eb4:	e59f00f4 	ldr	r0, [pc, #244]	; c100fb0 <nuevoAlimento+0x118>
 c100eb8:	eb001621 	bl	c106744 <uart0_puts>
	uart0_gets( new_name );
 c100ebc:	e24b3048 	sub	r3, fp, #72	; 0x48
 c100ec0:	e1a00003 	mov	r0, r3
 c100ec4:	eb001638 	bl	c1067ac <uart0_gets>
	uart0_putchar( '\n' );
 c100ec8:	e3a0000a 	mov	r0, #10
 c100ecc:	eb0015f6 	bl	c1066ac <uart0_putchar>
	strcpy(nuevo.nombre, new_name);
 c100ed0:	e24b2034 	sub	r2, fp, #52	; 0x34
 c100ed4:	e24b3048 	sub	r3, fp, #72	; 0x48
 c100ed8:	e1a00002 	mov	r0, r2
 c100edc:	e1a01003 	mov	r1, r3
 c100ee0:	ebffffc8 	bl	c100e08 <strcpy>
	uart0_puts( "Escriba el Precio del nuevo Producto: " );
 c100ee4:	e59f00c8 	ldr	r0, [pc, #200]	; c100fb4 <nuevoAlimento+0x11c>
 c100ee8:	eb001615 	bl	c106744 <uart0_puts>
	uart0_putchar( '\n' );
 c100eec:	e3a0000a 	mov	r0, #10
 c100ef0:	eb0015ed 	bl	c1066ac <uart0_putchar>
	uart0_puts("escribiendo los dos decimales a continuacion del numero");
 c100ef4:	e59f00bc 	ldr	r0, [pc, #188]	; c100fb8 <nuevoAlimento+0x120>
 c100ef8:	eb001611 	bl	c106744 <uart0_puts>
	uart0_putchar( '\n' );
 c100efc:	e3a0000a 	mov	r0, #10
 c100f00:	eb0015e9 	bl	c1066ac <uart0_putchar>
	uart0_puts("PE: 1e = 100; 2,23e = 223"); uart0_putchar( '\n' );
 c100f04:	e59f00b0 	ldr	r0, [pc, #176]	; c100fbc <nuevoAlimento+0x124>
 c100f08:	eb00160d 	bl	c106744 <uart0_puts>
 c100f0c:	e3a0000a 	mov	r0, #10
 c100f10:	eb0015e5 	bl	c1066ac <uart0_putchar>
	i = uart0_getint();
 c100f14:	eb0016ca 	bl	c106a44 <uart0_getint>
 c100f18:	e50b001c 	str	r0, [fp, #-28]	; 0xffffffe4

	new_precio = TOFIX(fix16, (float)i/100, 10);
 c100f1c:	e51b001c 	ldr	r0, [fp, #-28]	; 0xffffffe4
 c100f20:	eb001a36 	bl	c107800 <__aeabi_i2f>
 c100f24:	e1a03000 	mov	r3, r0
 c100f28:	e1a00003 	mov	r0, r3
 c100f2c:	e59f108c 	ldr	r1, [pc, #140]	; c100fc0 <nuevoAlimento+0x128>
 c100f30:	eb001acf 	bl	c107a74 <__aeabi_fdiv>
 c100f34:	e1a03000 	mov	r3, r0
 c100f38:	e1a00003 	mov	r0, r3
 c100f3c:	eb001850 	bl	c107084 <__aeabi_f2d>
 c100f40:	e1a03000 	mov	r3, r0
 c100f44:	e1a04001 	mov	r4, r1
 c100f48:	e1a00003 	mov	r0, r3
 c100f4c:	e1a01004 	mov	r1, r4
 c100f50:	e3a02000 	mov	r2, #0
 c100f54:	e3a03101 	mov	r3, #1073741824	; 0x40000000
 c100f58:	e2833609 	add	r3, r3, #9437184	; 0x900000
 c100f5c:	eb001875 	bl	c107138 <__aeabi_dmul>
 c100f60:	e1a03000 	mov	r3, r0
 c100f64:	e1a04001 	mov	r4, r1
 c100f68:	e1a00003 	mov	r0, r3
 c100f6c:	e1a01004 	mov	r1, r4
 c100f70:	eb001997 	bl	c1075d4 <__aeabi_d2iz>
 c100f74:	e1a03000 	mov	r3, r0
 c100f78:	e14b31be 	strh	r3, [fp, #-30]	; 0xffffffe2
	//new_precio = FDIV(new_precio, cien,10);
	nuevo.precio = new_precio;
 c100f7c:	e15b31be 	ldrh	r3, [fp, #-30]	; 0xffffffe2
 c100f80:	e14b32b0 	strh	r3, [fp, #-32]	; 0xffffffe0
	return nuevo;
 c100f84:	e1a01005 	mov	r1, r5
 c100f88:	e24b2034 	sub	r2, fp, #52	; 0x34
 c100f8c:	e3a03016 	mov	r3, #22
 c100f90:	e1a00001 	mov	r0, r1
 c100f94:	e1a01002 	mov	r1, r2
 c100f98:	e1a02003 	mov	r2, r3
 c100f9c:	eb001d84 	bl	c1085b4 <memcpy>
}
 c100fa0:	e1a00005 	mov	r0, r5
 c100fa4:	e24bd014 	sub	sp, fp, #20
 c100fa8:	e89d6830 	ldm	sp, {r4, r5, fp, sp, lr}
 c100fac:	e12fff1e 	bx	lr
 c100fb0:	0c1087e0 	.word	0x0c1087e0
 c100fb4:	0c108808 	.word	0x0c108808
 c100fb8:	0c108830 	.word	0x0c108830
 c100fbc:	0c108868 	.word	0x0c108868
 c100fc0:	42c80000 	.word	0x42c80000

0c100fc4 <anadir>:

void anadir(){
 c100fc4:	e1a0c00d 	mov	ip, sp
 c100fc8:	e92dd800 	push	{fp, ip, lr, pc}
 c100fcc:	e24cb004 	sub	fp, ip, #4
 c100fd0:	e24dd030 	sub	sp, sp, #48	; 0x30
	lcd_clear();
 c100fd4:	eb0008dd 	bl	c103350 <lcd_clear>
	//mostrar por lcd:
	uint8 scancode;
	tAlimentos nuevo;

	lcd_puts_x2(70, 50,BLACK," 0 - Frutas");
 c100fd8:	e3a00046 	mov	r0, #70	; 0x46
 c100fdc:	e3a01032 	mov	r1, #50	; 0x32
 c100fe0:	e3a0200f 	mov	r2, #15
 c100fe4:	e59f3378 	ldr	r3, [pc, #888]	; c101364 <anadir+0x3a0>
 c100fe8:	eb000b9e 	bl	c103e68 <lcd_puts_x2>
	lcd_puts_x2(70,110,BLACK," 1 - Verdura");
 c100fec:	e3a00046 	mov	r0, #70	; 0x46
 c100ff0:	e3a0106e 	mov	r1, #110	; 0x6e
 c100ff4:	e3a0200f 	mov	r2, #15
 c100ff8:	e59f3368 	ldr	r3, [pc, #872]	; c101368 <anadir+0x3a4>
 c100ffc:	eb000b99 	bl	c103e68 <lcd_puts_x2>
	lcd_puts_x2(70,170,BLACK," 2 - Cancelar");
 c101000:	e3a00046 	mov	r0, #70	; 0x46
 c101004:	e3a010aa 	mov	r1, #170	; 0xaa
 c101008:	e3a0200f 	mov	r2, #15
 c10100c:	e59f3358 	ldr	r3, [pc, #856]	; c10136c <anadir+0x3a8>
 c101010:	eb000b94 	bl	c103e68 <lcd_puts_x2>

	uart0_puts( " ---------------------------------- " );uart0_putchar( '\n' );
 c101014:	e59f0354 	ldr	r0, [pc, #852]	; c101370 <anadir+0x3ac>
 c101018:	eb0015c9 	bl	c106744 <uart0_puts>
 c10101c:	e3a0000a 	mov	r0, #10
 c101020:	eb0015a1 	bl	c1066ac <uart0_putchar>
	uart0_puts( "|      AADIR NUEVO PRODUCTO       |" );uart0_putchar( '\n' );
 c101024:	e59f0348 	ldr	r0, [pc, #840]	; c101374 <anadir+0x3b0>
 c101028:	eb0015c5 	bl	c106744 <uart0_puts>
 c10102c:	e3a0000a 	mov	r0, #10
 c101030:	eb00159d 	bl	c1066ac <uart0_putchar>
	uart0_puts( " ---------------------------------- " );uart0_putchar( '\n' );
 c101034:	e59f0334 	ldr	r0, [pc, #820]	; c101370 <anadir+0x3ac>
 c101038:	eb0015c1 	bl	c106744 <uart0_puts>
 c10103c:	e3a0000a 	mov	r0, #10
 c101040:	eb001599 	bl	c1066ac <uart0_putchar>
 c101044:	ea000000 	b	c10104c <anadir+0x88>
		}
		else if (scancode == KEYPAD_KEY2){
			uart0_puts( "----------Cancelado-----------" );uart0_putchar( '\n' );
			return;
		}
	}
 c101048:	e1a00000 	nop			; (mov r0, r0)
	uart0_puts( " ---------------------------------- " );uart0_putchar( '\n' );
	uart0_puts( "|      AADIR NUEVO PRODUCTO       |" );uart0_putchar( '\n' );
	uart0_puts( " ---------------------------------- " );uart0_putchar( '\n' );

	while (1){
		scancode = keypad_getchar();
 c10104c:	eb0007a9 	bl	c102ef8 <keypad_getchar>
 c101050:	e1a03000 	mov	r3, r0
 c101054:	e54b300d 	strb	r3, [fp, #-13]
		if (scancode == KEYPAD_KEY0){
 c101058:	e55b300d 	ldrb	r3, [fp, #-13]
 c10105c:	e3530000 	cmp	r3, #0
 c101060:	1a000058 	bne	c1011c8 <anadir+0x204>
			lcd_clear();
 c101064:	eb0008b9 	bl	c103350 <lcd_clear>
			countF++; //nueva fruta
 c101068:	e59f3308 	ldr	r3, [pc, #776]	; c101378 <anadir+0x3b4>
 c10106c:	e5933000 	ldr	r3, [r3]
 c101070:	e2832001 	add	r2, r3, #1
 c101074:	e59f32fc 	ldr	r3, [pc, #764]	; c101378 <anadir+0x3b4>
 c101078:	e5832000 	str	r2, [r3]
			nuevo = nuevoAlimento();
 c10107c:	e24b303c 	sub	r3, fp, #60	; 0x3c
 c101080:	e1a00003 	mov	r0, r3
 c101084:	ebffff83 	bl	c100e98 <nuevoAlimento>
 c101088:	e24b1024 	sub	r1, fp, #36	; 0x24
 c10108c:	e24b203c 	sub	r2, fp, #60	; 0x3c
 c101090:	e3a03016 	mov	r3, #22
 c101094:	e1a00001 	mov	r0, r1
 c101098:	e1a01002 	mov	r1, r2
 c10109c:	e1a02003 	mov	r2, r3
 c1010a0:	eb001d43 	bl	c1085b4 <memcpy>
			strcpy(frutas[countF/8][countF%8].nombre, nuevo.nombre);
 c1010a4:	e59f32cc 	ldr	r3, [pc, #716]	; c101378 <anadir+0x3b4>
 c1010a8:	e5933000 	ldr	r3, [r3]
 c1010ac:	e2832007 	add	r2, r3, #7
 c1010b0:	e3530000 	cmp	r3, #0
 c1010b4:	b1a03002 	movlt	r3, r2
 c1010b8:	e1a031c3 	asr	r3, r3, #3
 c1010bc:	e1a01003 	mov	r1, r3
 c1010c0:	e59f32b0 	ldr	r3, [pc, #688]	; c101378 <anadir+0x3b4>
 c1010c4:	e5932000 	ldr	r2, [r3]
 c1010c8:	e1a03fc2 	asr	r3, r2, #31
 c1010cc:	e1a03ea3 	lsr	r3, r3, #29
 c1010d0:	e0822003 	add	r2, r2, r3
 c1010d4:	e2022007 	and	r2, r2, #7
 c1010d8:	e0633002 	rsb	r3, r3, r2
 c1010dc:	e1a02003 	mov	r2, r3
 c1010e0:	e1a02102 	lsl	r2, r2, #2
 c1010e4:	e0822003 	add	r2, r2, r3
 c1010e8:	e1a02082 	lsl	r2, r2, #1
 c1010ec:	e0822003 	add	r2, r2, r3
 c1010f0:	e1a03082 	lsl	r3, r2, #1
 c1010f4:	e1a02003 	mov	r2, r3
 c1010f8:	e1a03001 	mov	r3, r1
 c1010fc:	e1a03103 	lsl	r3, r3, #2
 c101100:	e0833001 	add	r3, r3, r1
 c101104:	e1a03083 	lsl	r3, r3, #1
 c101108:	e0833001 	add	r3, r3, r1
 c10110c:	e1a03203 	lsl	r3, r3, #4
 c101110:	e0822003 	add	r2, r2, r3
 c101114:	e59f3260 	ldr	r3, [pc, #608]	; c10137c <anadir+0x3b8>
 c101118:	e0822003 	add	r2, r2, r3
 c10111c:	e24b3024 	sub	r3, fp, #36	; 0x24
 c101120:	e1a00002 	mov	r0, r2
 c101124:	e1a01003 	mov	r1, r3
 c101128:	ebffff36 	bl	c100e08 <strcpy>
			frutas[countF/8][countF%8].precio = nuevo.precio;
 c10112c:	e59f3244 	ldr	r3, [pc, #580]	; c101378 <anadir+0x3b4>
 c101130:	e5933000 	ldr	r3, [r3]
 c101134:	e2832007 	add	r2, r3, #7
 c101138:	e3530000 	cmp	r3, #0
 c10113c:	b1a03002 	movlt	r3, r2
 c101140:	e1a031c3 	asr	r3, r3, #3
 c101144:	e1a01003 	mov	r1, r3
 c101148:	e59f3228 	ldr	r3, [pc, #552]	; c101378 <anadir+0x3b4>
 c10114c:	e5932000 	ldr	r2, [r3]
 c101150:	e1a03fc2 	asr	r3, r2, #31
 c101154:	e1a03ea3 	lsr	r3, r3, #29
 c101158:	e0822003 	add	r2, r2, r3
 c10115c:	e2022007 	and	r2, r2, #7
 c101160:	e0633002 	rsb	r3, r3, r2
 c101164:	e15b01b0 	ldrh	r0, [fp, #-16]
 c101168:	e59fe20c 	ldr	lr, [pc, #524]	; c10137c <anadir+0x3b8>
 c10116c:	e3a0c010 	mov	ip, #16
 c101170:	e1a02003 	mov	r2, r3
 c101174:	e1a02102 	lsl	r2, r2, #2
 c101178:	e0822003 	add	r2, r2, r3
 c10117c:	e1a02082 	lsl	r2, r2, #1
 c101180:	e0822003 	add	r2, r2, r3
 c101184:	e1a03082 	lsl	r3, r2, #1
 c101188:	e1a02003 	mov	r2, r3
 c10118c:	e1a03001 	mov	r3, r1
 c101190:	e1a03103 	lsl	r3, r3, #2
 c101194:	e0833001 	add	r3, r3, r1
 c101198:	e1a03083 	lsl	r3, r3, #1
 c10119c:	e0833001 	add	r3, r3, r1
 c1011a0:	e1a03203 	lsl	r3, r3, #4
 c1011a4:	e0823003 	add	r3, r2, r3
 c1011a8:	e08e3003 	add	r3, lr, r3
 c1011ac:	e083300c 	add	r3, r3, ip
 c1011b0:	e1c300b4 	strh	r0, [r3, #4]
			uart0_puts( "-------Producto aadido--------" );uart0_putchar( '\n' );
 c1011b4:	e59f01c4 	ldr	r0, [pc, #452]	; c101380 <anadir+0x3bc>
 c1011b8:	eb001561 	bl	c106744 <uart0_puts>
 c1011bc:	e3a0000a 	mov	r0, #10
 c1011c0:	eb001539 	bl	c1066ac <uart0_putchar>
			return;
 c1011c4:	ea000063 	b	c101358 <anadir+0x394>
		}
		else if (scancode == KEYPAD_KEY1){
 c1011c8:	e55b300d 	ldrb	r3, [fp, #-13]
 c1011cc:	e3530001 	cmp	r3, #1
 c1011d0:	1a000058 	bne	c101338 <anadir+0x374>
			lcd_clear();
 c1011d4:	eb00085d 	bl	c103350 <lcd_clear>
			countV++; //nueva verdura
 c1011d8:	e59f31a4 	ldr	r3, [pc, #420]	; c101384 <anadir+0x3c0>
 c1011dc:	e5933000 	ldr	r3, [r3]
 c1011e0:	e2832001 	add	r2, r3, #1
 c1011e4:	e59f3198 	ldr	r3, [pc, #408]	; c101384 <anadir+0x3c0>
 c1011e8:	e5832000 	str	r2, [r3]
			nuevo = nuevoAlimento();
 c1011ec:	e24b303c 	sub	r3, fp, #60	; 0x3c
 c1011f0:	e1a00003 	mov	r0, r3
 c1011f4:	ebffff27 	bl	c100e98 <nuevoAlimento>
 c1011f8:	e24b1024 	sub	r1, fp, #36	; 0x24
 c1011fc:	e24b203c 	sub	r2, fp, #60	; 0x3c
 c101200:	e3a03016 	mov	r3, #22
 c101204:	e1a00001 	mov	r0, r1
 c101208:	e1a01002 	mov	r1, r2
 c10120c:	e1a02003 	mov	r2, r3
 c101210:	eb001ce7 	bl	c1085b4 <memcpy>
			strcpy(verduras[countV/8][countV%8].nombre, nuevo.nombre);
 c101214:	e59f3168 	ldr	r3, [pc, #360]	; c101384 <anadir+0x3c0>
 c101218:	e5933000 	ldr	r3, [r3]
 c10121c:	e2832007 	add	r2, r3, #7
 c101220:	e3530000 	cmp	r3, #0
 c101224:	b1a03002 	movlt	r3, r2
 c101228:	e1a031c3 	asr	r3, r3, #3
 c10122c:	e1a01003 	mov	r1, r3
 c101230:	e59f314c 	ldr	r3, [pc, #332]	; c101384 <anadir+0x3c0>
 c101234:	e5932000 	ldr	r2, [r3]
 c101238:	e1a03fc2 	asr	r3, r2, #31
 c10123c:	e1a03ea3 	lsr	r3, r3, #29
 c101240:	e0822003 	add	r2, r2, r3
 c101244:	e2022007 	and	r2, r2, #7
 c101248:	e0633002 	rsb	r3, r3, r2
 c10124c:	e1a02003 	mov	r2, r3
 c101250:	e1a02102 	lsl	r2, r2, #2
 c101254:	e0822003 	add	r2, r2, r3
 c101258:	e1a02082 	lsl	r2, r2, #1
 c10125c:	e0822003 	add	r2, r2, r3
 c101260:	e1a03082 	lsl	r3, r2, #1
 c101264:	e1a02003 	mov	r2, r3
 c101268:	e1a03001 	mov	r3, r1
 c10126c:	e1a03103 	lsl	r3, r3, #2
 c101270:	e0833001 	add	r3, r3, r1
 c101274:	e1a03083 	lsl	r3, r3, #1
 c101278:	e0833001 	add	r3, r3, r1
 c10127c:	e1a03203 	lsl	r3, r3, #4
 c101280:	e0822003 	add	r2, r2, r3
 c101284:	e59f30fc 	ldr	r3, [pc, #252]	; c101388 <anadir+0x3c4>
 c101288:	e0822003 	add	r2, r2, r3
 c10128c:	e24b3024 	sub	r3, fp, #36	; 0x24
 c101290:	e1a00002 	mov	r0, r2
 c101294:	e1a01003 	mov	r1, r3
 c101298:	ebfffeda 	bl	c100e08 <strcpy>
			verduras[countV/8][countV%8].precio = nuevo.precio;
 c10129c:	e59f30e0 	ldr	r3, [pc, #224]	; c101384 <anadir+0x3c0>
 c1012a0:	e5933000 	ldr	r3, [r3]
 c1012a4:	e2832007 	add	r2, r3, #7
 c1012a8:	e3530000 	cmp	r3, #0
 c1012ac:	b1a03002 	movlt	r3, r2
 c1012b0:	e1a031c3 	asr	r3, r3, #3
 c1012b4:	e1a01003 	mov	r1, r3
 c1012b8:	e59f30c4 	ldr	r3, [pc, #196]	; c101384 <anadir+0x3c0>
 c1012bc:	e5932000 	ldr	r2, [r3]
 c1012c0:	e1a03fc2 	asr	r3, r2, #31
 c1012c4:	e1a03ea3 	lsr	r3, r3, #29
 c1012c8:	e0822003 	add	r2, r2, r3
 c1012cc:	e2022007 	and	r2, r2, #7
 c1012d0:	e0633002 	rsb	r3, r3, r2
 c1012d4:	e15b01b0 	ldrh	r0, [fp, #-16]
 c1012d8:	e59fe0a8 	ldr	lr, [pc, #168]	; c101388 <anadir+0x3c4>
 c1012dc:	e3a0c010 	mov	ip, #16
 c1012e0:	e1a02003 	mov	r2, r3
 c1012e4:	e1a02102 	lsl	r2, r2, #2
 c1012e8:	e0822003 	add	r2, r2, r3
 c1012ec:	e1a02082 	lsl	r2, r2, #1
 c1012f0:	e0822003 	add	r2, r2, r3
 c1012f4:	e1a03082 	lsl	r3, r2, #1
 c1012f8:	e1a02003 	mov	r2, r3
 c1012fc:	e1a03001 	mov	r3, r1
 c101300:	e1a03103 	lsl	r3, r3, #2
 c101304:	e0833001 	add	r3, r3, r1
 c101308:	e1a03083 	lsl	r3, r3, #1
 c10130c:	e0833001 	add	r3, r3, r1
 c101310:	e1a03203 	lsl	r3, r3, #4
 c101314:	e0823003 	add	r3, r2, r3
 c101318:	e08e3003 	add	r3, lr, r3
 c10131c:	e083300c 	add	r3, r3, ip
 c101320:	e1c300b4 	strh	r0, [r3, #4]
			uart0_puts( "-------Producto aadido--------" );uart0_putchar( '\n' );
 c101324:	e59f0054 	ldr	r0, [pc, #84]	; c101380 <anadir+0x3bc>
 c101328:	eb001505 	bl	c106744 <uart0_puts>
 c10132c:	e3a0000a 	mov	r0, #10
 c101330:	eb0014dd 	bl	c1066ac <uart0_putchar>
			return;
 c101334:	ea000007 	b	c101358 <anadir+0x394>
		}
		else if (scancode == KEYPAD_KEY2){
 c101338:	e55b300d 	ldrb	r3, [fp, #-13]
 c10133c:	e3530002 	cmp	r3, #2
 c101340:	1affff40 	bne	c101048 <anadir+0x84>
			uart0_puts( "----------Cancelado-----------" );uart0_putchar( '\n' );
 c101344:	e59f0040 	ldr	r0, [pc, #64]	; c10138c <anadir+0x3c8>
 c101348:	eb0014fd 	bl	c106744 <uart0_puts>
 c10134c:	e3a0000a 	mov	r0, #10
 c101350:	eb0014d5 	bl	c1066ac <uart0_putchar>
			return;
 c101354:	e1a00000 	nop			; (mov r0, r0)
		}
	}
}
 c101358:	e24bd00c 	sub	sp, fp, #12
 c10135c:	e89d6800 	ldm	sp, {fp, sp, lr}
 c101360:	e12fff1e 	bx	lr
 c101364:	0c108884 	.word	0x0c108884
 c101368:	0c108890 	.word	0x0c108890
 c10136c:	0c1088a0 	.word	0x0c1088a0
 c101370:	0c1088b0 	.word	0x0c1088b0
 c101374:	0c1088d8 	.word	0x0c1088d8
 c101378:	0c10a0dc 	.word	0x0c10a0dc
 c10137c:	0c10a3a0 	.word	0x0c10a3a0
 c101380:	0c108900 	.word	0x0c108900
 c101384:	0c10a0d8 	.word	0x0c10a0d8
 c101388:	0c10a0e0 	.word	0x0c10a0e0
 c10138c:	0c108920 	.word	0x0c108920

0c101390 <uart0_putfix>:

void uart0_putfix(fix16 num){
 c101390:	e1a0c00d 	mov	ip, sp
 c101394:	e92dd800 	push	{fp, ip, lr, pc}
 c101398:	e24cb004 	sub	fp, ip, #4
 c10139c:	e24dd018 	sub	sp, sp, #24
 c1013a0:	e1a03000 	mov	r3, r0
 c1013a4:	e14b31be 	strh	r3, [fp, #-30]	; 0xffffffe2
	int parte_entera;
	int parte_decimal;
	fix16 diez = 1010 << 10;
 c1013a8:	e3a03b32 	mov	r3, #51200	; 0xc800
 c1013ac:	e14b30be 	strh	r3, [fp, #-14]


	parte_entera = num >> 10;
 c1013b0:	e15b31fe 	ldrsh	r3, [fp, #-30]	; 0xffffffe2
 c1013b4:	e1a03543 	asr	r3, r3, #10
 c1013b8:	e1a03803 	lsl	r3, r3, #16
 c1013bc:	e1a03823 	lsr	r3, r3, #16
 c1013c0:	e1a03803 	lsl	r3, r3, #16
 c1013c4:	e1a03843 	asr	r3, r3, #16
 c1013c8:	e50b3014 	str	r3, [fp, #-20]	; 0xffffffec
	uart0_putint(parte_entera);
 c1013cc:	e51b0014 	ldr	r0, [fp, #-20]	; 0xffffffec
 c1013d0:	eb00151a 	bl	c106840 <uart0_putint>

	uart0_puts( "," );//poner la coma
 c1013d4:	e59f004c 	ldr	r0, [pc, #76]	; c101428 <uart0_putfix+0x98>
 c1013d8:	eb0014d9 	bl	c106744 <uart0_puts>

	num &= 0x3FF; //solo se queda la parte decimal
 c1013dc:	e15b31be 	ldrh	r3, [fp, #-30]	; 0xffffffe2
 c1013e0:	e1a03b03 	lsl	r3, r3, #22
 c1013e4:	e1a03b23 	lsr	r3, r3, #22
 c1013e8:	e14b31be 	strh	r3, [fp, #-30]	; 0xffffffe2
	parte_decimal = FMULI( 100, (fix32)num); //multiplicamos por 100 (dos decimales)
 c1013ec:	e15b21fe 	ldrsh	r2, [fp, #-30]	; 0xffffffe2
 c1013f0:	e1a03002 	mov	r3, r2
 c1013f4:	e1a03103 	lsl	r3, r3, #2
 c1013f8:	e0833002 	add	r3, r3, r2
 c1013fc:	e1a02103 	lsl	r2, r3, #2
 c101400:	e0833002 	add	r3, r3, r2
 c101404:	e1a03103 	lsl	r3, r3, #2
 c101408:	e50b3018 	str	r3, [fp, #-24]	; 0xffffffe8
	uart0_putint(parte_decimal >> 10);
 c10140c:	e51b3018 	ldr	r3, [fp, #-24]	; 0xffffffe8
 c101410:	e1a03543 	asr	r3, r3, #10
 c101414:	e1a00003 	mov	r0, r3
 c101418:	eb001508 	bl	c106840 <uart0_putint>
}
 c10141c:	e24bd00c 	sub	sp, fp, #12
 c101420:	e89d6800 	ldm	sp, {fp, sp, lr}
 c101424:	e12fff1e 	bx	lr
 c101428:	0c108774 	.word	0x0c108774

0c10142c <imprimeticket>:

void imprimeticket(char *nombre, fix16 peso, fix16 precio){
 c10142c:	e1a0c00d 	mov	ip, sp
 c101430:	e92dd800 	push	{fp, ip, lr, pc}
 c101434:	e24cb004 	sub	fp, ip, #4
 c101438:	e24dd008 	sub	sp, sp, #8
 c10143c:	e50b0010 	str	r0, [fp, #-16]
 c101440:	e1a03002 	mov	r3, r2
 c101444:	e14b11b2 	strh	r1, [fp, #-18]	; 0xffffffee
 c101448:	e14b31b4 	strh	r3, [fp, #-20]	; 0xffffffec
	uart0_puts( " -----------------------------" );uart0_putchar( '\n' );
 c10144c:	e59f00a0 	ldr	r0, [pc, #160]	; c1014f4 <imprimeticket+0xc8>
 c101450:	eb0014bb 	bl	c106744 <uart0_puts>
 c101454:	e3a0000a 	mov	r0, #10
 c101458:	eb001493 	bl	c1066ac <uart0_putchar>
	uart0_puts( "|     TICKET DE COMPRA        |" );uart0_putchar( '\n' );
 c10145c:	e59f0094 	ldr	r0, [pc, #148]	; c1014f8 <imprimeticket+0xcc>
 c101460:	eb0014b7 	bl	c106744 <uart0_puts>
 c101464:	e3a0000a 	mov	r0, #10
 c101468:	eb00148f 	bl	c1066ac <uart0_putchar>
	uart0_puts( " ----------------------------- " );uart0_putchar( '\n' );
 c10146c:	e59f0088 	ldr	r0, [pc, #136]	; c1014fc <imprimeticket+0xd0>
 c101470:	eb0014b3 	bl	c106744 <uart0_puts>
 c101474:	e3a0000a 	mov	r0, #10
 c101478:	eb00148b 	bl	c1066ac <uart0_putchar>
	uart0_puts("NOMBRE                        e/Kg");uart0_putchar( '\n' );
 c10147c:	e59f007c 	ldr	r0, [pc, #124]	; c101500 <imprimeticket+0xd4>
 c101480:	eb0014af 	bl	c106744 <uart0_puts>
 c101484:	e3a0000a 	mov	r0, #10
 c101488:	eb001487 	bl	c1066ac <uart0_putchar>
	uart0_puts(nombre);
 c10148c:	e51b0010 	ldr	r0, [fp, #-16]
 c101490:	eb0014ab 	bl	c106744 <uart0_puts>
	uart0_puts("__________________");
 c101494:	e59f0068 	ldr	r0, [pc, #104]	; c101504 <imprimeticket+0xd8>
 c101498:	eb0014a9 	bl	c106744 <uart0_puts>
	uart0_putfix(precio);
 c10149c:	e15b31f4 	ldrsh	r3, [fp, #-20]	; 0xffffffec
 c1014a0:	e1a00003 	mov	r0, r3
 c1014a4:	ebffffb9 	bl	c101390 <uart0_putfix>
	uart0_putchar( '\n' );
 c1014a8:	e3a0000a 	mov	r0, #10
 c1014ac:	eb00147e 	bl	c1066ac <uart0_putchar>
	uart0_puts("-  TOTAL:");uart0_putchar( '\n' );
 c1014b0:	e59f0050 	ldr	r0, [pc, #80]	; c101508 <imprimeticket+0xdc>
 c1014b4:	eb0014a2 	bl	c106744 <uart0_puts>
 c1014b8:	e3a0000a 	mov	r0, #10
 c1014bc:	eb00147a 	bl	c1066ac <uart0_putchar>

	uart0_putfix(FMUL(precio,peso,10));
 c1014c0:	e15b31f4 	ldrsh	r3, [fp, #-20]	; 0xffffffec
 c1014c4:	e15b21f2 	ldrsh	r2, [fp, #-18]	; 0xffffffee
 c1014c8:	e0030392 	mul	r3, r2, r3
 c1014cc:	e1a03543 	asr	r3, r3, #10
 c1014d0:	e1a03803 	lsl	r3, r3, #16
 c1014d4:	e1a03823 	lsr	r3, r3, #16
 c1014d8:	e1a03803 	lsl	r3, r3, #16
 c1014dc:	e1a03843 	asr	r3, r3, #16
 c1014e0:	e1a00003 	mov	r0, r3
 c1014e4:	ebffffa9 	bl	c101390 <uart0_putfix>
}
 c1014e8:	e24bd00c 	sub	sp, fp, #12
 c1014ec:	e89d6800 	ldm	sp, {fp, sp, lr}
 c1014f0:	e12fff1e 	bx	lr
 c1014f4:	0c108940 	.word	0x0c108940
 c1014f8:	0c108960 	.word	0x0c108960
 c1014fc:	0c108980 	.word	0x0c108980
 c101500:	0c1089a0 	.word	0x0c1089a0
 c101504:	0c1089c4 	.word	0x0c1089c4
 c101508:	0c1089d8 	.word	0x0c1089d8

0c10150c <strcmp>:

strcmp(const char *s1, const char *s2)
{
 c10150c:	e1a0c00d 	mov	ip, sp
 c101510:	e92dd800 	push	{fp, ip, lr, pc}
 c101514:	e24cb004 	sub	fp, ip, #4
 c101518:	e24dd008 	sub	sp, sp, #8
 c10151c:	e50b0010 	str	r0, [fp, #-16]
 c101520:	e50b1014 	str	r1, [fp, #-20]	; 0xffffffec
    for ( ; *s1 == *s2; s1++, s2++)
 c101524:	ea00000b 	b	c101558 <strcmp+0x4c>
	if (*s1 == '\0')
 c101528:	e51b3010 	ldr	r3, [fp, #-16]
 c10152c:	e5d33000 	ldrb	r3, [r3]
 c101530:	e3530000 	cmp	r3, #0
 c101534:	1a000001 	bne	c101540 <strcmp+0x34>
	    return 0;
 c101538:	e3a03000 	mov	r3, #0
 c10153c:	ea000014 	b	c101594 <strcmp+0x88>
	uart0_putfix(FMUL(precio,peso,10));
}

strcmp(const char *s1, const char *s2)
{
    for ( ; *s1 == *s2; s1++, s2++)
 c101540:	e51b3010 	ldr	r3, [fp, #-16]
 c101544:	e2833001 	add	r3, r3, #1
 c101548:	e50b3010 	str	r3, [fp, #-16]
 c10154c:	e51b3014 	ldr	r3, [fp, #-20]	; 0xffffffec
 c101550:	e2833001 	add	r3, r3, #1
 c101554:	e50b3014 	str	r3, [fp, #-20]	; 0xffffffec
 c101558:	e51b3010 	ldr	r3, [fp, #-16]
 c10155c:	e5d32000 	ldrb	r2, [r3]
 c101560:	e51b3014 	ldr	r3, [fp, #-20]	; 0xffffffec
 c101564:	e5d33000 	ldrb	r3, [r3]
 c101568:	e1520003 	cmp	r2, r3
 c10156c:	0affffed 	beq	c101528 <strcmp+0x1c>
	if (*s1 == '\0')
	    return 0;
    return ((*(unsigned char *)s1 < *(unsigned char *)s2) ? -1 : +1);
 c101570:	e51b3010 	ldr	r3, [fp, #-16]
 c101574:	e5d32000 	ldrb	r2, [r3]
 c101578:	e51b3014 	ldr	r3, [fp, #-20]	; 0xffffffec
 c10157c:	e5d33000 	ldrb	r3, [r3]
 c101580:	e1520003 	cmp	r2, r3
 c101584:	2a000001 	bcs	c101590 <strcmp+0x84>
 c101588:	e3e03000 	mvn	r3, #0
 c10158c:	ea000000 	b	c101594 <strcmp+0x88>
 c101590:	e3a03001 	mov	r3, #1
}
 c101594:	e1a00003 	mov	r0, r3
 c101598:	e24bd00c 	sub	sp, fp, #12
 c10159c:	e89d6800 	ldm	sp, {fp, sp, lr}
 c1015a0:	e12fff1e 	bx	lr

0c1015a4 <borrar>:

void borrar(){
 c1015a4:	e1a0c00d 	mov	ip, sp
 c1015a8:	e92dd800 	push	{fp, ip, lr, pc}
 c1015ac:	e24cb004 	sub	fp, ip, #4
 c1015b0:	e24dd038 	sub	sp, sp, #56	; 0x38
	lcd_clear();
 c1015b4:	eb000765 	bl	c103350 <lcd_clear>
	//mostrar por lcd:
	uint8 scancode;
	char nombrelista [20];
	char nombre[20];
	boolean encontrado = 0;
 c1015b8:	e3a03000 	mov	r3, #0
 c1015bc:	e54b300d 	strb	r3, [fp, #-13]
	int i=0;
 c1015c0:	e3a03000 	mov	r3, #0
 c1015c4:	e50b3014 	str	r3, [fp, #-20]	; 0xffffffec
	int j= 0;
 c1015c8:	e3a03000 	mov	r3, #0
 c1015cc:	e50b3018 	str	r3, [fp, #-24]	; 0xffffffe8

	lcd_puts_x2(70, 50,BLACK," 0 - Frutas");
 c1015d0:	e3a00046 	mov	r0, #70	; 0x46
 c1015d4:	e3a01032 	mov	r1, #50	; 0x32
 c1015d8:	e3a0200f 	mov	r2, #15
 c1015dc:	e59f38d0 	ldr	r3, [pc, #2256]	; c101eb4 <borrar+0x910>
 c1015e0:	eb000a20 	bl	c103e68 <lcd_puts_x2>
	lcd_puts_x2(70,110,BLACK," 1 - Verdura");
 c1015e4:	e3a00046 	mov	r0, #70	; 0x46
 c1015e8:	e3a0106e 	mov	r1, #110	; 0x6e
 c1015ec:	e3a0200f 	mov	r2, #15
 c1015f0:	e59f38c0 	ldr	r3, [pc, #2240]	; c101eb8 <borrar+0x914>
 c1015f4:	eb000a1b 	bl	c103e68 <lcd_puts_x2>
	lcd_puts_x2(70,170,BLACK," 2 - Cancelar");
 c1015f8:	e3a00046 	mov	r0, #70	; 0x46
 c1015fc:	e3a010aa 	mov	r1, #170	; 0xaa
 c101600:	e3a0200f 	mov	r2, #15
 c101604:	e59f38b0 	ldr	r3, [pc, #2224]	; c101ebc <borrar+0x918>
 c101608:	eb000a16 	bl	c103e68 <lcd_puts_x2>

	uart0_puts( " ------------------------------ " );uart0_putchar( '\n' );
 c10160c:	e59f08ac 	ldr	r0, [pc, #2220]	; c101ec0 <borrar+0x91c>
 c101610:	eb00144b 	bl	c106744 <uart0_puts>
 c101614:	e3a0000a 	mov	r0, #10
 c101618:	eb001423 	bl	c1066ac <uart0_putchar>
	uart0_puts( "|		BORRAR UN PRODUCTO		|" );uart0_putchar( '\n' );
 c10161c:	e59f08a0 	ldr	r0, [pc, #2208]	; c101ec4 <borrar+0x920>
 c101620:	eb001447 	bl	c106744 <uart0_puts>
 c101624:	e3a0000a 	mov	r0, #10
 c101628:	eb00141f 	bl	c1066ac <uart0_putchar>
	uart0_puts( " ------------------------------" );uart0_putchar( '\n' );
 c10162c:	e59f0894 	ldr	r0, [pc, #2196]	; c101ec8 <borrar+0x924>
 c101630:	eb001443 	bl	c106744 <uart0_puts>
 c101634:	e3a0000a 	mov	r0, #10
 c101638:	eb00141b 	bl	c1066ac <uart0_putchar>
 c10163c:	ea000000 	b	c101644 <borrar+0xa0>
		}
		else if (scancode == KEYPAD_KEY2){
			uart0_puts( "----------Cancelado-----------" );uart0_putchar( '\n' );
			return;
		}
	}//while
 c101640:	e1a00000 	nop			; (mov r0, r0)
	uart0_puts( " ------------------------------ " );uart0_putchar( '\n' );
	uart0_puts( "|		BORRAR UN PRODUCTO		|" );uart0_putchar( '\n' );
	uart0_puts( " ------------------------------" );uart0_putchar( '\n' );

	while (1){
		scancode = keypad_getchar();
 c101644:	eb00062b 	bl	c102ef8 <keypad_getchar>
 c101648:	e1a03000 	mov	r3, r0
 c10164c:	e54b3019 	strb	r3, [fp, #-25]	; 0xffffffe7
		if (scancode == KEYPAD_KEY0){
 c101650:	e55b3019 	ldrb	r3, [fp, #-25]	; 0xffffffe7
 c101654:	e3530000 	cmp	r3, #0
 c101658:	1a000103 	bne	c101a6c <borrar+0x4c8>
			lcd_clear();
 c10165c:	eb00073b 	bl	c103350 <lcd_clear>

			uart0_puts( "Escriba el Nombre del Producto a borrar: " );uart0_putchar( '\n' );
 c101660:	e59f0864 	ldr	r0, [pc, #2148]	; c101ecc <borrar+0x928>
 c101664:	eb001436 	bl	c106744 <uart0_puts>
 c101668:	e3a0000a 	mov	r0, #10
 c10166c:	eb00140e 	bl	c1066ac <uart0_putchar>
			uart0_gets( nombre );
 c101670:	e24b3044 	sub	r3, fp, #68	; 0x44
 c101674:	e1a00003 	mov	r0, r3
 c101678:	eb00144b 	bl	c1067ac <uart0_gets>

			//buscar
			for(i=0; i < 4 && encontrado == 0; i++)
 c10167c:	e3a03000 	mov	r3, #0
 c101680:	e50b3014 	str	r3, [fp, #-20]	; 0xffffffec
 c101684:	ea000034 	b	c10175c <borrar+0x1b8>
				for(j = 0; j < 8 && encontrado == 0; j++ ){
 c101688:	e3a03000 	mov	r3, #0
 c10168c:	e50b3018 	str	r3, [fp, #-24]	; 0xffffffe8
 c101690:	ea000028 	b	c101738 <borrar+0x194>
					 strcpy(nombrelista, frutas[i][j].nombre);
 c101694:	e51b3018 	ldr	r3, [fp, #-24]	; 0xffffffe8
 c101698:	e1a02003 	mov	r2, r3
 c10169c:	e1a02102 	lsl	r2, r2, #2
 c1016a0:	e0822003 	add	r2, r2, r3
 c1016a4:	e1a02082 	lsl	r2, r2, #1
 c1016a8:	e0822003 	add	r2, r2, r3
 c1016ac:	e1a03082 	lsl	r3, r2, #1
 c1016b0:	e1a02003 	mov	r2, r3
 c1016b4:	e51b1014 	ldr	r1, [fp, #-20]	; 0xffffffec
 c1016b8:	e1a03001 	mov	r3, r1
 c1016bc:	e1a03103 	lsl	r3, r3, #2
 c1016c0:	e0833001 	add	r3, r3, r1
 c1016c4:	e1a03083 	lsl	r3, r3, #1
 c1016c8:	e0833001 	add	r3, r3, r1
 c1016cc:	e1a03203 	lsl	r3, r3, #4
 c1016d0:	e0822003 	add	r2, r2, r3
 c1016d4:	e59f37f4 	ldr	r3, [pc, #2036]	; c101ed0 <borrar+0x92c>
 c1016d8:	e0823003 	add	r3, r2, r3
 c1016dc:	e24b2030 	sub	r2, fp, #48	; 0x30
 c1016e0:	e1a00002 	mov	r0, r2
 c1016e4:	e1a01003 	mov	r1, r3
 c1016e8:	ebfffdc6 	bl	c100e08 <strcpy>
					 if ((strcmp(nombre,nombrelista)) == 0){
 c1016ec:	e24b2044 	sub	r2, fp, #68	; 0x44
 c1016f0:	e24b3030 	sub	r3, fp, #48	; 0x30
 c1016f4:	e1a00002 	mov	r0, r2
 c1016f8:	e1a01003 	mov	r1, r3
 c1016fc:	ebffff82 	bl	c10150c <strcmp>
 c101700:	e1a03000 	mov	r3, r0
 c101704:	e3530000 	cmp	r3, #0
 c101708:	1a000007 	bne	c10172c <borrar+0x188>
					    encontrado = 1;
 c10170c:	e3a03001 	mov	r3, #1
 c101710:	e54b300d 	strb	r3, [fp, #-13]
						i--;
 c101714:	e51b3014 	ldr	r3, [fp, #-20]	; 0xffffffec
 c101718:	e2433001 	sub	r3, r3, #1
 c10171c:	e50b3014 	str	r3, [fp, #-20]	; 0xffffffec
						j--;
 c101720:	e51b3018 	ldr	r3, [fp, #-24]	; 0xffffffe8
 c101724:	e2433001 	sub	r3, r3, #1
 c101728:	e50b3018 	str	r3, [fp, #-24]	; 0xffffffe8
			uart0_puts( "Escriba el Nombre del Producto a borrar: " );uart0_putchar( '\n' );
			uart0_gets( nombre );

			//buscar
			for(i=0; i < 4 && encontrado == 0; i++)
				for(j = 0; j < 8 && encontrado == 0; j++ ){
 c10172c:	e51b3018 	ldr	r3, [fp, #-24]	; 0xffffffe8
 c101730:	e2833001 	add	r3, r3, #1
 c101734:	e50b3018 	str	r3, [fp, #-24]	; 0xffffffe8
 c101738:	e51b3018 	ldr	r3, [fp, #-24]	; 0xffffffe8
 c10173c:	e3530007 	cmp	r3, #7
 c101740:	ca000002 	bgt	c101750 <borrar+0x1ac>
 c101744:	e55b300d 	ldrb	r3, [fp, #-13]
 c101748:	e3530000 	cmp	r3, #0
 c10174c:	0affffd0 	beq	c101694 <borrar+0xf0>

			uart0_puts( "Escriba el Nombre del Producto a borrar: " );uart0_putchar( '\n' );
			uart0_gets( nombre );

			//buscar
			for(i=0; i < 4 && encontrado == 0; i++)
 c101750:	e51b3014 	ldr	r3, [fp, #-20]	; 0xffffffec
 c101754:	e2833001 	add	r3, r3, #1
 c101758:	e50b3014 	str	r3, [fp, #-20]	; 0xffffffec
 c10175c:	e51b3014 	ldr	r3, [fp, #-20]	; 0xffffffec
 c101760:	e3530003 	cmp	r3, #3
 c101764:	ca000002 	bgt	c101774 <borrar+0x1d0>
 c101768:	e55b300d 	ldrb	r3, [fp, #-13]
 c10176c:	e3530000 	cmp	r3, #0
 c101770:	0affffc4 	beq	c101688 <borrar+0xe4>
					    encontrado = 1;
						i--;
						j--;
					 }
				}
			if (encontrado == 1){
 c101774:	e55b300d 	ldrb	r3, [fp, #-13]
 c101778:	e3530001 	cmp	r3, #1
 c10177c:	1a0000b5 	bne	c101a58 <borrar+0x4b4>

				strcpy(frutas[i][j].nombre, frutas[countF/8][countF%8].nombre); //copiamos el nombre
 c101780:	e51b3018 	ldr	r3, [fp, #-24]	; 0xffffffe8
 c101784:	e1a02003 	mov	r2, r3
 c101788:	e1a02102 	lsl	r2, r2, #2
 c10178c:	e0822003 	add	r2, r2, r3
 c101790:	e1a02082 	lsl	r2, r2, #1
 c101794:	e0822003 	add	r2, r2, r3
 c101798:	e1a03082 	lsl	r3, r2, #1
 c10179c:	e1a02003 	mov	r2, r3
 c1017a0:	e51b1014 	ldr	r1, [fp, #-20]	; 0xffffffec
 c1017a4:	e1a03001 	mov	r3, r1
 c1017a8:	e1a03103 	lsl	r3, r3, #2
 c1017ac:	e0833001 	add	r3, r3, r1
 c1017b0:	e1a03083 	lsl	r3, r3, #1
 c1017b4:	e0833001 	add	r3, r3, r1
 c1017b8:	e1a03203 	lsl	r3, r3, #4
 c1017bc:	e0822003 	add	r2, r2, r3
 c1017c0:	e59f3708 	ldr	r3, [pc, #1800]	; c101ed0 <borrar+0x92c>
 c1017c4:	e0820003 	add	r0, r2, r3
 c1017c8:	e59f3704 	ldr	r3, [pc, #1796]	; c101ed4 <borrar+0x930>
 c1017cc:	e5933000 	ldr	r3, [r3]
 c1017d0:	e2832007 	add	r2, r3, #7
 c1017d4:	e3530000 	cmp	r3, #0
 c1017d8:	b1a03002 	movlt	r3, r2
 c1017dc:	e1a031c3 	asr	r3, r3, #3
 c1017e0:	e1a01003 	mov	r1, r3
 c1017e4:	e59f36e8 	ldr	r3, [pc, #1768]	; c101ed4 <borrar+0x930>
 c1017e8:	e5932000 	ldr	r2, [r3]
 c1017ec:	e1a03fc2 	asr	r3, r2, #31
 c1017f0:	e1a03ea3 	lsr	r3, r3, #29
 c1017f4:	e0822003 	add	r2, r2, r3
 c1017f8:	e2022007 	and	r2, r2, #7
 c1017fc:	e0633002 	rsb	r3, r3, r2
 c101800:	e1a02003 	mov	r2, r3
 c101804:	e1a02102 	lsl	r2, r2, #2
 c101808:	e0822003 	add	r2, r2, r3
 c10180c:	e1a02082 	lsl	r2, r2, #1
 c101810:	e0822003 	add	r2, r2, r3
 c101814:	e1a03082 	lsl	r3, r2, #1
 c101818:	e1a02003 	mov	r2, r3
 c10181c:	e1a03001 	mov	r3, r1
 c101820:	e1a03103 	lsl	r3, r3, #2
 c101824:	e0833001 	add	r3, r3, r1
 c101828:	e1a03083 	lsl	r3, r3, #1
 c10182c:	e0833001 	add	r3, r3, r1
 c101830:	e1a03203 	lsl	r3, r3, #4
 c101834:	e0822003 	add	r2, r2, r3
 c101838:	e59f3690 	ldr	r3, [pc, #1680]	; c101ed0 <borrar+0x92c>
 c10183c:	e0823003 	add	r3, r2, r3
 c101840:	e1a01003 	mov	r1, r3
 c101844:	ebfffd6f 	bl	c100e08 <strcpy>
				frutas[i][j].precio = frutas[countF/8][countF%8].precio; //copiamos el precio
 c101848:	e59f3684 	ldr	r3, [pc, #1668]	; c101ed4 <borrar+0x930>
 c10184c:	e5933000 	ldr	r3, [r3]
 c101850:	e2832007 	add	r2, r3, #7
 c101854:	e3530000 	cmp	r3, #0
 c101858:	b1a03002 	movlt	r3, r2
 c10185c:	e1a031c3 	asr	r3, r3, #3
 c101860:	e1a01003 	mov	r1, r3
 c101864:	e59f3668 	ldr	r3, [pc, #1640]	; c101ed4 <borrar+0x930>
 c101868:	e5932000 	ldr	r2, [r3]
 c10186c:	e1a03fc2 	asr	r3, r2, #31
 c101870:	e1a03ea3 	lsr	r3, r3, #29
 c101874:	e0822003 	add	r2, r2, r3
 c101878:	e2022007 	and	r2, r2, #7
 c10187c:	e0633002 	rsb	r3, r3, r2
 c101880:	e59fc648 	ldr	ip, [pc, #1608]	; c101ed0 <borrar+0x92c>
 c101884:	e3a00010 	mov	r0, #16
 c101888:	e1a02003 	mov	r2, r3
 c10188c:	e1a02102 	lsl	r2, r2, #2
 c101890:	e0822003 	add	r2, r2, r3
 c101894:	e1a02082 	lsl	r2, r2, #1
 c101898:	e0822003 	add	r2, r2, r3
 c10189c:	e1a03082 	lsl	r3, r2, #1
 c1018a0:	e1a02003 	mov	r2, r3
 c1018a4:	e1a03001 	mov	r3, r1
 c1018a8:	e1a03103 	lsl	r3, r3, #2
 c1018ac:	e0833001 	add	r3, r3, r1
 c1018b0:	e1a03083 	lsl	r3, r3, #1
 c1018b4:	e0833001 	add	r3, r3, r1
 c1018b8:	e1a03203 	lsl	r3, r3, #4
 c1018bc:	e0823003 	add	r3, r2, r3
 c1018c0:	e08c3003 	add	r3, ip, r3
 c1018c4:	e0833000 	add	r3, r3, r0
 c1018c8:	e1d300b4 	ldrh	r0, [r3, #4]
 c1018cc:	e59fe5fc 	ldr	lr, [pc, #1532]	; c101ed0 <borrar+0x92c>
 c1018d0:	e51b3018 	ldr	r3, [fp, #-24]	; 0xffffffe8
 c1018d4:	e51b1014 	ldr	r1, [fp, #-20]	; 0xffffffec
 c1018d8:	e3a0c010 	mov	ip, #16
 c1018dc:	e1a02003 	mov	r2, r3
 c1018e0:	e1a02102 	lsl	r2, r2, #2
 c1018e4:	e0822003 	add	r2, r2, r3
 c1018e8:	e1a02082 	lsl	r2, r2, #1
 c1018ec:	e0822003 	add	r2, r2, r3
 c1018f0:	e1a03082 	lsl	r3, r2, #1
 c1018f4:	e1a02003 	mov	r2, r3
 c1018f8:	e1a03001 	mov	r3, r1
 c1018fc:	e1a03103 	lsl	r3, r3, #2
 c101900:	e0833001 	add	r3, r3, r1
 c101904:	e1a03083 	lsl	r3, r3, #1
 c101908:	e0833001 	add	r3, r3, r1
 c10190c:	e1a03203 	lsl	r3, r3, #4
 c101910:	e0823003 	add	r3, r2, r3
 c101914:	e08e3003 	add	r3, lr, r3
 c101918:	e083300c 	add	r3, r3, ip
 c10191c:	e1c300b4 	strh	r0, [r3, #4]
				strcpy(frutas[countF/8][countF%8].nombre, " "); //Esperemos que no pete D:
 c101920:	e59f35ac 	ldr	r3, [pc, #1452]	; c101ed4 <borrar+0x930>
 c101924:	e5933000 	ldr	r3, [r3]
 c101928:	e2832007 	add	r2, r3, #7
 c10192c:	e3530000 	cmp	r3, #0
 c101930:	b1a03002 	movlt	r3, r2
 c101934:	e1a031c3 	asr	r3, r3, #3
 c101938:	e1a01003 	mov	r1, r3
 c10193c:	e59f3590 	ldr	r3, [pc, #1424]	; c101ed4 <borrar+0x930>
 c101940:	e5932000 	ldr	r2, [r3]
 c101944:	e1a03fc2 	asr	r3, r2, #31
 c101948:	e1a03ea3 	lsr	r3, r3, #29
 c10194c:	e0822003 	add	r2, r2, r3
 c101950:	e2022007 	and	r2, r2, #7
 c101954:	e0633002 	rsb	r3, r3, r2
 c101958:	e1a02003 	mov	r2, r3
 c10195c:	e1a02102 	lsl	r2, r2, #2
 c101960:	e0822003 	add	r2, r2, r3
 c101964:	e1a02082 	lsl	r2, r2, #1
 c101968:	e0822003 	add	r2, r2, r3
 c10196c:	e1a03082 	lsl	r3, r2, #1
 c101970:	e1a02003 	mov	r2, r3
 c101974:	e1a03001 	mov	r3, r1
 c101978:	e1a03103 	lsl	r3, r3, #2
 c10197c:	e0833001 	add	r3, r3, r1
 c101980:	e1a03083 	lsl	r3, r3, #1
 c101984:	e0833001 	add	r3, r3, r1
 c101988:	e1a03203 	lsl	r3, r3, #4
 c10198c:	e0822003 	add	r2, r2, r3
 c101990:	e59f3538 	ldr	r3, [pc, #1336]	; c101ed0 <borrar+0x92c>
 c101994:	e0823003 	add	r3, r2, r3
 c101998:	e1a00003 	mov	r0, r3
 c10199c:	e59f1534 	ldr	r1, [pc, #1332]	; c101ed8 <borrar+0x934>
 c1019a0:	e3a02002 	mov	r2, #2
 c1019a4:	eb001b02 	bl	c1085b4 <memcpy>
				frutas[countF/8][countF%8].precio = 0;
 c1019a8:	e59f3524 	ldr	r3, [pc, #1316]	; c101ed4 <borrar+0x930>
 c1019ac:	e5933000 	ldr	r3, [r3]
 c1019b0:	e2832007 	add	r2, r3, #7
 c1019b4:	e3530000 	cmp	r3, #0
 c1019b8:	b1a03002 	movlt	r3, r2
 c1019bc:	e1a031c3 	asr	r3, r3, #3
 c1019c0:	e1a01003 	mov	r1, r3
 c1019c4:	e59f3508 	ldr	r3, [pc, #1288]	; c101ed4 <borrar+0x930>
 c1019c8:	e5932000 	ldr	r2, [r3]
 c1019cc:	e1a03fc2 	asr	r3, r2, #31
 c1019d0:	e1a03ea3 	lsr	r3, r3, #29
 c1019d4:	e0822003 	add	r2, r2, r3
 c1019d8:	e2022007 	and	r2, r2, #7
 c1019dc:	e0633002 	rsb	r3, r3, r2
 c1019e0:	e59fc4e8 	ldr	ip, [pc, #1256]	; c101ed0 <borrar+0x92c>
 c1019e4:	e3a00010 	mov	r0, #16
 c1019e8:	e1a02003 	mov	r2, r3
 c1019ec:	e1a02102 	lsl	r2, r2, #2
 c1019f0:	e0822003 	add	r2, r2, r3
 c1019f4:	e1a02082 	lsl	r2, r2, #1
 c1019f8:	e0822003 	add	r2, r2, r3
 c1019fc:	e1a03082 	lsl	r3, r2, #1
 c101a00:	e1a02003 	mov	r2, r3
 c101a04:	e1a03001 	mov	r3, r1
 c101a08:	e1a03103 	lsl	r3, r3, #2
 c101a0c:	e0833001 	add	r3, r3, r1
 c101a10:	e1a03083 	lsl	r3, r3, #1
 c101a14:	e0833001 	add	r3, r3, r1
 c101a18:	e1a03203 	lsl	r3, r3, #4
 c101a1c:	e0823003 	add	r3, r2, r3
 c101a20:	e08c3003 	add	r3, ip, r3
 c101a24:	e0833000 	add	r3, r3, r0
 c101a28:	e3a02000 	mov	r2, #0
 c101a2c:	e1c320b4 	strh	r2, [r3, #4]
				countF--;
 c101a30:	e59f349c 	ldr	r3, [pc, #1180]	; c101ed4 <borrar+0x930>
 c101a34:	e5933000 	ldr	r3, [r3]
 c101a38:	e2432001 	sub	r2, r3, #1
 c101a3c:	e59f3490 	ldr	r3, [pc, #1168]	; c101ed4 <borrar+0x930>
 c101a40:	e5832000 	str	r2, [r3]
				uart0_puts( "-------Producto Borrado--------" );uart0_putchar( '\n' );
 c101a44:	e59f0490 	ldr	r0, [pc, #1168]	; c101edc <borrar+0x938>
 c101a48:	eb00133d 	bl	c106744 <uart0_puts>
 c101a4c:	e3a0000a 	mov	r0, #10
 c101a50:	eb001315 	bl	c1066ac <uart0_putchar>
 c101a54:	ea000001 	b	c101a60 <borrar+0x4bc>
			}
			else
				uart0_puts( "-----Producto no encontrado------" );uart0_putchar( '\n' );
 c101a58:	e59f0480 	ldr	r0, [pc, #1152]	; c101ee0 <borrar+0x93c>
 c101a5c:	eb001338 	bl	c106744 <uart0_puts>
 c101a60:	e3a0000a 	mov	r0, #10
 c101a64:	eb001310 	bl	c1066ac <uart0_putchar>
			return;
 c101a68:	ea00010e 	b	c101ea8 <borrar+0x904>
		}

		else if (scancode == KEYPAD_KEY1){
 c101a6c:	e55b3019 	ldrb	r3, [fp, #-25]	; 0xffffffe7
 c101a70:	e3530001 	cmp	r3, #1
 c101a74:	1a000103 	bne	c101e88 <borrar+0x8e4>
			lcd_clear();
 c101a78:	eb000634 	bl	c103350 <lcd_clear>

			uart0_puts( "Escriba el Nombre del nuevo Producto: " );uart0_putchar( '\n' );
 c101a7c:	e59f0460 	ldr	r0, [pc, #1120]	; c101ee4 <borrar+0x940>
 c101a80:	eb00132f 	bl	c106744 <uart0_puts>
 c101a84:	e3a0000a 	mov	r0, #10
 c101a88:	eb001307 	bl	c1066ac <uart0_putchar>
			uart0_gets( nombre );
 c101a8c:	e24b3044 	sub	r3, fp, #68	; 0x44
 c101a90:	e1a00003 	mov	r0, r3
 c101a94:	eb001344 	bl	c1067ac <uart0_gets>

			//buscar
			for(i=0; i < 4 && encontrado == 0; i++)
 c101a98:	e3a03000 	mov	r3, #0
 c101a9c:	e50b3014 	str	r3, [fp, #-20]	; 0xffffffec
 c101aa0:	ea000034 	b	c101b78 <borrar+0x5d4>
				for(j = 0; j < 8 && encontrado == 0; j++ ){
 c101aa4:	e3a03000 	mov	r3, #0
 c101aa8:	e50b3018 	str	r3, [fp, #-24]	; 0xffffffe8
 c101aac:	ea000028 	b	c101b54 <borrar+0x5b0>
					strcpy(nombrelista, verduras[i][j].nombre);
 c101ab0:	e51b3018 	ldr	r3, [fp, #-24]	; 0xffffffe8
 c101ab4:	e1a02003 	mov	r2, r3
 c101ab8:	e1a02102 	lsl	r2, r2, #2
 c101abc:	e0822003 	add	r2, r2, r3
 c101ac0:	e1a02082 	lsl	r2, r2, #1
 c101ac4:	e0822003 	add	r2, r2, r3
 c101ac8:	e1a03082 	lsl	r3, r2, #1
 c101acc:	e1a02003 	mov	r2, r3
 c101ad0:	e51b1014 	ldr	r1, [fp, #-20]	; 0xffffffec
 c101ad4:	e1a03001 	mov	r3, r1
 c101ad8:	e1a03103 	lsl	r3, r3, #2
 c101adc:	e0833001 	add	r3, r3, r1
 c101ae0:	e1a03083 	lsl	r3, r3, #1
 c101ae4:	e0833001 	add	r3, r3, r1
 c101ae8:	e1a03203 	lsl	r3, r3, #4
 c101aec:	e0822003 	add	r2, r2, r3
 c101af0:	e59f33f0 	ldr	r3, [pc, #1008]	; c101ee8 <borrar+0x944>
 c101af4:	e0823003 	add	r3, r2, r3
 c101af8:	e24b2030 	sub	r2, fp, #48	; 0x30
 c101afc:	e1a00002 	mov	r0, r2
 c101b00:	e1a01003 	mov	r1, r3
 c101b04:	ebfffcbf 	bl	c100e08 <strcpy>
					if ((strcmp(nombre,nombrelista)) == 0){
 c101b08:	e24b2044 	sub	r2, fp, #68	; 0x44
 c101b0c:	e24b3030 	sub	r3, fp, #48	; 0x30
 c101b10:	e1a00002 	mov	r0, r2
 c101b14:	e1a01003 	mov	r1, r3
 c101b18:	ebfffe7b 	bl	c10150c <strcmp>
 c101b1c:	e1a03000 	mov	r3, r0
 c101b20:	e3530000 	cmp	r3, #0
 c101b24:	1a000007 	bne	c101b48 <borrar+0x5a4>
						encontrado = 1;
 c101b28:	e3a03001 	mov	r3, #1
 c101b2c:	e54b300d 	strb	r3, [fp, #-13]
						i--;
 c101b30:	e51b3014 	ldr	r3, [fp, #-20]	; 0xffffffec
 c101b34:	e2433001 	sub	r3, r3, #1
 c101b38:	e50b3014 	str	r3, [fp, #-20]	; 0xffffffec
						j--;
 c101b3c:	e51b3018 	ldr	r3, [fp, #-24]	; 0xffffffe8
 c101b40:	e2433001 	sub	r3, r3, #1
 c101b44:	e50b3018 	str	r3, [fp, #-24]	; 0xffffffe8
			uart0_puts( "Escriba el Nombre del nuevo Producto: " );uart0_putchar( '\n' );
			uart0_gets( nombre );

			//buscar
			for(i=0; i < 4 && encontrado == 0; i++)
				for(j = 0; j < 8 && encontrado == 0; j++ ){
 c101b48:	e51b3018 	ldr	r3, [fp, #-24]	; 0xffffffe8
 c101b4c:	e2833001 	add	r3, r3, #1
 c101b50:	e50b3018 	str	r3, [fp, #-24]	; 0xffffffe8
 c101b54:	e51b3018 	ldr	r3, [fp, #-24]	; 0xffffffe8
 c101b58:	e3530007 	cmp	r3, #7
 c101b5c:	ca000002 	bgt	c101b6c <borrar+0x5c8>
 c101b60:	e55b300d 	ldrb	r3, [fp, #-13]
 c101b64:	e3530000 	cmp	r3, #0
 c101b68:	0affffd0 	beq	c101ab0 <borrar+0x50c>

			uart0_puts( "Escriba el Nombre del nuevo Producto: " );uart0_putchar( '\n' );
			uart0_gets( nombre );

			//buscar
			for(i=0; i < 4 && encontrado == 0; i++)
 c101b6c:	e51b3014 	ldr	r3, [fp, #-20]	; 0xffffffec
 c101b70:	e2833001 	add	r3, r3, #1
 c101b74:	e50b3014 	str	r3, [fp, #-20]	; 0xffffffec
 c101b78:	e51b3014 	ldr	r3, [fp, #-20]	; 0xffffffec
 c101b7c:	e3530003 	cmp	r3, #3
 c101b80:	ca000002 	bgt	c101b90 <borrar+0x5ec>
 c101b84:	e55b300d 	ldrb	r3, [fp, #-13]
 c101b88:	e3530000 	cmp	r3, #0
 c101b8c:	0affffc4 	beq	c101aa4 <borrar+0x500>
						encontrado = 1;
						i--;
						j--;
					}
				}
			if (encontrado == 1){
 c101b90:	e55b300d 	ldrb	r3, [fp, #-13]
 c101b94:	e3530001 	cmp	r3, #1
 c101b98:	1a0000b5 	bne	c101e74 <borrar+0x8d0>
				strcpy(verduras[i][j].nombre, verduras[countV/8][countV%8].nombre); //copiamos el nombre
 c101b9c:	e51b3018 	ldr	r3, [fp, #-24]	; 0xffffffe8
 c101ba0:	e1a02003 	mov	r2, r3
 c101ba4:	e1a02102 	lsl	r2, r2, #2
 c101ba8:	e0822003 	add	r2, r2, r3
 c101bac:	e1a02082 	lsl	r2, r2, #1
 c101bb0:	e0822003 	add	r2, r2, r3
 c101bb4:	e1a03082 	lsl	r3, r2, #1
 c101bb8:	e1a02003 	mov	r2, r3
 c101bbc:	e51b1014 	ldr	r1, [fp, #-20]	; 0xffffffec
 c101bc0:	e1a03001 	mov	r3, r1
 c101bc4:	e1a03103 	lsl	r3, r3, #2
 c101bc8:	e0833001 	add	r3, r3, r1
 c101bcc:	e1a03083 	lsl	r3, r3, #1
 c101bd0:	e0833001 	add	r3, r3, r1
 c101bd4:	e1a03203 	lsl	r3, r3, #4
 c101bd8:	e0822003 	add	r2, r2, r3
 c101bdc:	e59f3304 	ldr	r3, [pc, #772]	; c101ee8 <borrar+0x944>
 c101be0:	e0820003 	add	r0, r2, r3
 c101be4:	e59f3300 	ldr	r3, [pc, #768]	; c101eec <borrar+0x948>
 c101be8:	e5933000 	ldr	r3, [r3]
 c101bec:	e2832007 	add	r2, r3, #7
 c101bf0:	e3530000 	cmp	r3, #0
 c101bf4:	b1a03002 	movlt	r3, r2
 c101bf8:	e1a031c3 	asr	r3, r3, #3
 c101bfc:	e1a01003 	mov	r1, r3
 c101c00:	e59f32e4 	ldr	r3, [pc, #740]	; c101eec <borrar+0x948>
 c101c04:	e5932000 	ldr	r2, [r3]
 c101c08:	e1a03fc2 	asr	r3, r2, #31
 c101c0c:	e1a03ea3 	lsr	r3, r3, #29
 c101c10:	e0822003 	add	r2, r2, r3
 c101c14:	e2022007 	and	r2, r2, #7
 c101c18:	e0633002 	rsb	r3, r3, r2
 c101c1c:	e1a02003 	mov	r2, r3
 c101c20:	e1a02102 	lsl	r2, r2, #2
 c101c24:	e0822003 	add	r2, r2, r3
 c101c28:	e1a02082 	lsl	r2, r2, #1
 c101c2c:	e0822003 	add	r2, r2, r3
 c101c30:	e1a03082 	lsl	r3, r2, #1
 c101c34:	e1a02003 	mov	r2, r3
 c101c38:	e1a03001 	mov	r3, r1
 c101c3c:	e1a03103 	lsl	r3, r3, #2
 c101c40:	e0833001 	add	r3, r3, r1
 c101c44:	e1a03083 	lsl	r3, r3, #1
 c101c48:	e0833001 	add	r3, r3, r1
 c101c4c:	e1a03203 	lsl	r3, r3, #4
 c101c50:	e0822003 	add	r2, r2, r3
 c101c54:	e59f328c 	ldr	r3, [pc, #652]	; c101ee8 <borrar+0x944>
 c101c58:	e0823003 	add	r3, r2, r3
 c101c5c:	e1a01003 	mov	r1, r3
 c101c60:	ebfffc68 	bl	c100e08 <strcpy>
				verduras[i][j].precio = verduras[countV/8][countV%8].precio; //copiamos el precio
 c101c64:	e59f3280 	ldr	r3, [pc, #640]	; c101eec <borrar+0x948>
 c101c68:	e5933000 	ldr	r3, [r3]
 c101c6c:	e2832007 	add	r2, r3, #7
 c101c70:	e3530000 	cmp	r3, #0
 c101c74:	b1a03002 	movlt	r3, r2
 c101c78:	e1a031c3 	asr	r3, r3, #3
 c101c7c:	e1a01003 	mov	r1, r3
 c101c80:	e59f3264 	ldr	r3, [pc, #612]	; c101eec <borrar+0x948>
 c101c84:	e5932000 	ldr	r2, [r3]
 c101c88:	e1a03fc2 	asr	r3, r2, #31
 c101c8c:	e1a03ea3 	lsr	r3, r3, #29
 c101c90:	e0822003 	add	r2, r2, r3
 c101c94:	e2022007 	and	r2, r2, #7
 c101c98:	e0633002 	rsb	r3, r3, r2
 c101c9c:	e59fc244 	ldr	ip, [pc, #580]	; c101ee8 <borrar+0x944>
 c101ca0:	e3a00010 	mov	r0, #16
 c101ca4:	e1a02003 	mov	r2, r3
 c101ca8:	e1a02102 	lsl	r2, r2, #2
 c101cac:	e0822003 	add	r2, r2, r3
 c101cb0:	e1a02082 	lsl	r2, r2, #1
 c101cb4:	e0822003 	add	r2, r2, r3
 c101cb8:	e1a03082 	lsl	r3, r2, #1
 c101cbc:	e1a02003 	mov	r2, r3
 c101cc0:	e1a03001 	mov	r3, r1
 c101cc4:	e1a03103 	lsl	r3, r3, #2
 c101cc8:	e0833001 	add	r3, r3, r1
 c101ccc:	e1a03083 	lsl	r3, r3, #1
 c101cd0:	e0833001 	add	r3, r3, r1
 c101cd4:	e1a03203 	lsl	r3, r3, #4
 c101cd8:	e0823003 	add	r3, r2, r3
 c101cdc:	e08c3003 	add	r3, ip, r3
 c101ce0:	e0833000 	add	r3, r3, r0
 c101ce4:	e1d300b4 	ldrh	r0, [r3, #4]
 c101ce8:	e59fe1f8 	ldr	lr, [pc, #504]	; c101ee8 <borrar+0x944>
 c101cec:	e51b3018 	ldr	r3, [fp, #-24]	; 0xffffffe8
 c101cf0:	e51b1014 	ldr	r1, [fp, #-20]	; 0xffffffec
 c101cf4:	e3a0c010 	mov	ip, #16
 c101cf8:	e1a02003 	mov	r2, r3
 c101cfc:	e1a02102 	lsl	r2, r2, #2
 c101d00:	e0822003 	add	r2, r2, r3
 c101d04:	e1a02082 	lsl	r2, r2, #1
 c101d08:	e0822003 	add	r2, r2, r3
 c101d0c:	e1a03082 	lsl	r3, r2, #1
 c101d10:	e1a02003 	mov	r2, r3
 c101d14:	e1a03001 	mov	r3, r1
 c101d18:	e1a03103 	lsl	r3, r3, #2
 c101d1c:	e0833001 	add	r3, r3, r1
 c101d20:	e1a03083 	lsl	r3, r3, #1
 c101d24:	e0833001 	add	r3, r3, r1
 c101d28:	e1a03203 	lsl	r3, r3, #4
 c101d2c:	e0823003 	add	r3, r2, r3
 c101d30:	e08e3003 	add	r3, lr, r3
 c101d34:	e083300c 	add	r3, r3, ip
 c101d38:	e1c300b4 	strh	r0, [r3, #4]
				strcpy(verduras[countV/8][countV%8].nombre, " "); //Esperemos que no pete D:
 c101d3c:	e59f31a8 	ldr	r3, [pc, #424]	; c101eec <borrar+0x948>
 c101d40:	e5933000 	ldr	r3, [r3]
 c101d44:	e2832007 	add	r2, r3, #7
 c101d48:	e3530000 	cmp	r3, #0
 c101d4c:	b1a03002 	movlt	r3, r2
 c101d50:	e1a031c3 	asr	r3, r3, #3
 c101d54:	e1a01003 	mov	r1, r3
 c101d58:	e59f318c 	ldr	r3, [pc, #396]	; c101eec <borrar+0x948>
 c101d5c:	e5932000 	ldr	r2, [r3]
 c101d60:	e1a03fc2 	asr	r3, r2, #31
 c101d64:	e1a03ea3 	lsr	r3, r3, #29
 c101d68:	e0822003 	add	r2, r2, r3
 c101d6c:	e2022007 	and	r2, r2, #7
 c101d70:	e0633002 	rsb	r3, r3, r2
 c101d74:	e1a02003 	mov	r2, r3
 c101d78:	e1a02102 	lsl	r2, r2, #2
 c101d7c:	e0822003 	add	r2, r2, r3
 c101d80:	e1a02082 	lsl	r2, r2, #1
 c101d84:	e0822003 	add	r2, r2, r3
 c101d88:	e1a03082 	lsl	r3, r2, #1
 c101d8c:	e1a02003 	mov	r2, r3
 c101d90:	e1a03001 	mov	r3, r1
 c101d94:	e1a03103 	lsl	r3, r3, #2
 c101d98:	e0833001 	add	r3, r3, r1
 c101d9c:	e1a03083 	lsl	r3, r3, #1
 c101da0:	e0833001 	add	r3, r3, r1
 c101da4:	e1a03203 	lsl	r3, r3, #4
 c101da8:	e0822003 	add	r2, r2, r3
 c101dac:	e59f3134 	ldr	r3, [pc, #308]	; c101ee8 <borrar+0x944>
 c101db0:	e0823003 	add	r3, r2, r3
 c101db4:	e1a00003 	mov	r0, r3
 c101db8:	e59f1118 	ldr	r1, [pc, #280]	; c101ed8 <borrar+0x934>
 c101dbc:	e3a02002 	mov	r2, #2
 c101dc0:	eb0019fb 	bl	c1085b4 <memcpy>
				verduras[countV/8][countV%8].precio = 0;
 c101dc4:	e59f3120 	ldr	r3, [pc, #288]	; c101eec <borrar+0x948>
 c101dc8:	e5933000 	ldr	r3, [r3]
 c101dcc:	e2832007 	add	r2, r3, #7
 c101dd0:	e3530000 	cmp	r3, #0
 c101dd4:	b1a03002 	movlt	r3, r2
 c101dd8:	e1a031c3 	asr	r3, r3, #3
 c101ddc:	e1a01003 	mov	r1, r3
 c101de0:	e59f3104 	ldr	r3, [pc, #260]	; c101eec <borrar+0x948>
 c101de4:	e5932000 	ldr	r2, [r3]
 c101de8:	e1a03fc2 	asr	r3, r2, #31
 c101dec:	e1a03ea3 	lsr	r3, r3, #29
 c101df0:	e0822003 	add	r2, r2, r3
 c101df4:	e2022007 	and	r2, r2, #7
 c101df8:	e0633002 	rsb	r3, r3, r2
 c101dfc:	e59fc0e4 	ldr	ip, [pc, #228]	; c101ee8 <borrar+0x944>
 c101e00:	e3a00010 	mov	r0, #16
 c101e04:	e1a02003 	mov	r2, r3
 c101e08:	e1a02102 	lsl	r2, r2, #2
 c101e0c:	e0822003 	add	r2, r2, r3
 c101e10:	e1a02082 	lsl	r2, r2, #1
 c101e14:	e0822003 	add	r2, r2, r3
 c101e18:	e1a03082 	lsl	r3, r2, #1
 c101e1c:	e1a02003 	mov	r2, r3
 c101e20:	e1a03001 	mov	r3, r1
 c101e24:	e1a03103 	lsl	r3, r3, #2
 c101e28:	e0833001 	add	r3, r3, r1
 c101e2c:	e1a03083 	lsl	r3, r3, #1
 c101e30:	e0833001 	add	r3, r3, r1
 c101e34:	e1a03203 	lsl	r3, r3, #4
 c101e38:	e0823003 	add	r3, r2, r3
 c101e3c:	e08c3003 	add	r3, ip, r3
 c101e40:	e0833000 	add	r3, r3, r0
 c101e44:	e3a02000 	mov	r2, #0
 c101e48:	e1c320b4 	strh	r2, [r3, #4]
				countV--;
 c101e4c:	e59f3098 	ldr	r3, [pc, #152]	; c101eec <borrar+0x948>
 c101e50:	e5933000 	ldr	r3, [r3]
 c101e54:	e2432001 	sub	r2, r3, #1
 c101e58:	e59f308c 	ldr	r3, [pc, #140]	; c101eec <borrar+0x948>
 c101e5c:	e5832000 	str	r2, [r3]
				uart0_puts( "-------Producto Borrado--------" );uart0_putchar( '\n' );
 c101e60:	e59f0074 	ldr	r0, [pc, #116]	; c101edc <borrar+0x938>
 c101e64:	eb001236 	bl	c106744 <uart0_puts>
 c101e68:	e3a0000a 	mov	r0, #10
 c101e6c:	eb00120e 	bl	c1066ac <uart0_putchar>
 c101e70:	ea000001 	b	c101e7c <borrar+0x8d8>
			}
			else
				uart0_puts( "-----Producto no encontrado------" );uart0_putchar( '\n' );
 c101e74:	e59f0064 	ldr	r0, [pc, #100]	; c101ee0 <borrar+0x93c>
 c101e78:	eb001231 	bl	c106744 <uart0_puts>
 c101e7c:	e3a0000a 	mov	r0, #10
 c101e80:	eb001209 	bl	c1066ac <uart0_putchar>
			return;
 c101e84:	ea000007 	b	c101ea8 <borrar+0x904>
		}
		else if (scancode == KEYPAD_KEY2){
 c101e88:	e55b3019 	ldrb	r3, [fp, #-25]	; 0xffffffe7
 c101e8c:	e3530002 	cmp	r3, #2
 c101e90:	1afffdea 	bne	c101640 <borrar+0x9c>
			uart0_puts( "----------Cancelado-----------" );uart0_putchar( '\n' );
 c101e94:	e59f0054 	ldr	r0, [pc, #84]	; c101ef0 <borrar+0x94c>
 c101e98:	eb001229 	bl	c106744 <uart0_puts>
 c101e9c:	e3a0000a 	mov	r0, #10
 c101ea0:	eb001201 	bl	c1066ac <uart0_putchar>
			return;
 c101ea4:	e1a00000 	nop			; (mov r0, r0)
		}
	}//while

}
 c101ea8:	e24bd00c 	sub	sp, fp, #12
 c101eac:	e89d6800 	ldm	sp, {fp, sp, lr}
 c101eb0:	e12fff1e 	bx	lr
 c101eb4:	0c108884 	.word	0x0c108884
 c101eb8:	0c108890 	.word	0x0c108890
 c101ebc:	0c1088a0 	.word	0x0c1088a0
 c101ec0:	0c1089e4 	.word	0x0c1089e4
 c101ec4:	0c108a08 	.word	0x0c108a08
 c101ec8:	0c108a24 	.word	0x0c108a24
 c101ecc:	0c108a44 	.word	0x0c108a44
 c101ed0:	0c10a3a0 	.word	0x0c10a3a0
 c101ed4:	0c10a0dc 	.word	0x0c10a0dc
 c101ed8:	0c108a70 	.word	0x0c108a70
 c101edc:	0c108a74 	.word	0x0c108a74
 c101ee0:	0c108a94 	.word	0x0c108a94
 c101ee4:	0c1087e0 	.word	0x0c1087e0
 c101ee8:	0c10a0e0 	.word	0x0c10a0e0
 c101eec:	0c10a0d8 	.word	0x0c10a0d8
 c101ef0:	0c108920 	.word	0x0c108920

0c101ef4 <modo_admin>:

void modo_admin(){
 c101ef4:	e1a0c00d 	mov	ip, sp
 c101ef8:	e92dd800 	push	{fp, ip, lr, pc}
 c101efc:	e24cb004 	sub	fp, ip, #4
 c101f00:	e24dd008 	sub	sp, sp, #8
	lcd_clear();
 c101f04:	eb000511 	bl	c103350 <lcd_clear>
	//mostrar por lcd:
	uint8 scancode;
	lcd_puts_x2(7, 50,BLACK," 0 - Aadir producto");
 c101f08:	e3a00007 	mov	r0, #7
 c101f0c:	e3a01032 	mov	r1, #50	; 0x32
 c101f10:	e3a0200f 	mov	r2, #15
 c101f14:	e59f3080 	ldr	r3, [pc, #128]	; c101f9c <modo_admin+0xa8>
 c101f18:	eb0007d2 	bl	c103e68 <lcd_puts_x2>
	lcd_puts_x2(7,110,BLACK," 1 - Borrar producto");
 c101f1c:	e3a00007 	mov	r0, #7
 c101f20:	e3a0106e 	mov	r1, #110	; 0x6e
 c101f24:	e3a0200f 	mov	r2, #15
 c101f28:	e59f3070 	ldr	r3, [pc, #112]	; c101fa0 <modo_admin+0xac>
 c101f2c:	eb0007cd 	bl	c103e68 <lcd_puts_x2>
	lcd_puts_x2(7,170,BLACK," 2 - Cancelar");
 c101f30:	e3a00007 	mov	r0, #7
 c101f34:	e3a010aa 	mov	r1, #170	; 0xaa
 c101f38:	e3a0200f 	mov	r2, #15
 c101f3c:	e59f3060 	ldr	r3, [pc, #96]	; c101fa4 <modo_admin+0xb0>
 c101f40:	eb0007c8 	bl	c103e68 <lcd_puts_x2>
 c101f44:	ea000000 	b	c101f4c <modo_admin+0x58>
			borrar();
			return;
		}
		else if (scancode == KEYPAD_KEY2)
			return;
	}
 c101f48:	e1a00000 	nop			; (mov r0, r0)
	uint8 scancode;
	lcd_puts_x2(7, 50,BLACK," 0 - Aadir producto");
	lcd_puts_x2(7,110,BLACK," 1 - Borrar producto");
	lcd_puts_x2(7,170,BLACK," 2 - Cancelar");
	while (1){
		scancode = keypad_getchar();
 c101f4c:	eb0003e9 	bl	c102ef8 <keypad_getchar>
 c101f50:	e1a03000 	mov	r3, r0
 c101f54:	e54b300d 	strb	r3, [fp, #-13]
		if (scancode == KEYPAD_KEY0){
 c101f58:	e55b300d 	ldrb	r3, [fp, #-13]
 c101f5c:	e3530000 	cmp	r3, #0
 c101f60:	1a000001 	bne	c101f6c <modo_admin+0x78>
			anadir();
 c101f64:	ebfffc16 	bl	c100fc4 <anadir>
			return;
 c101f68:	ea000008 	b	c101f90 <modo_admin+0x9c>
		}
		else if (scancode == KEYPAD_KEY1){
 c101f6c:	e55b300d 	ldrb	r3, [fp, #-13]
 c101f70:	e3530001 	cmp	r3, #1
 c101f74:	1a000001 	bne	c101f80 <modo_admin+0x8c>
			borrar();
 c101f78:	ebfffd89 	bl	c1015a4 <borrar>
			return;
 c101f7c:	ea000003 	b	c101f90 <modo_admin+0x9c>
		}
		else if (scancode == KEYPAD_KEY2)
 c101f80:	e55b300d 	ldrb	r3, [fp, #-13]
 c101f84:	e3530002 	cmp	r3, #2
 c101f88:	1affffee 	bne	c101f48 <modo_admin+0x54>
			return;
 c101f8c:	e1a00000 	nop			; (mov r0, r0)
	}
}
 c101f90:	e24bd00c 	sub	sp, fp, #12
 c101f94:	e89d6800 	ldm	sp, {fp, sp, lr}
 c101f98:	e12fff1e 	bx	lr
 c101f9c:	0c108ab8 	.word	0x0c108ab8
 c101fa0:	0c108ad0 	.word	0x0c108ad0
 c101fa4:	0c1088a0 	.word	0x0c1088a0

0c101fa8 <main>:

void main( void ){
 c101fa8:	e1a0c00d 	mov	ip, sp
 c101fac:	e92dd800 	push	{fp, ip, lr, pc}
 c101fb0:	e24cb004 	sub	fp, ip, #4
 c101fb4:	e24dd010 	sub	sp, sp, #16

	sys_init();
 c101fb8:	eb000c65 	bl	c105154 <sys_init>
	uart0_init();
 c101fbc:	eb0011a1 	bl	c106648 <uart0_init>
	lcd_init();
 c101fc0:	eb000459 	bl	c10312c <lcd_init>
	keypad_init();
 c101fc4:	eb00024e 	bl	c102904 <keypad_init>
	uart0_init();
 c101fc8:	eb00119e 	bl	c106648 <uart0_init>
	timers_init();
 c101fcc:	eb000f2d 	bl	c105c88 <timers_init>


	uart0_putchar('/n');
 c101fd0:	e3a0006e 	mov	r0, #110	; 0x6e
 c101fd4:	eb0011b4 	bl	c1066ac <uart0_putchar>
	n_ticks = 0;
 c101fd8:	e59f3264 	ldr	r3, [pc, #612]	; c102244 <main+0x29c>
 c101fdc:	e3a02000 	mov	r2, #0
 c101fe0:	e5832000 	str	r2, [r3]

	timer0_open_ms( isr_timer, 9999, 0 );
 c101fe4:	e59f025c 	ldr	r0, [pc, #604]	; c102248 <main+0x2a0>
 c101fe8:	e59f125c 	ldr	r1, [pc, #604]	; c10224c <main+0x2a4>
 c101fec:	e3a02000 	mov	r2, #0
 c101ff0:	eb00113d 	bl	c1064ec <timer0_open_ms>



	int pantalla;
	int seleccion;
	int i=0,j = 0;
 c101ff4:	e3a03000 	mov	r3, #0
 c101ff8:	e50b3014 	str	r3, [fp, #-20]	; 0xffffffec
 c101ffc:	e3a03000 	mov	r3, #0
 c102000:	e50b3018 	str	r3, [fp, #-24]	; 0xffffffe8

	lcd_clear();
 c102004:	eb0004d1 	bl	c103350 <lcd_clear>
	lcd_on();
 c102008:	eb0004a8 	bl	c1032b0 <lcd_on>
	while(1){
		pantalla =0;
 c10200c:	e3a03000 	mov	r3, #0
 c102010:	e50b3010 	str	r3, [fp, #-16]
		seleccion = frutas_verduras();
 c102014:	ebfffab1 	bl	c100ae0 <frutas_verduras>
 c102018:	e50b001c 	str	r0, [fp, #-28]	; 0xffffffe4

		if(seleccion == 1){
 c10201c:	e51b301c 	ldr	r3, [fp, #-28]	; 0xffffffe4
 c102020:	e3530001 	cmp	r3, #1
 c102024:	1a00003f 	bne	c102128 <main+0x180>
			uart0_puts("Verdura seleccionada");
 c102028:	e59f0220 	ldr	r0, [pc, #544]	; c102250 <main+0x2a8>
 c10202c:	eb0011c4 	bl	c106744 <uart0_puts>
			uart0_putchar( '\n' );
 c102030:	e3a0000a 	mov	r0, #10
 c102034:	eb00119c 	bl	c1066ac <uart0_putchar>

			do{
				lcd_putWallpaper(MENU);
 c102038:	e59f0214 	ldr	r0, [pc, #532]	; c102254 <main+0x2ac>
 c10203c:	eb000aa0 	bl	c104ac4 <lcd_putWallpaper>
				i = writelist_verduras(pantalla,j);
 c102040:	e51b0010 	ldr	r0, [fp, #-16]
 c102044:	e51b1018 	ldr	r1, [fp, #-24]	; 0xffffffe8
 c102048:	ebfff860 	bl	c1001d0 <writelist_verduras>
 c10204c:	e50b0014 	str	r0, [fp, #-20]	; 0xffffffec

				if(i==2)
 c102050:	e51b3014 	ldr	r3, [fp, #-20]	; 0xffffffec
 c102054:	e3530002 	cmp	r3, #2
 c102058:	1a000007 	bne	c10207c <main+0xd4>
					j = (j+1)%8;
 c10205c:	e51b3018 	ldr	r3, [fp, #-24]	; 0xffffffe8
 c102060:	e2832001 	add	r2, r3, #1
 c102064:	e1a03fc2 	asr	r3, r2, #31
 c102068:	e1a03ea3 	lsr	r3, r3, #29
 c10206c:	e0822003 	add	r2, r2, r3
 c102070:	e2022007 	and	r2, r2, #7
 c102074:	e0633002 	rsb	r3, r3, r2
 c102078:	e50b3018 	str	r3, [fp, #-24]	; 0xffffffe8
				if(i==1)
 c10207c:	e51b3014 	ldr	r3, [fp, #-20]	; 0xffffffec
 c102080:	e3530001 	cmp	r3, #1
 c102084:	1a000007 	bne	c1020a8 <main+0x100>
					j = (j-1) %8;
 c102088:	e51b3018 	ldr	r3, [fp, #-24]	; 0xffffffe8
 c10208c:	e2432001 	sub	r2, r3, #1
 c102090:	e1a03fc2 	asr	r3, r2, #31
 c102094:	e1a03ea3 	lsr	r3, r3, #29
 c102098:	e0822003 	add	r2, r2, r3
 c10209c:	e2022007 	and	r2, r2, #7
 c1020a0:	e0633002 	rsb	r3, r3, r2
 c1020a4:	e50b3018 	str	r3, [fp, #-24]	; 0xffffffe8
				if(i==4){ 			// se ha dado a OK
 c1020a8:	e51b3014 	ldr	r3, [fp, #-20]	; 0xffffffec
 c1020ac:	e3530004 	cmp	r3, #4
 c1020b0:	1a000002 	bne	c1020c0 <main+0x118>
					keypad_wait_any_keyup();
 c1020b4:	eb00037f 	bl	c102eb8 <keypad_wait_any_keyup>
					i = 0; //para salir del bucle
 c1020b8:	e3a03000 	mov	r3, #0
 c1020bc:	e50b3014 	str	r3, [fp, #-20]	; 0xffffffec
				}
				if (i == 5) 		//pantalla anterior
 c1020c0:	e51b3014 	ldr	r3, [fp, #-20]	; 0xffffffec
 c1020c4:	e3530005 	cmp	r3, #5
 c1020c8:	1a000007 	bne	c1020ec <main+0x144>
					pantalla = (pantalla-1)%8;
 c1020cc:	e51b3010 	ldr	r3, [fp, #-16]
 c1020d0:	e2432001 	sub	r2, r3, #1
 c1020d4:	e1a03fc2 	asr	r3, r2, #31
 c1020d8:	e1a03ea3 	lsr	r3, r3, #29
 c1020dc:	e0822003 	add	r2, r2, r3
 c1020e0:	e2022007 	and	r2, r2, #7
 c1020e4:	e0633002 	rsb	r3, r3, r2
 c1020e8:	e50b3010 	str	r3, [fp, #-16]
				if (i == 6)			//siguiente pantalla
 c1020ec:	e51b3014 	ldr	r3, [fp, #-20]	; 0xffffffec
 c1020f0:	e3530006 	cmp	r3, #6
 c1020f4:	1a000007 	bne	c102118 <main+0x170>
					pantalla = (pantalla+1)%8;
 c1020f8:	e51b3010 	ldr	r3, [fp, #-16]
 c1020fc:	e2832001 	add	r2, r3, #1
 c102100:	e1a03fc2 	asr	r3, r2, #31
 c102104:	e1a03ea3 	lsr	r3, r3, #29
 c102108:	e0822003 	add	r2, r2, r3
 c10210c:	e2022007 	and	r2, r2, #7
 c102110:	e0633002 	rsb	r3, r3, r2
 c102114:	e50b3010 	str	r3, [fp, #-16]
			} while( i != 0 );
 c102118:	e51b3014 	ldr	r3, [fp, #-20]	; 0xffffffec
 c10211c:	e3530000 	cmp	r3, #0
 c102120:	1affffc4 	bne	c102038 <main+0x90>
		}
		else{
			uart0_putchar('/n');
			modo_admin();
		}
	}
 c102124:	eaffffb8 	b	c10200c <main+0x64>
				if (i == 6)			//siguiente pantalla
					pantalla = (pantalla+1)%8;
			} while( i != 0 );
		}

		else if (seleccion == 0){
 c102128:	e51b301c 	ldr	r3, [fp, #-28]	; 0xffffffe4
 c10212c:	e3530000 	cmp	r3, #0
 c102130:	1a00003f 	bne	c102234 <main+0x28c>
			uart0_puts("Fruta seleccionada");uart0_putchar( '\n' );
 c102134:	e59f011c 	ldr	r0, [pc, #284]	; c102258 <main+0x2b0>
 c102138:	eb001181 	bl	c106744 <uart0_puts>
 c10213c:	e3a0000a 	mov	r0, #10
 c102140:	eb001159 	bl	c1066ac <uart0_putchar>

			do{
				lcd_putWallpaper(MENU);
 c102144:	e59f0108 	ldr	r0, [pc, #264]	; c102254 <main+0x2ac>
 c102148:	eb000a5d 	bl	c104ac4 <lcd_putWallpaper>
				i = writelist_frutas(pantalla,j);
 c10214c:	e51b0010 	ldr	r0, [fp, #-16]
 c102150:	e51b1018 	ldr	r1, [fp, #-24]	; 0xffffffe8
 c102154:	ebfff93f 	bl	c100658 <writelist_frutas>
 c102158:	e50b0014 	str	r0, [fp, #-20]	; 0xffffffec

				if(i==2) //busca en la siguiente fila
 c10215c:	e51b3014 	ldr	r3, [fp, #-20]	; 0xffffffec
 c102160:	e3530002 	cmp	r3, #2
 c102164:	1a000007 	bne	c102188 <main+0x1e0>
					j = (j+1)%8;
 c102168:	e51b3018 	ldr	r3, [fp, #-24]	; 0xffffffe8
 c10216c:	e2832001 	add	r2, r3, #1
 c102170:	e1a03fc2 	asr	r3, r2, #31
 c102174:	e1a03ea3 	lsr	r3, r3, #29
 c102178:	e0822003 	add	r2, r2, r3
 c10217c:	e2022007 	and	r2, r2, #7
 c102180:	e0633002 	rsb	r3, r3, r2
 c102184:	e50b3018 	str	r3, [fp, #-24]	; 0xffffffe8

				if(i==1) //busca en la fila anterior
 c102188:	e51b3014 	ldr	r3, [fp, #-20]	; 0xffffffec
 c10218c:	e3530001 	cmp	r3, #1
 c102190:	1a000007 	bne	c1021b4 <main+0x20c>
					j = (j-1)%8;
 c102194:	e51b3018 	ldr	r3, [fp, #-24]	; 0xffffffe8
 c102198:	e2432001 	sub	r2, r3, #1
 c10219c:	e1a03fc2 	asr	r3, r2, #31
 c1021a0:	e1a03ea3 	lsr	r3, r3, #29
 c1021a4:	e0822003 	add	r2, r2, r3
 c1021a8:	e2022007 	and	r2, r2, #7
 c1021ac:	e0633002 	rsb	r3, r3, r2
 c1021b0:	e50b3018 	str	r3, [fp, #-24]	; 0xffffffe8
				if(i==4){ // se ha dado a ok
 c1021b4:	e51b3014 	ldr	r3, [fp, #-20]	; 0xffffffec
 c1021b8:	e3530004 	cmp	r3, #4
 c1021bc:	1a000002 	bne	c1021cc <main+0x224>
					keypad_wait_any_keyup();
 c1021c0:	eb00033c 	bl	c102eb8 <keypad_wait_any_keyup>
					i = 0; //para salir del bucle
 c1021c4:	e3a03000 	mov	r3, #0
 c1021c8:	e50b3014 	str	r3, [fp, #-20]	; 0xffffffec
				}
				if (i == 5) 		//pantalla anterior
 c1021cc:	e51b3014 	ldr	r3, [fp, #-20]	; 0xffffffec
 c1021d0:	e3530005 	cmp	r3, #5
 c1021d4:	1a000007 	bne	c1021f8 <main+0x250>
					pantalla = (pantalla-1)%8;
 c1021d8:	e51b3010 	ldr	r3, [fp, #-16]
 c1021dc:	e2432001 	sub	r2, r3, #1
 c1021e0:	e1a03fc2 	asr	r3, r2, #31
 c1021e4:	e1a03ea3 	lsr	r3, r3, #29
 c1021e8:	e0822003 	add	r2, r2, r3
 c1021ec:	e2022007 	and	r2, r2, #7
 c1021f0:	e0633002 	rsb	r3, r3, r2
 c1021f4:	e50b3010 	str	r3, [fp, #-16]
				if (i == 6)			//siguiente pantalla
 c1021f8:	e51b3014 	ldr	r3, [fp, #-20]	; 0xffffffec
 c1021fc:	e3530006 	cmp	r3, #6
 c102200:	1a000007 	bne	c102224 <main+0x27c>
					pantalla = (pantalla+1)%8;
 c102204:	e51b3010 	ldr	r3, [fp, #-16]
 c102208:	e2832001 	add	r2, r3, #1
 c10220c:	e1a03fc2 	asr	r3, r2, #31
 c102210:	e1a03ea3 	lsr	r3, r3, #29
 c102214:	e0822003 	add	r2, r2, r3
 c102218:	e2022007 	and	r2, r2, #7
 c10221c:	e0633002 	rsb	r3, r3, r2
 c102220:	e50b3010 	str	r3, [fp, #-16]
			} while( i != 0 );
 c102224:	e51b3014 	ldr	r3, [fp, #-20]	; 0xffffffec
 c102228:	e3530000 	cmp	r3, #0
 c10222c:	1affffc4 	bne	c102144 <main+0x19c>
		}
		else{
			uart0_putchar('/n');
			modo_admin();
		}
	}
 c102230:	eaffff75 	b	c10200c <main+0x64>
				if (i == 6)			//siguiente pantalla
					pantalla = (pantalla+1)%8;
			} while( i != 0 );
		}
		else{
			uart0_putchar('/n');
 c102234:	e3a0006e 	mov	r0, #110	; 0x6e
 c102238:	eb00111b 	bl	c1066ac <uart0_putchar>
			modo_admin();
 c10223c:	ebffff2c 	bl	c101ef4 <modo_admin>
		}
	}
 c102240:	eaffff71 	b	c10200c <main+0x64>
 c102244:	0c113c60 	.word	0x0c113c60
 c102248:	0c10225c 	.word	0x0c10225c
 c10224c:	0000270f 	.word	0x0000270f
 c102250:	0c108ae8 	.word	0x0c108ae8
 c102254:	0c230000 	.word	0x0c230000
 c102258:	0c108b00 	.word	0x0c108b00

0c10225c <isr_timer>:

}

void isr_timer( void ){
 c10225c:	e52dc004 	push	{ip}		; (str ip, [sp, #-4]!)
 c102260:	e1a0c00d 	mov	ip, sp
 c102264:	e92dd80f 	push	{r0, r1, r2, r3, fp, ip, lr, pc}
 c102268:	e24cb004 	sub	fp, ip, #4

	if (n_ticks < 3) // si hay menos de 10s se suma 1
 c10226c:	e59f30a4 	ldr	r3, [pc, #164]	; c102318 <isr_timer+0xbc>
 c102270:	e5933000 	ldr	r3, [r3]
 c102274:	e3530002 	cmp	r3, #2
 c102278:	ca000005 	bgt	c102294 <isr_timer+0x38>
		n_ticks++;
 c10227c:	e59f3094 	ldr	r3, [pc, #148]	; c102318 <isr_timer+0xbc>
 c102280:	e5933000 	ldr	r3, [r3]
 c102284:	e2832001 	add	r2, r3, #1
 c102288:	e59f3088 	ldr	r3, [pc, #136]	; c102318 <isr_timer+0xbc>
 c10228c:	e5832000 	str	r2, [r3]
 c102290:	ea00001c 	b	c102308 <isr_timer+0xac>

	else{
		I_ISPC = BIT_TIMER0;
 c102294:	e59f3080 	ldr	r3, [pc, #128]	; c10231c <isr_timer+0xc0>
 c102298:	e3a02a02 	mov	r2, #8192	; 0x2000
 c10229c:	e5832000 	str	r2, [r3]
		lcd_savescreen(lcd_aux); //guarda en lcd_aux el estado de la pantalla;
 c1022a0:	e59f0078 	ldr	r0, [pc, #120]	; c102320 <isr_timer+0xc4>
 c1022a4:	eb000a5d 	bl	c104c20 <lcd_savescreen>
		while(keypad_scan() == KEYPAD_FAILURE){ //mientras no se pulse ninguna tecla
 c1022a8:	ea000007 	b	c1022cc <isr_timer+0x70>
			lcd_putWallpaper(SP1);
 c1022ac:	e59f0070 	ldr	r0, [pc, #112]	; c102324 <isr_timer+0xc8>
 c1022b0:	eb000a03 	bl	c104ac4 <lcd_putWallpaper>
			timer3_delay_s(2);
 c1022b4:	e3a00002 	mov	r0, #2
 c1022b8:	eb000f31 	bl	c105f84 <timer3_delay_s>
			lcd_putWallpaper(SP2);
 c1022bc:	e59f0064 	ldr	r0, [pc, #100]	; c102328 <isr_timer+0xcc>
 c1022c0:	eb0009ff 	bl	c104ac4 <lcd_putWallpaper>
			timer3_delay_s(2);
 c1022c4:	e3a00002 	mov	r0, #2
 c1022c8:	eb000f2d 	bl	c105f84 <timer3_delay_s>
		n_ticks++;

	else{
		I_ISPC = BIT_TIMER0;
		lcd_savescreen(lcd_aux); //guarda en lcd_aux el estado de la pantalla;
		while(keypad_scan() == KEYPAD_FAILURE){ //mientras no se pulse ninguna tecla
 c1022cc:	eb000193 	bl	c102920 <keypad_scan>
 c1022d0:	e1a03000 	mov	r3, r0
 c1022d4:	e35300ff 	cmp	r3, #255	; 0xff
 c1022d8:	0afffff3 	beq	c1022ac <isr_timer+0x50>
			timer3_delay_s(2);
			lcd_putWallpaper(SP2);
			timer3_delay_s(2);
		}

		lcd_loadscreen(lcd_aux); //muestra por pantalla lo que estaba antes del salvapantallas
 c1022dc:	e59f003c 	ldr	r0, [pc, #60]	; c102320 <isr_timer+0xc4>
 c1022e0:	eb000a6c 	bl	c104c98 <lcd_loadscreen>
		sw_delay_ms(1000);
 c1022e4:	e3a00ffa 	mov	r0, #1000	; 0x3e8
 c1022e8:	eb000f0f 	bl	c105f2c <sw_delay_ms>
		n_ticks = 0;
 c1022ec:	e59f3024 	ldr	r3, [pc, #36]	; c102318 <isr_timer+0xbc>
 c1022f0:	e3a02000 	mov	r2, #0
 c1022f4:	e5832000 	str	r2, [r3]
		timer0_open_ms( isr_timer, 10000, 1 );
 c1022f8:	e59f002c 	ldr	r0, [pc, #44]	; c10232c <isr_timer+0xd0>
 c1022fc:	e59f102c 	ldr	r1, [pc, #44]	; c102330 <isr_timer+0xd4>
 c102300:	e3a02001 	mov	r2, #1
 c102304:	eb001078 	bl	c1064ec <timer0_open_ms>

	}

}
 c102308:	e24bd01c 	sub	sp, fp, #28
 c10230c:	e89d680f 	ldm	sp, {r0, r1, r2, r3, fp, sp, lr}
 c102310:	e49dc004 	pop	{ip}		; (ldr ip, [sp], #4)
 c102314:	e25ef004 	subs	pc, lr, #4
 c102318:	0c113c60 	.word	0x0c113c60
 c10231c:	01e00024 	.word	0x01e00024
 c102320:	0c10a660 	.word	0x0c10a660
 c102324:	0c240000 	.word	0x0c240000
 c102328:	0c250000 	.word	0x0c250000
 c10232c:	0c10225c 	.word	0x0c10225c
 c102330:	00002710 	.word	0x00002710

0c102334 <scale_init>:
 c102334:	e1a0c00d 	mov	ip, sp
 c102338:	e92dd800 	push	{fp, ip, lr, pc}
 c10233c:	e24cb004 	sub	fp, ip, #4
 c102340:	e59f3194 	ldr	r3, [pc, #404]	; c1024dc <scale_init+0x1a8>
 c102344:	e3a02000 	mov	r2, #0
 c102348:	e1c320b0 	strh	r2, [r3]
 c10234c:	e59f318c 	ldr	r3, [pc, #396]	; c1024e0 <scale_init+0x1ac>
 c102350:	e3a02000 	mov	r2, #0
 c102354:	e1c320b0 	strh	r2, [r3]
 c102358:	e59f3184 	ldr	r3, [pc, #388]	; c1024e4 <scale_init+0x1b0>
 c10235c:	e5933000 	ldr	r3, [r3]
 c102360:	e1a02403 	lsl	r2, r3, #8
 c102364:	e59f317c 	ldr	r3, [pc, #380]	; c1024e8 <scale_init+0x1b4>
 c102368:	e5933000 	ldr	r3, [r3]
 c10236c:	e1823003 	orr	r3, r2, r3
 c102370:	e1a00003 	mov	r0, r3
 c102374:	eb000136 	bl	c102854 <random>
 c102378:	e59f216c 	ldr	r2, [pc, #364]	; c1024ec <scale_init+0x1b8>
 c10237c:	e59f3168 	ldr	r3, [pc, #360]	; c1024ec <scale_init+0x1b8>
 c102380:	e5933000 	ldr	r3, [r3]
 c102384:	e3833d12 	orr	r3, r3, #1152	; 0x480
 c102388:	e3833008 	orr	r3, r3, #8
 c10238c:	e5823000 	str	r3, [r2]
 c102390:	e59f3158 	ldr	r3, [pc, #344]	; c1024f0 <scale_init+0x1bc>
 c102394:	e59f2154 	ldr	r2, [pc, #340]	; c1024f0 <scale_init+0x1bc>
 c102398:	e5922000 	ldr	r2, [r2]
 c10239c:	e3c22c06 	bic	r2, r2, #1536	; 0x600
 c1023a0:	e5832000 	str	r2, [r3]
 c1023a4:	e59f3148 	ldr	r3, [pc, #328]	; c1024f4 <scale_init+0x1c0>
 c1023a8:	e59f2144 	ldr	r2, [pc, #324]	; c1024f4 <scale_init+0x1c0>
 c1023ac:	e5922000 	ldr	r2, [r2]
 c1023b0:	e38228ff 	orr	r2, r2, #16711680	; 0xff0000
 c1023b4:	e5832000 	str	r2, [r3]
 c1023b8:	e59f3138 	ldr	r3, [pc, #312]	; c1024f8 <scale_init+0x1c4>
 c1023bc:	e59f2134 	ldr	r2, [pc, #308]	; c1024f8 <scale_init+0x1c4>
 c1023c0:	e5922000 	ldr	r2, [r2]
 c1023c4:	e3c2280f 	bic	r2, r2, #983040	; 0xf0000
 c1023c8:	e3822803 	orr	r2, r2, #196608	; 0x30000
 c1023cc:	e5832000 	str	r2, [r3]
 c1023d0:	e59f3120 	ldr	r3, [pc, #288]	; c1024f8 <scale_init+0x1c4>
 c1023d4:	e59f211c 	ldr	r2, [pc, #284]	; c1024f8 <scale_init+0x1c4>
 c1023d8:	e5922000 	ldr	r2, [r2]
 c1023dc:	e3c2260f 	bic	r2, r2, #15728640	; 0xf00000
 c1023e0:	e3822603 	orr	r2, r2, #3145728	; 0x300000
 c1023e4:	e5832000 	str	r2, [r3]
 c1023e8:	e59f310c 	ldr	r3, [pc, #268]	; c1024fc <scale_init+0x1c8>
 c1023ec:	e3a02000 	mov	r2, #0
 c1023f0:	e5832000 	str	r2, [r3]
 c1023f4:	e59f3104 	ldr	r3, [pc, #260]	; c102500 <scale_init+0x1cc>
 c1023f8:	e59f2100 	ldr	r2, [pc, #256]	; c102500 <scale_init+0x1cc>
 c1023fc:	e5922000 	ldr	r2, [r2]
 c102400:	e3c2260f 	bic	r2, r2, #15728640	; 0xf00000
 c102404:	e3822602 	orr	r2, r2, #2097152	; 0x200000
 c102408:	e5832000 	str	r2, [r3]
 c10240c:	e59f30f0 	ldr	r3, [pc, #240]	; c102504 <scale_init+0x1d0>
 c102410:	e59f20ec 	ldr	r2, [pc, #236]	; c102504 <scale_init+0x1d0>
 c102414:	e5922000 	ldr	r2, [r2]
 c102418:	e3822c01 	orr	r2, r2, #256	; 0x100
 c10241c:	e5832000 	str	r2, [r3]
 c102420:	e59f30e0 	ldr	r3, [pc, #224]	; c102508 <scale_init+0x1d4>
 c102424:	e3a02000 	mov	r2, #0
 c102428:	e5832000 	str	r2, [r3]
 c10242c:	e59f30cc 	ldr	r3, [pc, #204]	; c102500 <scale_init+0x1cc>
 c102430:	e59f20c8 	ldr	r2, [pc, #200]	; c102500 <scale_init+0x1cc>
 c102434:	e5922000 	ldr	r2, [r2]
 c102438:	e3c2240f 	bic	r2, r2, #251658240	; 0xf000000
 c10243c:	e3822402 	orr	r2, r2, #33554432	; 0x2000000
 c102440:	e5832000 	str	r2, [r3]
 c102444:	e59f30b8 	ldr	r3, [pc, #184]	; c102504 <scale_init+0x1d0>
 c102448:	e59f20b4 	ldr	r2, [pc, #180]	; c102504 <scale_init+0x1d0>
 c10244c:	e5922000 	ldr	r2, [r2]
 c102450:	e3822c01 	orr	r2, r2, #256	; 0x100
 c102454:	e5832000 	str	r2, [r3]
 c102458:	e59f30ac 	ldr	r3, [pc, #172]	; c10250c <scale_init+0x1d8>
 c10245c:	e59f20a8 	ldr	r2, [pc, #168]	; c10250c <scale_init+0x1d8>
 c102460:	e5922000 	ldr	r2, [r2]
 c102464:	e3822a0f 	orr	r2, r2, #61440	; 0xf000
 c102468:	e5832000 	str	r2, [r3]
 c10246c:	e59f309c 	ldr	r3, [pc, #156]	; c102510 <scale_init+0x1dc>
 c102470:	e59f2098 	ldr	r2, [pc, #152]	; c102510 <scale_init+0x1dc>
 c102474:	e5922000 	ldr	r2, [r2]
 c102478:	e3c220c0 	bic	r2, r2, #192	; 0xc0
 c10247c:	e5832000 	str	r2, [r3]
 c102480:	e59f308c 	ldr	r3, [pc, #140]	; c102514 <scale_init+0x1e0>
 c102484:	e59f2088 	ldr	r2, [pc, #136]	; c102514 <scale_init+0x1e0>
 c102488:	e5922000 	ldr	r2, [r2]
 c10248c:	e3c224ff 	bic	r2, r2, #-16777216	; 0xff000000
 c102490:	e3822422 	orr	r2, r2, #570425344	; 0x22000000
 c102494:	e5832000 	str	r2, [r3]
 c102498:	e59f3078 	ldr	r3, [pc, #120]	; c102518 <scale_init+0x1e4>
 c10249c:	e59f2078 	ldr	r2, [pc, #120]	; c10251c <scale_init+0x1e8>
 c1024a0:	e5832000 	str	r2, [r3]
 c1024a4:	e59f3074 	ldr	r3, [pc, #116]	; c102520 <scale_init+0x1ec>
 c1024a8:	e3a0200c 	mov	r2, #12
 c1024ac:	e5832000 	str	r2, [r3]
 c1024b0:	e59f306c 	ldr	r3, [pc, #108]	; c102524 <scale_init+0x1f0>
 c1024b4:	e3a02602 	mov	r2, #2097152	; 0x200000
 c1024b8:	e5832000 	str	r2, [r3]
 c1024bc:	e59f3040 	ldr	r3, [pc, #64]	; c102504 <scale_init+0x1d0>
 c1024c0:	e59f203c 	ldr	r2, [pc, #60]	; c102504 <scale_init+0x1d0>
 c1024c4:	e5922000 	ldr	r2, [r2]
 c1024c8:	e3c22642 	bic	r2, r2, #69206016	; 0x4200000
 c1024cc:	e5832000 	str	r2, [r3]
 c1024d0:	e24bd00c 	sub	sp, fp, #12
 c1024d4:	e89d6800 	ldm	sp, {fp, sp, lr}
 c1024d8:	e12fff1e 	bx	lr
 c1024dc:	0c113c6a 	.word	0x0c113c6a
 c1024e0:	0c113c68 	.word	0x0c113c68
 c1024e4:	01d70074 	.word	0x01d70074
 c1024e8:	01d70070 	.word	0x01d70070
 c1024ec:	01d80004 	.word	0x01d80004
 c1024f0:	01d20008 	.word	0x01d20008
 c1024f4:	01d50000 	.word	0x01d50000
 c1024f8:	01d50004 	.word	0x01d50004
 c1024fc:	01d5003c 	.word	0x01d5003c
 c102500:	01d50008 	.word	0x01d50008
 c102504:	01e0000c 	.word	0x01e0000c
 c102508:	01d50048 	.word	0x01d50048
 c10250c:	01d20040 	.word	0x01d20040
 c102510:	01d20048 	.word	0x01d20048
 c102514:	01d20050 	.word	0x01d20050
 c102518:	0c7fff74 	.word	0x0c7fff74
 c10251c:	0c102610 	.word	0x0c102610
 c102520:	01d20054 	.word	0x01d20054
 c102524:	01e00024 	.word	0x01e00024

0c102528 <scale_getWeight>:
 c102528:	e1a0c00d 	mov	ip, sp
 c10252c:	e92dd800 	push	{fp, ip, lr, pc}
 c102530:	e24cb004 	sub	fp, ip, #4
 c102534:	e59f30c4 	ldr	r3, [pc, #196]	; c102600 <scale_getWeight+0xd8>
 c102538:	e5933000 	ldr	r3, [r3]
 c10253c:	e3530000 	cmp	r3, #0
 c102540:	0a000023 	beq	c1025d4 <scale_getWeight+0xac>
 c102544:	e59f30b8 	ldr	r3, [pc, #184]	; c102604 <scale_getWeight+0xdc>
 c102548:	e1d330b0 	ldrh	r3, [r3]
 c10254c:	e1a03803 	lsl	r3, r3, #16
 c102550:	e1a03823 	lsr	r3, r3, #16
 c102554:	e3530000 	cmp	r3, #0
 c102558:	0a00000f 	beq	c10259c <scale_getWeight+0x74>
 c10255c:	e59f309c 	ldr	r3, [pc, #156]	; c102600 <scale_getWeight+0xd8>
 c102560:	e5933000 	ldr	r3, [r3]
 c102564:	e2633c3d 	rsb	r3, r3, #15616	; 0x3d00
 c102568:	e2833009 	add	r3, r3, #9
 c10256c:	e59f2090 	ldr	r2, [pc, #144]	; c102604 <scale_getWeight+0xdc>
 c102570:	e1d220b0 	ldrh	r2, [r2]
 c102574:	e1a02802 	lsl	r2, r2, #16
 c102578:	e1a02822 	lsr	r2, r2, #16
 c10257c:	e0020293 	mul	r2, r3, r2
 c102580:	e59f3080 	ldr	r3, [pc, #128]	; c102608 <scale_getWeight+0xe0>
 c102584:	e0831392 	umull	r1, r3, r2, r3
 c102588:	e1a03623 	lsr	r3, r3, #12
 c10258c:	e1a03223 	lsr	r3, r3, #4
 c102590:	e1a03803 	lsl	r3, r3, #16
 c102594:	e1a03823 	lsr	r3, r3, #16
 c102598:	ea000014 	b	c1025f0 <scale_getWeight+0xc8>
 c10259c:	e59f305c 	ldr	r3, [pc, #92]	; c102600 <scale_getWeight+0xd8>
 c1025a0:	e5933000 	ldr	r3, [r3]
 c1025a4:	e59f2060 	ldr	r2, [pc, #96]	; c10260c <scale_getWeight+0xe4>
 c1025a8:	e1d220b0 	ldrh	r2, [r2]
 c1025ac:	e1a02802 	lsl	r2, r2, #16
 c1025b0:	e1a02822 	lsr	r2, r2, #16
 c1025b4:	e0020293 	mul	r2, r3, r2
 c1025b8:	e59f3048 	ldr	r3, [pc, #72]	; c102608 <scale_getWeight+0xe0>
 c1025bc:	e0831392 	umull	r1, r3, r2, r3
 c1025c0:	e1a03623 	lsr	r3, r3, #12
 c1025c4:	e1a03223 	lsr	r3, r3, #4
 c1025c8:	e1a03803 	lsl	r3, r3, #16
 c1025cc:	e1a03823 	lsr	r3, r3, #16
 c1025d0:	ea000006 	b	c1025f0 <scale_getWeight+0xc8>
 c1025d4:	e59f3028 	ldr	r3, [pc, #40]	; c102604 <scale_getWeight+0xdc>
 c1025d8:	e1d330b0 	ldrh	r3, [r3]
 c1025dc:	e1a03803 	lsl	r3, r3, #16
 c1025e0:	e1a03823 	lsr	r3, r3, #16
 c1025e4:	e1a03223 	lsr	r3, r3, #4
 c1025e8:	e1a03803 	lsl	r3, r3, #16
 c1025ec:	e1a03823 	lsr	r3, r3, #16
 c1025f0:	e1a00003 	mov	r0, r3
 c1025f4:	e24bd00c 	sub	sp, fp, #12
 c1025f8:	e89d6800 	ldm	sp, {fp, sp, lr}
 c1025fc:	e12fff1e 	bx	lr
 c102600:	01d50044 	.word	0x01d50044
 c102604:	0c113c68 	.word	0x0c113c68
 c102608:	431bde83 	.word	0x431bde83
 c10260c:	0c113c6a 	.word	0x0c113c6a

0c102610 <pbs_isr>:
 c102610:	e52dc004 	push	{ip}		; (str ip, [sp, #-4]!)
 c102614:	e1a0c00d 	mov	ip, sp
 c102618:	e92dd80f 	push	{r0, r1, r2, r3, fp, ip, lr, pc}
 c10261c:	e24cb004 	sub	fp, ip, #4
 c102620:	e59f3180 	ldr	r3, [pc, #384]	; c1027a8 <pbs_isr+0x198>
 c102624:	e59f217c 	ldr	r2, [pc, #380]	; c1027a8 <pbs_isr+0x198>
 c102628:	e5922000 	ldr	r2, [r2]
 c10262c:	e3822602 	orr	r2, r2, #2097152	; 0x200000
 c102630:	e5832000 	str	r2, [r3]
 c102634:	e59f3170 	ldr	r3, [pc, #368]	; c1027ac <pbs_isr+0x19c>
 c102638:	e59f2170 	ldr	r2, [pc, #368]	; c1027b0 <pbs_isr+0x1a0>
 c10263c:	e5832000 	str	r2, [r3]
 c102640:	e59f316c 	ldr	r3, [pc, #364]	; c1027b4 <pbs_isr+0x1a4>
 c102644:	e59f2168 	ldr	r2, [pc, #360]	; c1027b4 <pbs_isr+0x1a4>
 c102648:	e5922000 	ldr	r2, [r2]
 c10264c:	e3c2240f 	bic	r2, r2, #251658240	; 0xf000000
 c102650:	e3822402 	orr	r2, r2, #33554432	; 0x2000000
 c102654:	e5832000 	str	r2, [r3]
 c102658:	e59f3154 	ldr	r3, [pc, #340]	; c1027b4 <pbs_isr+0x1a4>
 c10265c:	e59f2150 	ldr	r2, [pc, #336]	; c1027b4 <pbs_isr+0x1a4>
 c102660:	e5922000 	ldr	r2, [r2]
 c102664:	e3c2240f 	bic	r2, r2, #251658240	; 0xf000000
 c102668:	e3822401 	orr	r2, r2, #16777216	; 0x1000000
 c10266c:	e5832000 	str	r2, [r3]
 c102670:	e59f3140 	ldr	r3, [pc, #320]	; c1027b8 <pbs_isr+0x1a8>
 c102674:	e59f2140 	ldr	r2, [pc, #320]	; c1027bc <pbs_isr+0x1ac>
 c102678:	e5832000 	str	r2, [r3]
 c10267c:	e59f313c 	ldr	r3, [pc, #316]	; c1027c0 <pbs_isr+0x1b0>
 c102680:	e3a02c01 	mov	r2, #256	; 0x100
 c102684:	e5832000 	str	r2, [r3]
 c102688:	e59f2118 	ldr	r2, [pc, #280]	; c1027a8 <pbs_isr+0x198>
 c10268c:	e59f3114 	ldr	r3, [pc, #276]	; c1027a8 <pbs_isr+0x198>
 c102690:	e5933000 	ldr	r3, [r3]
 c102694:	e3c33301 	bic	r3, r3, #67108864	; 0x4000000
 c102698:	e3c33c01 	bic	r3, r3, #256	; 0x100
 c10269c:	e5823000 	str	r3, [r2]
 c1026a0:	e59f311c 	ldr	r3, [pc, #284]	; c1027c4 <pbs_isr+0x1b4>
 c1026a4:	e3a0200c 	mov	r2, #12
 c1026a8:	e5832000 	str	r2, [r3]
 c1026ac:	e59f310c 	ldr	r3, [pc, #268]	; c1027c0 <pbs_isr+0x1b0>
 c1026b0:	e3a02602 	mov	r2, #2097152	; 0x200000
 c1026b4:	e5832000 	str	r2, [r3]
 c1026b8:	e59f3108 	ldr	r3, [pc, #264]	; c1027c8 <pbs_isr+0x1b8>
 c1026bc:	e59f20ec 	ldr	r2, [pc, #236]	; c1027b0 <pbs_isr+0x1a0>
 c1026c0:	e5832000 	str	r2, [r3]
 c1026c4:	e59f30e8 	ldr	r3, [pc, #232]	; c1027b4 <pbs_isr+0x1a4>
 c1026c8:	e59f20e4 	ldr	r2, [pc, #228]	; c1027b4 <pbs_isr+0x1a4>
 c1026cc:	e5922000 	ldr	r2, [r2]
 c1026d0:	e3c2260f 	bic	r2, r2, #15728640	; 0xf00000
 c1026d4:	e3822602 	orr	r2, r2, #2097152	; 0x200000
 c1026d8:	e5832000 	str	r2, [r3]
 c1026dc:	e59f30d0 	ldr	r3, [pc, #208]	; c1027b4 <pbs_isr+0x1a4>
 c1026e0:	e59f20cc 	ldr	r2, [pc, #204]	; c1027b4 <pbs_isr+0x1a4>
 c1026e4:	e5922000 	ldr	r2, [r2]
 c1026e8:	e3c2260f 	bic	r2, r2, #15728640	; 0xf00000
 c1026ec:	e3822601 	orr	r2, r2, #1048576	; 0x100000
 c1026f0:	e5832000 	str	r2, [r3]
 c1026f4:	e1a00000 	nop			; (mov r0, r0)
 c1026f8:	e59f30cc 	ldr	r3, [pc, #204]	; c1027cc <pbs_isr+0x1bc>
 c1026fc:	e5933000 	ldr	r3, [r3]
 c102700:	e3530000 	cmp	r3, #0
 c102704:	0afffffb 	beq	c1026f8 <pbs_isr+0xe8>
 c102708:	e59f30c0 	ldr	r3, [pc, #192]	; c1027d0 <pbs_isr+0x1c0>
 c10270c:	e1d330b0 	ldrh	r3, [r3]
 c102710:	e1a03803 	lsl	r3, r3, #16
 c102714:	e1a03823 	lsr	r3, r3, #16
 c102718:	e3530000 	cmp	r3, #0
 c10271c:	1a00000f 	bne	c102760 <pbs_isr+0x150>
 c102720:	e59f30ac 	ldr	r3, [pc, #172]	; c1027d4 <pbs_isr+0x1c4>
 c102724:	e3a02000 	mov	r2, #0
 c102728:	e1c320b0 	strh	r2, [r3]
 c10272c:	e3a00000 	mov	r0, #0
 c102730:	eb000047 	bl	c102854 <random>
 c102734:	e1a03000 	mov	r3, r0
 c102738:	e1a03803 	lsl	r3, r3, #16
 c10273c:	e1a02823 	lsr	r2, r3, #16
 c102740:	e59f3088 	ldr	r3, [pc, #136]	; c1027d0 <pbs_isr+0x1c0>
 c102744:	e1c320b0 	strh	r2, [r3]
 c102748:	e59f3088 	ldr	r3, [pc, #136]	; c1027d8 <pbs_isr+0x1c8>
 c10274c:	e59f2084 	ldr	r2, [pc, #132]	; c1027d8 <pbs_isr+0x1c8>
 c102750:	e5922000 	ldr	r2, [r2]
 c102754:	e3c22c06 	bic	r2, r2, #1536	; 0x600
 c102758:	e5832000 	str	r2, [r3]
 c10275c:	ea00000d 	b	c102798 <pbs_isr+0x188>
 c102760:	e59f3068 	ldr	r3, [pc, #104]	; c1027d0 <pbs_isr+0x1c0>
 c102764:	e1d330b0 	ldrh	r3, [r3]
 c102768:	e1a03803 	lsl	r3, r3, #16
 c10276c:	e1a02823 	lsr	r2, r3, #16
 c102770:	e59f305c 	ldr	r3, [pc, #92]	; c1027d4 <pbs_isr+0x1c4>
 c102774:	e1c320b0 	strh	r2, [r3]
 c102778:	e59f3050 	ldr	r3, [pc, #80]	; c1027d0 <pbs_isr+0x1c0>
 c10277c:	e3a02000 	mov	r2, #0
 c102780:	e1c320b0 	strh	r2, [r3]
 c102784:	e59f304c 	ldr	r3, [pc, #76]	; c1027d8 <pbs_isr+0x1c8>
 c102788:	e59f2048 	ldr	r2, [pc, #72]	; c1027d8 <pbs_isr+0x1c8>
 c10278c:	e5922000 	ldr	r2, [r2]
 c102790:	e3822c06 	orr	r2, r2, #1536	; 0x600
 c102794:	e5832000 	str	r2, [r3]
 c102798:	e24bd01c 	sub	sp, fp, #28
 c10279c:	e89d680f 	ldm	sp, {r0, r1, r2, r3, fp, sp, lr}
 c1027a0:	e49dc004 	pop	{ip}		; (ldr ip, [sp], #4)
 c1027a4:	e25ef004 	subs	pc, lr, #4
 c1027a8:	01e0000c 	.word	0x01e0000c
 c1027ac:	01d50048 	.word	0x01d50048
 c1027b0:	00003d09 	.word	0x00003d09
 c1027b4:	01d50008 	.word	0x01d50008
 c1027b8:	0c7fff40 	.word	0x0c7fff40
 c1027bc:	0c1027dc 	.word	0x0c1027dc
 c1027c0:	01e00024 	.word	0x01e00024
 c1027c4:	01d20054 	.word	0x01d20054
 c1027c8:	01d5003c 	.word	0x01d5003c
 c1027cc:	01d50044 	.word	0x01d50044
 c1027d0:	0c113c68 	.word	0x0c113c68
 c1027d4:	0c113c6a 	.word	0x0c113c6a
 c1027d8:	01d2000c 	.word	0x01d2000c

0c1027dc <timer5_isr>:
 c1027dc:	e52dc004 	push	{ip}		; (str ip, [sp, #-4]!)
 c1027e0:	e1a0c00d 	mov	ip, sp
 c1027e4:	e92dd80c 	push	{r2, r3, fp, ip, lr, pc}
 c1027e8:	e24cb004 	sub	fp, ip, #4
 c1027ec:	e59f304c 	ldr	r3, [pc, #76]	; c102840 <timer5_isr+0x64>
 c1027f0:	e59f204c 	ldr	r2, [pc, #76]	; c102844 <timer5_isr+0x68>
 c1027f4:	e5832000 	str	r2, [r3]
 c1027f8:	e59f3048 	ldr	r3, [pc, #72]	; c102848 <timer5_isr+0x6c>
 c1027fc:	e3a0200c 	mov	r2, #12
 c102800:	e5832000 	str	r2, [r3]
 c102804:	e59f3040 	ldr	r3, [pc, #64]	; c10284c <timer5_isr+0x70>
 c102808:	e3a02602 	mov	r2, #2097152	; 0x200000
 c10280c:	e5832000 	str	r2, [r3]
 c102810:	e59f3038 	ldr	r3, [pc, #56]	; c102850 <timer5_isr+0x74>
 c102814:	e59f2034 	ldr	r2, [pc, #52]	; c102850 <timer5_isr+0x74>
 c102818:	e5922000 	ldr	r2, [r2]
 c10281c:	e3c22642 	bic	r2, r2, #69206016	; 0x4200000
 c102820:	e5832000 	str	r2, [r3]
 c102824:	e59f3020 	ldr	r3, [pc, #32]	; c10284c <timer5_isr+0x70>
 c102828:	e3a02c01 	mov	r2, #256	; 0x100
 c10282c:	e5832000 	str	r2, [r3]
 c102830:	e24bd014 	sub	sp, fp, #20
 c102834:	e89d680c 	ldm	sp, {r2, r3, fp, sp, lr}
 c102838:	e49dc004 	pop	{ip}		; (ldr ip, [sp], #4)
 c10283c:	e25ef004 	subs	pc, lr, #4
 c102840:	0c7fff74 	.word	0x0c7fff74
 c102844:	0c102610 	.word	0x0c102610
 c102848:	01d20054 	.word	0x01d20054
 c10284c:	01e00024 	.word	0x01e00024
 c102850:	01e0000c 	.word	0x01e0000c

0c102854 <random>:
 c102854:	e1a0c00d 	mov	ip, sp
 c102858:	e92dd800 	push	{fp, ip, lr, pc}
 c10285c:	e24cb004 	sub	fp, ip, #4
 c102860:	e24dd010 	sub	sp, sp, #16
 c102864:	e50b0018 	str	r0, [fp, #-24]	; 0xffffffe8
 c102868:	e51b3018 	ldr	r3, [fp, #-24]	; 0xffffffe8
 c10286c:	e3530000 	cmp	r3, #0
 c102870:	0a000002 	beq	c102880 <random+0x2c>
 c102874:	e59f3084 	ldr	r3, [pc, #132]	; c102900 <random+0xac>
 c102878:	e51b2018 	ldr	r2, [fp, #-24]	; 0xffffffe8
 c10287c:	e5832000 	str	r2, [r3]
 c102880:	e59f3078 	ldr	r3, [pc, #120]	; c102900 <random+0xac>
 c102884:	e5933000 	ldr	r3, [r3]
 c102888:	e1a02fa3 	lsr	r2, r3, #31
 c10288c:	e59f306c 	ldr	r3, [pc, #108]	; c102900 <random+0xac>
 c102890:	e5933000 	ldr	r3, [r3]
 c102894:	e1a03aa3 	lsr	r3, r3, #21
 c102898:	e0222003 	eor	r2, r2, r3
 c10289c:	e59f305c 	ldr	r3, [pc, #92]	; c102900 <random+0xac>
 c1028a0:	e5933000 	ldr	r3, [r3]
 c1028a4:	e1a030a3 	lsr	r3, r3, #1
 c1028a8:	e0222003 	eor	r2, r2, r3
 c1028ac:	e59f304c 	ldr	r3, [pc, #76]	; c102900 <random+0xac>
 c1028b0:	e5933000 	ldr	r3, [r3]
 c1028b4:	e0223003 	eor	r3, r2, r3
 c1028b8:	e2033001 	and	r3, r3, #1
 c1028bc:	e3530000 	cmp	r3, #0
 c1028c0:	13a03000 	movne	r3, #0
 c1028c4:	03a03001 	moveq	r3, #1
 c1028c8:	e50b3010 	str	r3, [fp, #-16]
 c1028cc:	e59f302c 	ldr	r3, [pc, #44]	; c102900 <random+0xac>
 c1028d0:	e5933000 	ldr	r3, [r3]
 c1028d4:	e1a02083 	lsl	r2, r3, #1
 c1028d8:	e51b3010 	ldr	r3, [fp, #-16]
 c1028dc:	e1822003 	orr	r2, r2, r3
 c1028e0:	e59f3018 	ldr	r3, [pc, #24]	; c102900 <random+0xac>
 c1028e4:	e5832000 	str	r2, [r3]
 c1028e8:	e59f3010 	ldr	r3, [pc, #16]	; c102900 <random+0xac>
 c1028ec:	e5933000 	ldr	r3, [r3]
 c1028f0:	e1a00003 	mov	r0, r3
 c1028f4:	e24bd00c 	sub	sp, fp, #12
 c1028f8:	e89d6800 	ldm	sp, {fp, sp, lr}
 c1028fc:	e12fff1e 	bx	lr
 c102900:	0c113c6c 	.word	0x0c113c6c

0c102904 <keypad_init>:
 c102904:	e1a0c00d 	mov	ip, sp
 c102908:	e92dd800 	push	{fp, ip, lr, pc}
 c10290c:	e24cb004 	sub	fp, ip, #4
 c102910:	eb000cdc 	bl	c105c88 <timers_init>
 c102914:	e24bd00c 	sub	sp, fp, #12
 c102918:	e89d6800 	ldm	sp, {fp, sp, lr}
 c10291c:	e12fff1e 	bx	lr

0c102920 <keypad_scan>:
 c102920:	e1a0c00d 	mov	ip, sp
 c102924:	e92dd800 	push	{fp, ip, lr, pc}
 c102928:	e24cb004 	sub	fp, ip, #4
 c10292c:	e24dd008 	sub	sp, sp, #8
 c102930:	e59f31fc 	ldr	r3, [pc, #508]	; c102b34 <keypad_scan+0x214>
 c102934:	e5d33000 	ldrb	r3, [r3]
 c102938:	e54b300d 	strb	r3, [fp, #-13]
 c10293c:	e55b300d 	ldrb	r3, [fp, #-13]
 c102940:	e203300f 	and	r3, r3, #15
 c102944:	e353000f 	cmp	r3, #15
 c102948:	0a000017 	beq	c1029ac <keypad_scan+0x8c>
 c10294c:	e55b300d 	ldrb	r3, [fp, #-13]
 c102950:	e2033008 	and	r3, r3, #8
 c102954:	e3530000 	cmp	r3, #0
 c102958:	1a000001 	bne	c102964 <keypad_scan+0x44>
 c10295c:	e3a03000 	mov	r3, #0
 c102960:	ea00006f 	b	c102b24 <keypad_scan+0x204>
 c102964:	e55b300d 	ldrb	r3, [fp, #-13]
 c102968:	e2033004 	and	r3, r3, #4
 c10296c:	e3530000 	cmp	r3, #0
 c102970:	1a000001 	bne	c10297c <keypad_scan+0x5c>
 c102974:	e3a03001 	mov	r3, #1
 c102978:	ea000069 	b	c102b24 <keypad_scan+0x204>
 c10297c:	e55b300d 	ldrb	r3, [fp, #-13]
 c102980:	e2033002 	and	r3, r3, #2
 c102984:	e3530000 	cmp	r3, #0
 c102988:	1a000001 	bne	c102994 <keypad_scan+0x74>
 c10298c:	e3a03002 	mov	r3, #2
 c102990:	ea000063 	b	c102b24 <keypad_scan+0x204>
 c102994:	e55b300d 	ldrb	r3, [fp, #-13]
 c102998:	e2033001 	and	r3, r3, #1
 c10299c:	e3530000 	cmp	r3, #0
 c1029a0:	1a000001 	bne	c1029ac <keypad_scan+0x8c>
 c1029a4:	e3a03003 	mov	r3, #3
 c1029a8:	ea00005d 	b	c102b24 <keypad_scan+0x204>
 c1029ac:	e59f3184 	ldr	r3, [pc, #388]	; c102b38 <keypad_scan+0x218>
 c1029b0:	e5d33000 	ldrb	r3, [r3]
 c1029b4:	e54b300d 	strb	r3, [fp, #-13]
 c1029b8:	e55b300d 	ldrb	r3, [fp, #-13]
 c1029bc:	e203300f 	and	r3, r3, #15
 c1029c0:	e353000f 	cmp	r3, #15
 c1029c4:	0a000017 	beq	c102a28 <keypad_scan+0x108>
 c1029c8:	e55b300d 	ldrb	r3, [fp, #-13]
 c1029cc:	e2033008 	and	r3, r3, #8
 c1029d0:	e3530000 	cmp	r3, #0
 c1029d4:	1a000001 	bne	c1029e0 <keypad_scan+0xc0>
 c1029d8:	e3a03004 	mov	r3, #4
 c1029dc:	ea000050 	b	c102b24 <keypad_scan+0x204>
 c1029e0:	e55b300d 	ldrb	r3, [fp, #-13]
 c1029e4:	e2033004 	and	r3, r3, #4
 c1029e8:	e3530000 	cmp	r3, #0
 c1029ec:	1a000001 	bne	c1029f8 <keypad_scan+0xd8>
 c1029f0:	e3a03005 	mov	r3, #5
 c1029f4:	ea00004a 	b	c102b24 <keypad_scan+0x204>
 c1029f8:	e55b300d 	ldrb	r3, [fp, #-13]
 c1029fc:	e2033002 	and	r3, r3, #2
 c102a00:	e3530000 	cmp	r3, #0
 c102a04:	1a000001 	bne	c102a10 <keypad_scan+0xf0>
 c102a08:	e3a03006 	mov	r3, #6
 c102a0c:	ea000044 	b	c102b24 <keypad_scan+0x204>
 c102a10:	e55b300d 	ldrb	r3, [fp, #-13]
 c102a14:	e2033001 	and	r3, r3, #1
 c102a18:	e3530000 	cmp	r3, #0
 c102a1c:	1a000001 	bne	c102a28 <keypad_scan+0x108>
 c102a20:	e3a03007 	mov	r3, #7
 c102a24:	ea00003e 	b	c102b24 <keypad_scan+0x204>
 c102a28:	e59f310c 	ldr	r3, [pc, #268]	; c102b3c <keypad_scan+0x21c>
 c102a2c:	e5d33000 	ldrb	r3, [r3]
 c102a30:	e54b300d 	strb	r3, [fp, #-13]
 c102a34:	e55b300d 	ldrb	r3, [fp, #-13]
 c102a38:	e203300f 	and	r3, r3, #15
 c102a3c:	e353000f 	cmp	r3, #15
 c102a40:	0a000017 	beq	c102aa4 <keypad_scan+0x184>
 c102a44:	e55b300d 	ldrb	r3, [fp, #-13]
 c102a48:	e2033008 	and	r3, r3, #8
 c102a4c:	e3530000 	cmp	r3, #0
 c102a50:	1a000001 	bne	c102a5c <keypad_scan+0x13c>
 c102a54:	e3a03008 	mov	r3, #8
 c102a58:	ea000031 	b	c102b24 <keypad_scan+0x204>
 c102a5c:	e55b300d 	ldrb	r3, [fp, #-13]
 c102a60:	e2033004 	and	r3, r3, #4
 c102a64:	e3530000 	cmp	r3, #0
 c102a68:	1a000001 	bne	c102a74 <keypad_scan+0x154>
 c102a6c:	e3a03009 	mov	r3, #9
 c102a70:	ea00002b 	b	c102b24 <keypad_scan+0x204>
 c102a74:	e55b300d 	ldrb	r3, [fp, #-13]
 c102a78:	e2033002 	and	r3, r3, #2
 c102a7c:	e3530000 	cmp	r3, #0
 c102a80:	1a000001 	bne	c102a8c <keypad_scan+0x16c>
 c102a84:	e3a0300a 	mov	r3, #10
 c102a88:	ea000025 	b	c102b24 <keypad_scan+0x204>
 c102a8c:	e55b300d 	ldrb	r3, [fp, #-13]
 c102a90:	e2033001 	and	r3, r3, #1
 c102a94:	e3530000 	cmp	r3, #0
 c102a98:	1a000001 	bne	c102aa4 <keypad_scan+0x184>
 c102a9c:	e3a0300b 	mov	r3, #11
 c102aa0:	ea00001f 	b	c102b24 <keypad_scan+0x204>
 c102aa4:	e59f3094 	ldr	r3, [pc, #148]	; c102b40 <keypad_scan+0x220>
 c102aa8:	e5d33000 	ldrb	r3, [r3]
 c102aac:	e54b300d 	strb	r3, [fp, #-13]
 c102ab0:	e55b300d 	ldrb	r3, [fp, #-13]
 c102ab4:	e203300f 	and	r3, r3, #15
 c102ab8:	e353000f 	cmp	r3, #15
 c102abc:	0a000017 	beq	c102b20 <keypad_scan+0x200>
 c102ac0:	e55b300d 	ldrb	r3, [fp, #-13]
 c102ac4:	e2033008 	and	r3, r3, #8
 c102ac8:	e3530000 	cmp	r3, #0
 c102acc:	1a000001 	bne	c102ad8 <keypad_scan+0x1b8>
 c102ad0:	e3a0300c 	mov	r3, #12
 c102ad4:	ea000012 	b	c102b24 <keypad_scan+0x204>
 c102ad8:	e55b300d 	ldrb	r3, [fp, #-13]
 c102adc:	e2033004 	and	r3, r3, #4
 c102ae0:	e3530000 	cmp	r3, #0
 c102ae4:	1a000001 	bne	c102af0 <keypad_scan+0x1d0>
 c102ae8:	e3a0300d 	mov	r3, #13
 c102aec:	ea00000c 	b	c102b24 <keypad_scan+0x204>
 c102af0:	e55b300d 	ldrb	r3, [fp, #-13]
 c102af4:	e2033002 	and	r3, r3, #2
 c102af8:	e3530000 	cmp	r3, #0
 c102afc:	1a000001 	bne	c102b08 <keypad_scan+0x1e8>
 c102b00:	e3a0300e 	mov	r3, #14
 c102b04:	ea000006 	b	c102b24 <keypad_scan+0x204>
 c102b08:	e55b300d 	ldrb	r3, [fp, #-13]
 c102b0c:	e2033001 	and	r3, r3, #1
 c102b10:	e3530000 	cmp	r3, #0
 c102b14:	1a000001 	bne	c102b20 <keypad_scan+0x200>
 c102b18:	e3a0300f 	mov	r3, #15
 c102b1c:	ea000000 	b	c102b24 <keypad_scan+0x204>
 c102b20:	e3a030ff 	mov	r3, #255	; 0xff
 c102b24:	e1a00003 	mov	r0, r3
 c102b28:	e24bd00c 	sub	sp, fp, #12
 c102b2c:	e89d6800 	ldm	sp, {fp, sp, lr}
 c102b30:	e12fff1e 	bx	lr
 c102b34:	0600001c 	.word	0x0600001c
 c102b38:	060000fb 	.word	0x060000fb
 c102b3c:	060000f7 	.word	0x060000f7
 c102b40:	060000ef 	.word	0x060000ef

0c102b44 <keypad_status>:
 c102b44:	e1a0c00d 	mov	ip, sp
 c102b48:	e92dd800 	push	{fp, ip, lr, pc}
 c102b4c:	e24cb004 	sub	fp, ip, #4
 c102b50:	e24dd008 	sub	sp, sp, #8
 c102b54:	e1a03000 	mov	r3, r0
 c102b58:	e54b300d 	strb	r3, [fp, #-13]
 c102b5c:	e55b300d 	ldrb	r3, [fp, #-13]
 c102b60:	e3530000 	cmp	r3, #0
 c102b64:	1a000006 	bne	c102b84 <keypad_status+0x40>
 c102b68:	e59f3270 	ldr	r3, [pc, #624]	; c102de0 <keypad_status+0x29c>
 c102b6c:	e5d33000 	ldrb	r3, [r3]
 c102b70:	e20330ff 	and	r3, r3, #255	; 0xff
 c102b74:	e2033008 	and	r3, r3, #8
 c102b78:	e1a031c3 	asr	r3, r3, #3
 c102b7c:	e20330ff 	and	r3, r3, #255	; 0xff
 c102b80:	ea000092 	b	c102dd0 <keypad_status+0x28c>
 c102b84:	e55b300d 	ldrb	r3, [fp, #-13]
 c102b88:	e3530001 	cmp	r3, #1
 c102b8c:	1a000006 	bne	c102bac <keypad_status+0x68>
 c102b90:	e59f3248 	ldr	r3, [pc, #584]	; c102de0 <keypad_status+0x29c>
 c102b94:	e5d33000 	ldrb	r3, [r3]
 c102b98:	e20330ff 	and	r3, r3, #255	; 0xff
 c102b9c:	e2033004 	and	r3, r3, #4
 c102ba0:	e1a03143 	asr	r3, r3, #2
 c102ba4:	e20330ff 	and	r3, r3, #255	; 0xff
 c102ba8:	ea000088 	b	c102dd0 <keypad_status+0x28c>
 c102bac:	e55b300d 	ldrb	r3, [fp, #-13]
 c102bb0:	e3530002 	cmp	r3, #2
 c102bb4:	1a000006 	bne	c102bd4 <keypad_status+0x90>
 c102bb8:	e59f3220 	ldr	r3, [pc, #544]	; c102de0 <keypad_status+0x29c>
 c102bbc:	e5d33000 	ldrb	r3, [r3]
 c102bc0:	e20330ff 	and	r3, r3, #255	; 0xff
 c102bc4:	e2033002 	and	r3, r3, #2
 c102bc8:	e1a030c3 	asr	r3, r3, #1
 c102bcc:	e20330ff 	and	r3, r3, #255	; 0xff
 c102bd0:	ea00007e 	b	c102dd0 <keypad_status+0x28c>
 c102bd4:	e55b300d 	ldrb	r3, [fp, #-13]
 c102bd8:	e3530003 	cmp	r3, #3
 c102bdc:	1a000005 	bne	c102bf8 <keypad_status+0xb4>
 c102be0:	e59f31f8 	ldr	r3, [pc, #504]	; c102de0 <keypad_status+0x29c>
 c102be4:	e5d33000 	ldrb	r3, [r3]
 c102be8:	e20330ff 	and	r3, r3, #255	; 0xff
 c102bec:	e2033001 	and	r3, r3, #1
 c102bf0:	e20330ff 	and	r3, r3, #255	; 0xff
 c102bf4:	ea000075 	b	c102dd0 <keypad_status+0x28c>
 c102bf8:	e55b300d 	ldrb	r3, [fp, #-13]
 c102bfc:	e3530004 	cmp	r3, #4
 c102c00:	1a000006 	bne	c102c20 <keypad_status+0xdc>
 c102c04:	e59f31d8 	ldr	r3, [pc, #472]	; c102de4 <keypad_status+0x2a0>
 c102c08:	e5d33000 	ldrb	r3, [r3]
 c102c0c:	e20330ff 	and	r3, r3, #255	; 0xff
 c102c10:	e2033008 	and	r3, r3, #8
 c102c14:	e1a031c3 	asr	r3, r3, #3
 c102c18:	e20330ff 	and	r3, r3, #255	; 0xff
 c102c1c:	ea00006b 	b	c102dd0 <keypad_status+0x28c>
 c102c20:	e55b300d 	ldrb	r3, [fp, #-13]
 c102c24:	e3530005 	cmp	r3, #5
 c102c28:	1a000006 	bne	c102c48 <keypad_status+0x104>
 c102c2c:	e59f31b0 	ldr	r3, [pc, #432]	; c102de4 <keypad_status+0x2a0>
 c102c30:	e5d33000 	ldrb	r3, [r3]
 c102c34:	e20330ff 	and	r3, r3, #255	; 0xff
 c102c38:	e2033004 	and	r3, r3, #4
 c102c3c:	e1a03143 	asr	r3, r3, #2
 c102c40:	e20330ff 	and	r3, r3, #255	; 0xff
 c102c44:	ea000061 	b	c102dd0 <keypad_status+0x28c>
 c102c48:	e55b300d 	ldrb	r3, [fp, #-13]
 c102c4c:	e3530006 	cmp	r3, #6
 c102c50:	1a000006 	bne	c102c70 <keypad_status+0x12c>
 c102c54:	e59f3188 	ldr	r3, [pc, #392]	; c102de4 <keypad_status+0x2a0>
 c102c58:	e5d33000 	ldrb	r3, [r3]
 c102c5c:	e20330ff 	and	r3, r3, #255	; 0xff
 c102c60:	e2033002 	and	r3, r3, #2
 c102c64:	e1a030c3 	asr	r3, r3, #1
 c102c68:	e20330ff 	and	r3, r3, #255	; 0xff
 c102c6c:	ea000057 	b	c102dd0 <keypad_status+0x28c>
 c102c70:	e55b300d 	ldrb	r3, [fp, #-13]
 c102c74:	e3530007 	cmp	r3, #7
 c102c78:	1a000005 	bne	c102c94 <keypad_status+0x150>
 c102c7c:	e59f3160 	ldr	r3, [pc, #352]	; c102de4 <keypad_status+0x2a0>
 c102c80:	e5d33000 	ldrb	r3, [r3]
 c102c84:	e20330ff 	and	r3, r3, #255	; 0xff
 c102c88:	e2033001 	and	r3, r3, #1
 c102c8c:	e20330ff 	and	r3, r3, #255	; 0xff
 c102c90:	ea00004e 	b	c102dd0 <keypad_status+0x28c>
 c102c94:	e55b300d 	ldrb	r3, [fp, #-13]
 c102c98:	e3530008 	cmp	r3, #8
 c102c9c:	1a000006 	bne	c102cbc <keypad_status+0x178>
 c102ca0:	e59f3140 	ldr	r3, [pc, #320]	; c102de8 <keypad_status+0x2a4>
 c102ca4:	e5d33000 	ldrb	r3, [r3]
 c102ca8:	e20330ff 	and	r3, r3, #255	; 0xff
 c102cac:	e2033008 	and	r3, r3, #8
 c102cb0:	e1a031c3 	asr	r3, r3, #3
 c102cb4:	e20330ff 	and	r3, r3, #255	; 0xff
 c102cb8:	ea000044 	b	c102dd0 <keypad_status+0x28c>
 c102cbc:	e55b300d 	ldrb	r3, [fp, #-13]
 c102cc0:	e3530009 	cmp	r3, #9
 c102cc4:	1a000006 	bne	c102ce4 <keypad_status+0x1a0>
 c102cc8:	e59f3118 	ldr	r3, [pc, #280]	; c102de8 <keypad_status+0x2a4>
 c102ccc:	e5d33000 	ldrb	r3, [r3]
 c102cd0:	e20330ff 	and	r3, r3, #255	; 0xff
 c102cd4:	e2033004 	and	r3, r3, #4
 c102cd8:	e1a03143 	asr	r3, r3, #2
 c102cdc:	e20330ff 	and	r3, r3, #255	; 0xff
 c102ce0:	ea00003a 	b	c102dd0 <keypad_status+0x28c>
 c102ce4:	e55b300d 	ldrb	r3, [fp, #-13]
 c102ce8:	e353000a 	cmp	r3, #10
 c102cec:	1a000006 	bne	c102d0c <keypad_status+0x1c8>
 c102cf0:	e59f30f0 	ldr	r3, [pc, #240]	; c102de8 <keypad_status+0x2a4>
 c102cf4:	e5d33000 	ldrb	r3, [r3]
 c102cf8:	e20330ff 	and	r3, r3, #255	; 0xff
 c102cfc:	e2033002 	and	r3, r3, #2
 c102d00:	e1a030c3 	asr	r3, r3, #1
 c102d04:	e20330ff 	and	r3, r3, #255	; 0xff
 c102d08:	ea000030 	b	c102dd0 <keypad_status+0x28c>
 c102d0c:	e55b300d 	ldrb	r3, [fp, #-13]
 c102d10:	e353000b 	cmp	r3, #11
 c102d14:	1a000005 	bne	c102d30 <keypad_status+0x1ec>
 c102d18:	e59f30c8 	ldr	r3, [pc, #200]	; c102de8 <keypad_status+0x2a4>
 c102d1c:	e5d33000 	ldrb	r3, [r3]
 c102d20:	e20330ff 	and	r3, r3, #255	; 0xff
 c102d24:	e2033001 	and	r3, r3, #1
 c102d28:	e20330ff 	and	r3, r3, #255	; 0xff
 c102d2c:	ea000027 	b	c102dd0 <keypad_status+0x28c>
 c102d30:	e55b300d 	ldrb	r3, [fp, #-13]
 c102d34:	e353000c 	cmp	r3, #12
 c102d38:	1a000006 	bne	c102d58 <keypad_status+0x214>
 c102d3c:	e59f30a8 	ldr	r3, [pc, #168]	; c102dec <keypad_status+0x2a8>
 c102d40:	e5d33000 	ldrb	r3, [r3]
 c102d44:	e20330ff 	and	r3, r3, #255	; 0xff
 c102d48:	e2033008 	and	r3, r3, #8
 c102d4c:	e1a031c3 	asr	r3, r3, #3
 c102d50:	e20330ff 	and	r3, r3, #255	; 0xff
 c102d54:	ea00001d 	b	c102dd0 <keypad_status+0x28c>
 c102d58:	e55b300d 	ldrb	r3, [fp, #-13]
 c102d5c:	e353000d 	cmp	r3, #13
 c102d60:	1a000006 	bne	c102d80 <keypad_status+0x23c>
 c102d64:	e59f3080 	ldr	r3, [pc, #128]	; c102dec <keypad_status+0x2a8>
 c102d68:	e5d33000 	ldrb	r3, [r3]
 c102d6c:	e20330ff 	and	r3, r3, #255	; 0xff
 c102d70:	e2033004 	and	r3, r3, #4
 c102d74:	e1a03143 	asr	r3, r3, #2
 c102d78:	e20330ff 	and	r3, r3, #255	; 0xff
 c102d7c:	ea000013 	b	c102dd0 <keypad_status+0x28c>
 c102d80:	e55b300d 	ldrb	r3, [fp, #-13]
 c102d84:	e353000e 	cmp	r3, #14
 c102d88:	1a000006 	bne	c102da8 <keypad_status+0x264>
 c102d8c:	e59f3058 	ldr	r3, [pc, #88]	; c102dec <keypad_status+0x2a8>
 c102d90:	e5d33000 	ldrb	r3, [r3]
 c102d94:	e20330ff 	and	r3, r3, #255	; 0xff
 c102d98:	e2033002 	and	r3, r3, #2
 c102d9c:	e1a030c3 	asr	r3, r3, #1
 c102da0:	e20330ff 	and	r3, r3, #255	; 0xff
 c102da4:	ea000009 	b	c102dd0 <keypad_status+0x28c>
 c102da8:	e55b300d 	ldrb	r3, [fp, #-13]
 c102dac:	e353000f 	cmp	r3, #15
 c102db0:	1a000005 	bne	c102dcc <keypad_status+0x288>
 c102db4:	e59f3030 	ldr	r3, [pc, #48]	; c102dec <keypad_status+0x2a8>
 c102db8:	e5d33000 	ldrb	r3, [r3]
 c102dbc:	e20330ff 	and	r3, r3, #255	; 0xff
 c102dc0:	e2033001 	and	r3, r3, #1
 c102dc4:	e20330ff 	and	r3, r3, #255	; 0xff
 c102dc8:	ea000000 	b	c102dd0 <keypad_status+0x28c>
 c102dcc:	e3a030ff 	mov	r3, #255	; 0xff
 c102dd0:	e1a00003 	mov	r0, r3
 c102dd4:	e24bd00c 	sub	sp, fp, #12
 c102dd8:	e89d6800 	ldm	sp, {fp, sp, lr}
 c102ddc:	e12fff1e 	bx	lr
 c102de0:	0600001c 	.word	0x0600001c
 c102de4:	0600001a 	.word	0x0600001a
 c102de8:	06000016 	.word	0x06000016
 c102dec:	0600000e 	.word	0x0600000e

0c102df0 <keypad_wait_keydown>:
 c102df0:	e1a0c00d 	mov	ip, sp
 c102df4:	e92dd800 	push	{fp, ip, lr, pc}
 c102df8:	e24cb004 	sub	fp, ip, #4
 c102dfc:	e24dd008 	sub	sp, sp, #8
 c102e00:	e1a03000 	mov	r3, r0
 c102e04:	e54b300d 	strb	r3, [fp, #-13]
 c102e08:	e1a00000 	nop			; (mov r0, r0)
 c102e0c:	ebfffec3 	bl	c102920 <keypad_scan>
 c102e10:	e1a03000 	mov	r3, r0
 c102e14:	e55b200d 	ldrb	r2, [fp, #-13]
 c102e18:	e1520003 	cmp	r2, r3
 c102e1c:	1afffffa 	bne	c102e0c <keypad_wait_keydown+0x1c>
 c102e20:	e3a0001e 	mov	r0, #30
 c102e24:	eb000c40 	bl	c105f2c <sw_delay_ms>
 c102e28:	e24bd00c 	sub	sp, fp, #12
 c102e2c:	e89d6800 	ldm	sp, {fp, sp, lr}
 c102e30:	e12fff1e 	bx	lr

0c102e34 <keypad_wait_keyup>:
 c102e34:	e1a0c00d 	mov	ip, sp
 c102e38:	e92dd800 	push	{fp, ip, lr, pc}
 c102e3c:	e24cb004 	sub	fp, ip, #4
 c102e40:	e24dd008 	sub	sp, sp, #8
 c102e44:	e1a03000 	mov	r3, r0
 c102e48:	e54b300d 	strb	r3, [fp, #-13]
 c102e4c:	e55b300d 	ldrb	r3, [fp, #-13]
 c102e50:	e1a00003 	mov	r0, r3
 c102e54:	ebffffe5 	bl	c102df0 <keypad_wait_keydown>
 c102e58:	e1a00000 	nop			; (mov r0, r0)
 c102e5c:	ebfffeaf 	bl	c102920 <keypad_scan>
 c102e60:	e1a03000 	mov	r3, r0
 c102e64:	e55b200d 	ldrb	r2, [fp, #-13]
 c102e68:	e1520003 	cmp	r2, r3
 c102e6c:	0afffffa 	beq	c102e5c <keypad_wait_keyup+0x28>
 c102e70:	e3a00064 	mov	r0, #100	; 0x64
 c102e74:	eb000c2c 	bl	c105f2c <sw_delay_ms>
 c102e78:	e24bd00c 	sub	sp, fp, #12
 c102e7c:	e89d6800 	ldm	sp, {fp, sp, lr}
 c102e80:	e12fff1e 	bx	lr

0c102e84 <keypad_wait_any_keydown>:
 c102e84:	e1a0c00d 	mov	ip, sp
 c102e88:	e92dd800 	push	{fp, ip, lr, pc}
 c102e8c:	e24cb004 	sub	fp, ip, #4
 c102e90:	e1a00000 	nop			; (mov r0, r0)
 c102e94:	ebfffea1 	bl	c102920 <keypad_scan>
 c102e98:	e1a03000 	mov	r3, r0
 c102e9c:	e35300ff 	cmp	r3, #255	; 0xff
 c102ea0:	0afffffb 	beq	c102e94 <keypad_wait_any_keydown+0x10>
 c102ea4:	e3a0001e 	mov	r0, #30
 c102ea8:	eb000c1f 	bl	c105f2c <sw_delay_ms>
 c102eac:	e24bd00c 	sub	sp, fp, #12
 c102eb0:	e89d6800 	ldm	sp, {fp, sp, lr}
 c102eb4:	e12fff1e 	bx	lr

0c102eb8 <keypad_wait_any_keyup>:
 c102eb8:	e1a0c00d 	mov	ip, sp
 c102ebc:	e92dd800 	push	{fp, ip, lr, pc}
 c102ec0:	e24cb004 	sub	fp, ip, #4
 c102ec4:	e24dd008 	sub	sp, sp, #8
 c102ec8:	ebfffe94 	bl	c102920 <keypad_scan>
 c102ecc:	e1a03000 	mov	r3, r0
 c102ed0:	e54b300d 	strb	r3, [fp, #-13]
 c102ed4:	e55b300d 	ldrb	r3, [fp, #-13]
 c102ed8:	e35300ff 	cmp	r3, #255	; 0xff
 c102edc:	0afffff9 	beq	c102ec8 <keypad_wait_any_keyup+0x10>
 c102ee0:	e55b300d 	ldrb	r3, [fp, #-13]
 c102ee4:	e1a00003 	mov	r0, r3
 c102ee8:	ebffffd1 	bl	c102e34 <keypad_wait_keyup>
 c102eec:	e24bd00c 	sub	sp, fp, #12
 c102ef0:	e89d6800 	ldm	sp, {fp, sp, lr}
 c102ef4:	e12fff1e 	bx	lr

0c102ef8 <keypad_getchar>:
 c102ef8:	e1a0c00d 	mov	ip, sp
 c102efc:	e92dd800 	push	{fp, ip, lr, pc}
 c102f00:	e24cb004 	sub	fp, ip, #4
 c102f04:	e24dd008 	sub	sp, sp, #8
 c102f08:	ebffffdd 	bl	c102e84 <keypad_wait_any_keydown>
 c102f0c:	ebfffe83 	bl	c102920 <keypad_scan>
 c102f10:	e1a03000 	mov	r3, r0
 c102f14:	e54b300d 	strb	r3, [fp, #-13]
 c102f18:	e55b300d 	ldrb	r3, [fp, #-13]
 c102f1c:	e1a00003 	mov	r0, r3
 c102f20:	ebffffc3 	bl	c102e34 <keypad_wait_keyup>
 c102f24:	e55b300d 	ldrb	r3, [fp, #-13]
 c102f28:	e1a00003 	mov	r0, r3
 c102f2c:	e24bd00c 	sub	sp, fp, #12
 c102f30:	e89d6800 	ldm	sp, {fp, sp, lr}
 c102f34:	e12fff1e 	bx	lr

0c102f38 <keypad_getchartime>:
 c102f38:	e1a0c00d 	mov	ip, sp
 c102f3c:	e92dd800 	push	{fp, ip, lr, pc}
 c102f40:	e24cb004 	sub	fp, ip, #4
 c102f44:	e24dd010 	sub	sp, sp, #16
 c102f48:	e50b0018 	str	r0, [fp, #-24]	; 0xffffffe8
 c102f4c:	e1a00000 	nop			; (mov r0, r0)
 c102f50:	ebfffe72 	bl	c102920 <keypad_scan>
 c102f54:	e1a03000 	mov	r3, r0
 c102f58:	e35300ff 	cmp	r3, #255	; 0xff
 c102f5c:	0afffffb 	beq	c102f50 <keypad_getchartime+0x18>
 c102f60:	eb000c58 	bl	c1060c8 <timer3_start>
 c102f64:	e3a0001e 	mov	r0, #30
 c102f68:	eb000bef 	bl	c105f2c <sw_delay_ms>
 c102f6c:	ebfffe6b 	bl	c102920 <keypad_scan>
 c102f70:	e1a03000 	mov	r3, r0
 c102f74:	e54b300d 	strb	r3, [fp, #-13]
 c102f78:	e1a00000 	nop			; (mov r0, r0)
 c102f7c:	ebfffe67 	bl	c102920 <keypad_scan>
 c102f80:	e1a03000 	mov	r3, r0
 c102f84:	e55b200d 	ldrb	r2, [fp, #-13]
 c102f88:	e1520003 	cmp	r2, r3
 c102f8c:	0afffffa 	beq	c102f7c <keypad_getchartime+0x44>
 c102f90:	eb000c78 	bl	c106178 <timer3_stop>
 c102f94:	e1a03000 	mov	r3, r0
 c102f98:	e1a02003 	mov	r2, r3
 c102f9c:	e59f3030 	ldr	r3, [pc, #48]	; c102fd4 <keypad_getchartime+0x9c>
 c102fa0:	e0831392 	umull	r1, r3, r2, r3
 c102fa4:	e1a031a3 	lsr	r3, r3, #3
 c102fa8:	e1a03803 	lsl	r3, r3, #16
 c102fac:	e1a02823 	lsr	r2, r3, #16
 c102fb0:	e51b3018 	ldr	r3, [fp, #-24]	; 0xffffffe8
 c102fb4:	e1c320b0 	strh	r2, [r3]
 c102fb8:	e3a00064 	mov	r0, #100	; 0x64
 c102fbc:	eb000bda 	bl	c105f2c <sw_delay_ms>
 c102fc0:	e55b300d 	ldrb	r3, [fp, #-13]
 c102fc4:	e1a00003 	mov	r0, r3
 c102fc8:	e24bd00c 	sub	sp, fp, #12
 c102fcc:	e89d6800 	ldm	sp, {fp, sp, lr}
 c102fd0:	e12fff1e 	bx	lr
 c102fd4:	cccccccd 	.word	0xcccccccd

0c102fd8 <keypad_timeout_getchar>:
 c102fd8:	e1a0c00d 	mov	ip, sp
 c102fdc:	e92dd800 	push	{fp, ip, lr, pc}
 c102fe0:	e24cb004 	sub	fp, ip, #4
 c102fe4:	e24dd010 	sub	sp, sp, #16
 c102fe8:	e1a03000 	mov	r3, r0
 c102fec:	e14b31b6 	strh	r3, [fp, #-22]	; 0xffffffea
 c102ff0:	e3a03000 	mov	r3, #0
 c102ff4:	e54b300d 	strb	r3, [fp, #-13]
 c102ff8:	e1a00000 	nop			; (mov r0, r0)
 c102ffc:	ebfffe47 	bl	c102920 <keypad_scan>
 c103000:	e1a03000 	mov	r3, r0
 c103004:	e35300ff 	cmp	r3, #255	; 0xff
 c103008:	0afffffb 	beq	c102ffc <keypad_timeout_getchar+0x24>
 c10300c:	e15b31b6 	ldrh	r3, [fp, #-22]	; 0xffffffea
 c103010:	e1a00003 	mov	r0, r3
 c103014:	eb000c6c 	bl	c1061cc <timer3_start_timeout>
 c103018:	e3a0001e 	mov	r0, #30
 c10301c:	eb000bc2 	bl	c105f2c <sw_delay_ms>
 c103020:	ebfffe3e 	bl	c102920 <keypad_scan>
 c103024:	e1a03000 	mov	r3, r0
 c103028:	e54b300e 	strb	r3, [fp, #-14]
 c10302c:	ea000002 	b	c10303c <keypad_timeout_getchar+0x64>
 c103030:	eb000c93 	bl	c106284 <timer3_timeout>
 c103034:	e1a03000 	mov	r3, r0
 c103038:	e54b300d 	strb	r3, [fp, #-13]
 c10303c:	ebfffe37 	bl	c102920 <keypad_scan>
 c103040:	e1a03000 	mov	r3, r0
 c103044:	e55b200e 	ldrb	r2, [fp, #-14]
 c103048:	e1520003 	cmp	r2, r3
 c10304c:	0afffff7 	beq	c103030 <keypad_timeout_getchar+0x58>
 c103050:	e3a00064 	mov	r0, #100	; 0x64
 c103054:	eb000bb4 	bl	c105f2c <sw_delay_ms>
 c103058:	e55b300d 	ldrb	r3, [fp, #-13]
 c10305c:	e3530000 	cmp	r3, #0
 c103060:	0a000001 	beq	c10306c <keypad_timeout_getchar+0x94>
 c103064:	e3a030fe 	mov	r3, #254	; 0xfe
 c103068:	ea000000 	b	c103070 <keypad_timeout_getchar+0x98>
 c10306c:	e55b300e 	ldrb	r3, [fp, #-14]
 c103070:	e1a00003 	mov	r0, r3
 c103074:	e24bd00c 	sub	sp, fp, #12
 c103078:	e89d6800 	ldm	sp, {fp, sp, lr}
 c10307c:	e12fff1e 	bx	lr

0c103080 <keypad_open>:
 c103080:	e1a0c00d 	mov	ip, sp
 c103084:	e92dd800 	push	{fp, ip, lr, pc}
 c103088:	e24cb004 	sub	fp, ip, #4
 c10308c:	e24dd008 	sub	sp, sp, #8
 c103090:	e50b0010 	str	r0, [fp, #-16]
 c103094:	e59f303c 	ldr	r3, [pc, #60]	; c1030d8 <keypad_open+0x58>
 c103098:	e51b2010 	ldr	r2, [fp, #-16]
 c10309c:	e5832000 	str	r2, [r3]
 c1030a0:	e59f3034 	ldr	r3, [pc, #52]	; c1030dc <keypad_open+0x5c>
 c1030a4:	e3e02000 	mvn	r2, #0
 c1030a8:	e5832000 	str	r2, [r3]
 c1030ac:	e59f302c 	ldr	r3, [pc, #44]	; c1030e0 <keypad_open+0x60>
 c1030b0:	e3a02401 	mov	r2, #16777216	; 0x1000000
 c1030b4:	e5832000 	str	r2, [r3]
 c1030b8:	e59f3024 	ldr	r3, [pc, #36]	; c1030e4 <keypad_open+0x64>
 c1030bc:	e59f2020 	ldr	r2, [pc, #32]	; c1030e4 <keypad_open+0x64>
 c1030c0:	e5922000 	ldr	r2, [r2]
 c1030c4:	e3c22405 	bic	r2, r2, #83886080	; 0x5000000
 c1030c8:	e5832000 	str	r2, [r3]
 c1030cc:	e24bd00c 	sub	sp, fp, #12
 c1030d0:	e89d6800 	ldm	sp, {fp, sp, lr}
 c1030d4:	e12fff1e 	bx	lr
 c1030d8:	0c7fff80 	.word	0x0c7fff80
 c1030dc:	01d20054 	.word	0x01d20054
 c1030e0:	01e00024 	.word	0x01e00024
 c1030e4:	01e0000c 	.word	0x01e0000c

0c1030e8 <keypad_close>:
 c1030e8:	e1a0c00d 	mov	ip, sp
 c1030ec:	e92dd800 	push	{fp, ip, lr, pc}
 c1030f0:	e24cb004 	sub	fp, ip, #4
 c1030f4:	e59f3024 	ldr	r3, [pc, #36]	; c103120 <keypad_close+0x38>
 c1030f8:	e59f2020 	ldr	r2, [pc, #32]	; c103120 <keypad_close+0x38>
 c1030fc:	e5922000 	ldr	r2, [r2]
 c103100:	e3822401 	orr	r2, r2, #16777216	; 0x1000000
 c103104:	e5832000 	str	r2, [r3]
 c103108:	e59f3014 	ldr	r3, [pc, #20]	; c103124 <keypad_close+0x3c>
 c10310c:	e59f2014 	ldr	r2, [pc, #20]	; c103128 <keypad_close+0x40>
 c103110:	e5832000 	str	r2, [r3]
 c103114:	e24bd00c 	sub	sp, fp, #12
 c103118:	e89d6800 	ldm	sp, {fp, sp, lr}
 c10311c:	e12fff1e 	bx	lr
 c103120:	01e0000c 	.word	0x01e0000c
 c103124:	0c7fff80 	.word	0x0c7fff80
 c103128:	0c105bdc 	.word	0x0c105bdc

0c10312c <lcd_init>:
 c10312c:	e1a0c00d 	mov	ip, sp
 c103130:	e92dd800 	push	{fp, ip, lr, pc}
 c103134:	e24cb004 	sub	fp, ip, #4
 c103138:	e59f30fc 	ldr	r3, [pc, #252]	; c10323c <lcd_init+0x110>
 c10313c:	e59f20fc 	ldr	r2, [pc, #252]	; c103240 <lcd_init+0x114>
 c103140:	e5832000 	str	r2, [r3]
 c103144:	e59f30f8 	ldr	r3, [pc, #248]	; c103244 <lcd_init+0x118>
 c103148:	e59f20f8 	ldr	r2, [pc, #248]	; c103248 <lcd_init+0x11c>
 c10314c:	e5832000 	str	r2, [r3]
 c103150:	e59f30f4 	ldr	r3, [pc, #244]	; c10324c <lcd_init+0x120>
 c103154:	e59f20f4 	ldr	r2, [pc, #244]	; c103250 <lcd_init+0x124>
 c103158:	e5832000 	str	r2, [r3]
 c10315c:	e59f30f0 	ldr	r3, [pc, #240]	; c103254 <lcd_init+0x128>
 c103160:	e59f20f0 	ldr	r2, [pc, #240]	; c103258 <lcd_init+0x12c>
 c103164:	e5832000 	str	r2, [r3]
 c103168:	e59f30ec 	ldr	r3, [pc, #236]	; c10325c <lcd_init+0x130>
 c10316c:	e59f20ec 	ldr	r2, [pc, #236]	; c103260 <lcd_init+0x134>
 c103170:	e5832000 	str	r2, [r3]
 c103174:	e59f30e8 	ldr	r3, [pc, #232]	; c103264 <lcd_init+0x138>
 c103178:	e59f20e8 	ldr	r2, [pc, #232]	; c103268 <lcd_init+0x13c>
 c10317c:	e5832000 	str	r2, [r3]
 c103180:	e59f30e4 	ldr	r3, [pc, #228]	; c10326c <lcd_init+0x140>
 c103184:	e59f20e4 	ldr	r2, [pc, #228]	; c103270 <lcd_init+0x144>
 c103188:	e5832000 	str	r2, [r3]
 c10318c:	e59f30e0 	ldr	r3, [pc, #224]	; c103274 <lcd_init+0x148>
 c103190:	e59f20e0 	ldr	r2, [pc, #224]	; c103278 <lcd_init+0x14c>
 c103194:	e5832000 	str	r2, [r3]
 c103198:	e59f30dc 	ldr	r3, [pc, #220]	; c10327c <lcd_init+0x150>
 c10319c:	e59f20dc 	ldr	r2, [pc, #220]	; c103280 <lcd_init+0x154>
 c1031a0:	e5832000 	str	r2, [r3]
 c1031a4:	e59f30d8 	ldr	r3, [pc, #216]	; c103284 <lcd_init+0x158>
 c1031a8:	e3a02000 	mov	r2, #0
 c1031ac:	e5832000 	str	r2, [r3]
 c1031b0:	e59f30d0 	ldr	r3, [pc, #208]	; c103288 <lcd_init+0x15c>
 c1031b4:	e3a02000 	mov	r2, #0
 c1031b8:	e5832000 	str	r2, [r3]
 c1031bc:	e59f30c8 	ldr	r3, [pc, #200]	; c10328c <lcd_init+0x160>
 c1031c0:	e3a02000 	mov	r2, #0
 c1031c4:	e5832000 	str	r2, [r3]
 c1031c8:	e3a0361f 	mov	r3, #32505856	; 0x1f00000
 c1031cc:	e59f20bc 	ldr	r2, [pc, #188]	; c103290 <lcd_init+0x164>
 c1031d0:	e5832000 	str	r2, [r3]
 c1031d4:	e59f30b8 	ldr	r3, [pc, #184]	; c103294 <lcd_init+0x168>
 c1031d8:	e59f20b8 	ldr	r2, [pc, #184]	; c103298 <lcd_init+0x16c>
 c1031dc:	e5832000 	str	r2, [r3]
 c1031e0:	e59f30b4 	ldr	r3, [pc, #180]	; c10329c <lcd_init+0x170>
 c1031e4:	e3a02000 	mov	r2, #0
 c1031e8:	e5832000 	str	r2, [r3]
 c1031ec:	e59f30ac 	ldr	r3, [pc, #172]	; c1032a0 <lcd_init+0x174>
 c1031f0:	e59f20ac 	ldr	r2, [pc, #172]	; c1032a4 <lcd_init+0x178>
 c1031f4:	e1a020a2 	lsr	r2, r2, #1
 c1031f8:	e3822201 	orr	r2, r2, #268435456	; 0x10000000
 c1031fc:	e5832000 	str	r2, [r3]
 c103200:	e59f20a0 	ldr	r2, [pc, #160]	; c1032a8 <lcd_init+0x17c>
 c103204:	e59f3098 	ldr	r3, [pc, #152]	; c1032a4 <lcd_init+0x178>
 c103208:	e2833c96 	add	r3, r3, #38400	; 0x9600
 c10320c:	e3c334ff 	bic	r3, r3, #-16777216	; 0xff000000
 c103210:	e3c33503 	bic	r3, r3, #12582912	; 0xc00000
 c103214:	e1a030a3 	lsr	r3, r3, #1
 c103218:	e3833202 	orr	r3, r3, #536870912	; 0x20000000
 c10321c:	e5823000 	str	r3, [r2]
 c103220:	e59f3084 	ldr	r3, [pc, #132]	; c1032ac <lcd_init+0x180>
 c103224:	e3a02050 	mov	r2, #80	; 0x50
 c103228:	e5832000 	str	r2, [r3]
 c10322c:	eb00002e 	bl	c1032ec <lcd_off>
 c103230:	e24bd00c 	sub	sp, fp, #12
 c103234:	e89d6800 	ldm	sp, {fp, sp, lr}
 c103238:	e12fff1e 	bx	lr
 c10323c:	01f00044 	.word	0x01f00044
 c103240:	00012210 	.word	0x00012210
 c103244:	01f00020 	.word	0x01f00020
 c103248:	0000a5a5 	.word	0x0000a5a5
 c10324c:	01f00024 	.word	0x01f00024
 c103250:	0ba5da65 	.word	0x0ba5da65
 c103254:	01f00028 	.word	0x01f00028
 c103258:	000a5a5f 	.word	0x000a5a5f
 c10325c:	01f0002c 	.word	0x01f0002c
 c103260:	00000d6b 	.word	0x00000d6b
 c103264:	01f00030 	.word	0x01f00030
 c103268:	0eb7b5ed 	.word	0x0eb7b5ed
 c10326c:	01f00034 	.word	0x01f00034
 c103270:	00007dbe 	.word	0x00007dbe
 c103274:	01f00038 	.word	0x01f00038
 c103278:	0007ebdf 	.word	0x0007ebdf
 c10327c:	01f0003c 	.word	0x01f0003c
 c103280:	07fdfbfe 	.word	0x07fdfbfe
 c103284:	01f00014 	.word	0x01f00014
 c103288:	01f00018 	.word	0x01f00018
 c10328c:	01f0001c 	.word	0x01f0001c
 c103290:	0001c020 	.word	0x0001c020
 c103294:	01f00004 	.word	0x01f00004
 c103298:	00013cef 	.word	0x00013cef
 c10329c:	01f00040 	.word	0x01f00040
 c1032a0:	01f00008 	.word	0x01f00008
 c1032a4:	0c113c70 	.word	0x0c113c70
 c1032a8:	01f0000c 	.word	0x01f0000c
 c1032ac:	01f00010 	.word	0x01f00010

0c1032b0 <lcd_on>:
 c1032b0:	e1a0c00d 	mov	ip, sp
 c1032b4:	e92dd800 	push	{fp, ip, lr, pc}
 c1032b8:	e24cb004 	sub	fp, ip, #4
 c1032bc:	e3a0361f 	mov	r3, #32505856	; 0x1f00000
 c1032c0:	e3a0261f 	mov	r2, #32505856	; 0x1f00000
 c1032c4:	e5922000 	ldr	r2, [r2]
 c1032c8:	e3822001 	orr	r2, r2, #1
 c1032cc:	e5832000 	str	r2, [r3]
 c1032d0:	e59f3010 	ldr	r3, [pc, #16]	; c1032e8 <lcd_on+0x38>
 c1032d4:	e3a02001 	mov	r2, #1
 c1032d8:	e5c32000 	strb	r2, [r3]
 c1032dc:	e24bd00c 	sub	sp, fp, #12
 c1032e0:	e89d6800 	ldm	sp, {fp, sp, lr}
 c1032e4:	e12fff1e 	bx	lr
 c1032e8:	0c11d270 	.word	0x0c11d270

0c1032ec <lcd_off>:
 c1032ec:	e1a0c00d 	mov	ip, sp
 c1032f0:	e92dd800 	push	{fp, ip, lr, pc}
 c1032f4:	e24cb004 	sub	fp, ip, #4
 c1032f8:	e3a0361f 	mov	r3, #32505856	; 0x1f00000
 c1032fc:	e3a0261f 	mov	r2, #32505856	; 0x1f00000
 c103300:	e5922000 	ldr	r2, [r2]
 c103304:	e3c22001 	bic	r2, r2, #1
 c103308:	e5832000 	str	r2, [r3]
 c10330c:	e59f3010 	ldr	r3, [pc, #16]	; c103324 <lcd_off+0x38>
 c103310:	e3a02000 	mov	r2, #0
 c103314:	e5c32000 	strb	r2, [r3]
 c103318:	e24bd00c 	sub	sp, fp, #12
 c10331c:	e89d6800 	ldm	sp, {fp, sp, lr}
 c103320:	e12fff1e 	bx	lr
 c103324:	0c11d270 	.word	0x0c11d270

0c103328 <lcd_status>:
 c103328:	e1a0c00d 	mov	ip, sp
 c10332c:	e92dd800 	push	{fp, ip, lr, pc}
 c103330:	e24cb004 	sub	fp, ip, #4
 c103334:	e59f3010 	ldr	r3, [pc, #16]	; c10334c <lcd_status+0x24>
 c103338:	e5d33000 	ldrb	r3, [r3]
 c10333c:	e1a00003 	mov	r0, r3
 c103340:	e24bd00c 	sub	sp, fp, #12
 c103344:	e89d6800 	ldm	sp, {fp, sp, lr}
 c103348:	e12fff1e 	bx	lr
 c10334c:	0c11d270 	.word	0x0c11d270

0c103350 <lcd_clear>:
 c103350:	e1a0c00d 	mov	ip, sp
 c103354:	e92dd800 	push	{fp, ip, lr, pc}
 c103358:	e24cb004 	sub	fp, ip, #4
 c10335c:	e24dd008 	sub	sp, sp, #8
 c103360:	e3a03000 	mov	r3, #0
 c103364:	e14b30be 	strh	r3, [fp, #-14]
 c103368:	e3a03000 	mov	r3, #0
 c10336c:	e54b300f 	strb	r3, [fp, #-15]
 c103370:	e3a03000 	mov	r3, #0
 c103374:	e14b30be 	strh	r3, [fp, #-14]
 c103378:	ea000006 	b	c103398 <lcd_clear+0x48>
 c10337c:	e15b30be 	ldrh	r3, [fp, #-14]
 c103380:	e59f202c 	ldr	r2, [pc, #44]	; c1033b4 <lcd_clear+0x64>
 c103384:	e55b100f 	ldrb	r1, [fp, #-15]
 c103388:	e7c21003 	strb	r1, [r2, r3]
 c10338c:	e15b30be 	ldrh	r3, [fp, #-14]
 c103390:	e2833001 	add	r3, r3, #1
 c103394:	e14b30be 	strh	r3, [fp, #-14]
 c103398:	e15b20be 	ldrh	r2, [fp, #-14]
 c10339c:	e59f3014 	ldr	r3, [pc, #20]	; c1033b8 <lcd_clear+0x68>
 c1033a0:	e1520003 	cmp	r2, r3
 c1033a4:	9afffff4 	bls	c10337c <lcd_clear+0x2c>
 c1033a8:	e24bd00c 	sub	sp, fp, #12
 c1033ac:	e89d6800 	ldm	sp, {fp, sp, lr}
 c1033b0:	e12fff1e 	bx	lr
 c1033b4:	0c113c70 	.word	0x0c113c70
 c1033b8:	000095ff 	.word	0x000095ff

0c1033bc <lcd_putpixel>:
 c1033bc:	e1a0c00d 	mov	ip, sp
 c1033c0:	e92dd800 	push	{fp, ip, lr, pc}
 c1033c4:	e24cb004 	sub	fp, ip, #4
 c1033c8:	e24dd010 	sub	sp, sp, #16
 c1033cc:	e1a03002 	mov	r3, r2
 c1033d0:	e14b01b6 	strh	r0, [fp, #-22]	; 0xffffffea
 c1033d4:	e14b11b8 	strh	r1, [fp, #-24]	; 0xffffffe8
 c1033d8:	e54b3019 	strb	r3, [fp, #-25]	; 0xffffffe7
 c1033dc:	e15b31b6 	ldrh	r3, [fp, #-22]	; 0xffffffea
 c1033e0:	e1a030a3 	lsr	r3, r3, #1
 c1033e4:	e1a03803 	lsl	r3, r3, #16
 c1033e8:	e1a02823 	lsr	r2, r3, #16
 c1033ec:	e15b31b8 	ldrh	r3, [fp, #-24]	; 0xffffffe8
 c1033f0:	e1a01003 	mov	r1, r3
 c1033f4:	e1a01101 	lsl	r1, r1, #2
 c1033f8:	e0813003 	add	r3, r1, r3
 c1033fc:	e1a03283 	lsl	r3, r3, #5
 c103400:	e1a03803 	lsl	r3, r3, #16
 c103404:	e1a03823 	lsr	r3, r3, #16
 c103408:	e0823003 	add	r3, r2, r3
 c10340c:	e14b30be 	strh	r3, [fp, #-14]
 c103410:	e15b31b6 	ldrh	r3, [fp, #-22]	; 0xffffffea
 c103414:	e2033001 	and	r3, r3, #1
 c103418:	e3530000 	cmp	r3, #0
 c10341c:	1a000001 	bne	c103428 <lcd_putpixel+0x6c>
 c103420:	e3a03004 	mov	r3, #4
 c103424:	ea000000 	b	c10342c <lcd_putpixel+0x70>
 c103428:	e3a03000 	mov	r3, #0
 c10342c:	e54b300f 	strb	r3, [fp, #-15]
 c103430:	e15b30be 	ldrh	r3, [fp, #-14]
 c103434:	e59f2068 	ldr	r2, [pc, #104]	; c1034a4 <lcd_putpixel+0xe8>
 c103438:	e7d23003 	ldrb	r3, [r2, r3]
 c10343c:	e54b3010 	strb	r3, [fp, #-16]
 c103440:	e55b300f 	ldrb	r3, [fp, #-15]
 c103444:	e3a0200f 	mov	r2, #15
 c103448:	e1a03312 	lsl	r3, r2, r3
 c10344c:	e20330ff 	and	r3, r3, #255	; 0xff
 c103450:	e1e03003 	mvn	r3, r3
 c103454:	e20320ff 	and	r2, r3, #255	; 0xff
 c103458:	e55b3010 	ldrb	r3, [fp, #-16]
 c10345c:	e0023003 	and	r3, r2, r3
 c103460:	e20330ff 	and	r3, r3, #255	; 0xff
 c103464:	e54b3010 	strb	r3, [fp, #-16]
 c103468:	e55b2019 	ldrb	r2, [fp, #-25]	; 0xffffffe7
 c10346c:	e55b300f 	ldrb	r3, [fp, #-15]
 c103470:	e1a03312 	lsl	r3, r2, r3
 c103474:	e20320ff 	and	r2, r3, #255	; 0xff
 c103478:	e55b3010 	ldrb	r3, [fp, #-16]
 c10347c:	e1823003 	orr	r3, r2, r3
 c103480:	e20330ff 	and	r3, r3, #255	; 0xff
 c103484:	e54b3010 	strb	r3, [fp, #-16]
 c103488:	e15b30be 	ldrh	r3, [fp, #-14]
 c10348c:	e59f2010 	ldr	r2, [pc, #16]	; c1034a4 <lcd_putpixel+0xe8>
 c103490:	e55b1010 	ldrb	r1, [fp, #-16]
 c103494:	e7c21003 	strb	r1, [r2, r3]
 c103498:	e24bd00c 	sub	sp, fp, #12
 c10349c:	e89d6800 	ldm	sp, {fp, sp, lr}
 c1034a0:	e12fff1e 	bx	lr
 c1034a4:	0c113c70 	.word	0x0c113c70

0c1034a8 <lcd_getpixel>:
 c1034a8:	e1a0c00d 	mov	ip, sp
 c1034ac:	e92dd800 	push	{fp, ip, lr, pc}
 c1034b0:	e24cb004 	sub	fp, ip, #4
 c1034b4:	e24dd010 	sub	sp, sp, #16
 c1034b8:	e1a02000 	mov	r2, r0
 c1034bc:	e1a03001 	mov	r3, r1
 c1034c0:	e14b21b6 	strh	r2, [fp, #-22]	; 0xffffffea
 c1034c4:	e14b31b8 	strh	r3, [fp, #-24]	; 0xffffffe8
 c1034c8:	e15b31b6 	ldrh	r3, [fp, #-22]	; 0xffffffea
 c1034cc:	e1a030a3 	lsr	r3, r3, #1
 c1034d0:	e1a03803 	lsl	r3, r3, #16
 c1034d4:	e1a02823 	lsr	r2, r3, #16
 c1034d8:	e15b31b8 	ldrh	r3, [fp, #-24]	; 0xffffffe8
 c1034dc:	e1a01003 	mov	r1, r3
 c1034e0:	e1a01101 	lsl	r1, r1, #2
 c1034e4:	e0813003 	add	r3, r1, r3
 c1034e8:	e1a03283 	lsl	r3, r3, #5
 c1034ec:	e1a03803 	lsl	r3, r3, #16
 c1034f0:	e1a03823 	lsr	r3, r3, #16
 c1034f4:	e0823003 	add	r3, r2, r3
 c1034f8:	e14b30be 	strh	r3, [fp, #-14]
 c1034fc:	e15b31b6 	ldrh	r3, [fp, #-22]	; 0xffffffea
 c103500:	e2033001 	and	r3, r3, #1
 c103504:	e3530000 	cmp	r3, #0
 c103508:	1a000001 	bne	c103514 <lcd_getpixel+0x6c>
 c10350c:	e3a03004 	mov	r3, #4
 c103510:	ea000000 	b	c103518 <lcd_getpixel+0x70>
 c103514:	e3a03000 	mov	r3, #0
 c103518:	e54b300f 	strb	r3, [fp, #-15]
 c10351c:	e15b30be 	ldrh	r3, [fp, #-14]
 c103520:	e59f2028 	ldr	r2, [pc, #40]	; c103550 <lcd_getpixel+0xa8>
 c103524:	e7d23003 	ldrb	r3, [r2, r3]
 c103528:	e54b3010 	strb	r3, [fp, #-16]
 c10352c:	e55b2010 	ldrb	r2, [fp, #-16]
 c103530:	e55b300f 	ldrb	r3, [fp, #-15]
 c103534:	e1a03352 	asr	r3, r2, r3
 c103538:	e54b3011 	strb	r3, [fp, #-17]	; 0xffffffef
 c10353c:	e55b3011 	ldrb	r3, [fp, #-17]	; 0xffffffef
 c103540:	e1a00003 	mov	r0, r3
 c103544:	e24bd00c 	sub	sp, fp, #12
 c103548:	e89d6800 	ldm	sp, {fp, sp, lr}
 c10354c:	e12fff1e 	bx	lr
 c103550:	0c113c70 	.word	0x0c113c70

0c103554 <lcd_draw_hline>:
 c103554:	e1a0c00d 	mov	ip, sp
 c103558:	e92dd800 	push	{fp, ip, lr, pc}
 c10355c:	e24cb004 	sub	fp, ip, #4
 c103560:	e24dd018 	sub	sp, sp, #24
 c103564:	e14b01b6 	strh	r0, [fp, #-22]	; 0xffffffea
 c103568:	e14b11b8 	strh	r1, [fp, #-24]	; 0xffffffe8
 c10356c:	e14b21ba 	strh	r2, [fp, #-26]	; 0xffffffe6
 c103570:	e54b301b 	strb	r3, [fp, #-27]	; 0xffffffe5
 c103574:	e15b31b6 	ldrh	r3, [fp, #-22]	; 0xffffffea
 c103578:	e14b30be 	strh	r3, [fp, #-14]
 c10357c:	e1db30b4 	ldrh	r3, [fp, #4]
 c103580:	e3530001 	cmp	r3, #1
 c103584:	1a00000f 	bne	c1035c8 <lcd_draw_hline+0x74>
 c103588:	ea000009 	b	c1035b4 <lcd_draw_hline+0x60>
 c10358c:	e15b10be 	ldrh	r1, [fp, #-14]
 c103590:	e15b21ba 	ldrh	r2, [fp, #-26]	; 0xffffffe6
 c103594:	e55b301b 	ldrb	r3, [fp, #-27]	; 0xffffffe5
 c103598:	e1a00001 	mov	r0, r1
 c10359c:	e1a01002 	mov	r1, r2
 c1035a0:	e1a02003 	mov	r2, r3
 c1035a4:	ebffff84 	bl	c1033bc <lcd_putpixel>
 c1035a8:	e15b30be 	ldrh	r3, [fp, #-14]
 c1035ac:	e2833001 	add	r3, r3, #1
 c1035b0:	e14b30be 	strh	r3, [fp, #-14]
 c1035b4:	e15b20be 	ldrh	r2, [fp, #-14]
 c1035b8:	e15b31b8 	ldrh	r3, [fp, #-24]	; 0xffffffe8
 c1035bc:	e1520003 	cmp	r2, r3
 c1035c0:	9afffff1 	bls	c10358c <lcd_draw_hline+0x38>
 c1035c4:	ea000031 	b	c103690 <lcd_draw_hline+0x13c>
 c1035c8:	e1db30b4 	ldrh	r3, [fp, #4]
 c1035cc:	e2033001 	and	r3, r3, #1
 c1035d0:	e20330ff 	and	r3, r3, #255	; 0xff
 c1035d4:	e3530000 	cmp	r3, #0
 c1035d8:	0a00002c 	beq	c103690 <lcd_draw_hline+0x13c>
 c1035dc:	e3a03001 	mov	r3, #1
 c1035e0:	e50b3014 	str	r3, [fp, #-20]	; 0xffffffec
 c1035e4:	e51b3014 	ldr	r3, [fp, #-20]	; 0xffffffec
 c1035e8:	e1a03803 	lsl	r3, r3, #16
 c1035ec:	e1a02823 	lsr	r2, r3, #16
 c1035f0:	e15b31ba 	ldrh	r3, [fp, #-26]	; 0xffffffe6
 c1035f4:	e0823003 	add	r3, r2, r3
 c1035f8:	e1a03803 	lsl	r3, r3, #16
 c1035fc:	e1a02823 	lsr	r2, r3, #16
 c103600:	e15b01b6 	ldrh	r0, [fp, #-22]	; 0xffffffea
 c103604:	e15b11b8 	ldrh	r1, [fp, #-24]	; 0xffffffe8
 c103608:	e55b301b 	ldrb	r3, [fp, #-27]	; 0xffffffe5
 c10360c:	e3a0c001 	mov	ip, #1
 c103610:	e58dc000 	str	ip, [sp]
 c103614:	ebffffce 	bl	c103554 <lcd_draw_hline>
 c103618:	e51b3014 	ldr	r3, [fp, #-20]	; 0xffffffec
 c10361c:	e1a03803 	lsl	r3, r3, #16
 c103620:	e1a03823 	lsr	r3, r3, #16
 c103624:	e15b21ba 	ldrh	r2, [fp, #-26]	; 0xffffffe6
 c103628:	e0633002 	rsb	r3, r3, r2
 c10362c:	e1a03803 	lsl	r3, r3, #16
 c103630:	e1a02823 	lsr	r2, r3, #16
 c103634:	e15b01b6 	ldrh	r0, [fp, #-22]	; 0xffffffea
 c103638:	e15b11b8 	ldrh	r1, [fp, #-24]	; 0xffffffe8
 c10363c:	e55b301b 	ldrb	r3, [fp, #-27]	; 0xffffffe5
 c103640:	e3a0c001 	mov	ip, #1
 c103644:	e58dc000 	str	ip, [sp]
 c103648:	ebffffc1 	bl	c103554 <lcd_draw_hline>
 c10364c:	e51b3014 	ldr	r3, [fp, #-20]	; 0xffffffec
 c103650:	e2833001 	add	r3, r3, #1
 c103654:	e50b3014 	str	r3, [fp, #-20]	; 0xffffffec
 c103658:	e1db20b4 	ldrh	r2, [fp, #4]
 c10365c:	e51b3014 	ldr	r3, [fp, #-20]	; 0xffffffec
 c103660:	e1a03083 	lsl	r3, r3, #1
 c103664:	e2833001 	add	r3, r3, #1
 c103668:	e1520003 	cmp	r2, r3
 c10366c:	aaffffdc 	bge	c1035e4 <lcd_draw_hline+0x90>
 c103670:	e15b01b6 	ldrh	r0, [fp, #-22]	; 0xffffffea
 c103674:	e15b11b8 	ldrh	r1, [fp, #-24]	; 0xffffffe8
 c103678:	e15b21ba 	ldrh	r2, [fp, #-26]	; 0xffffffe6
 c10367c:	e55b301b 	ldrb	r3, [fp, #-27]	; 0xffffffe5
 c103680:	e3a0c001 	mov	ip, #1
 c103684:	e58dc000 	str	ip, [sp]
 c103688:	ebffffb1 	bl	c103554 <lcd_draw_hline>
 c10368c:	e1a00000 	nop			; (mov r0, r0)
 c103690:	e24bd00c 	sub	sp, fp, #12
 c103694:	e89d6800 	ldm	sp, {fp, sp, lr}
 c103698:	e12fff1e 	bx	lr

0c10369c <lcd_draw_vline>:
 c10369c:	e1a0c00d 	mov	ip, sp
 c1036a0:	e92dd800 	push	{fp, ip, lr, pc}
 c1036a4:	e24cb004 	sub	fp, ip, #4
 c1036a8:	e24dd010 	sub	sp, sp, #16
 c1036ac:	e14b01b6 	strh	r0, [fp, #-22]	; 0xffffffea
 c1036b0:	e14b11b8 	strh	r1, [fp, #-24]	; 0xffffffe8
 c1036b4:	e14b21ba 	strh	r2, [fp, #-26]	; 0xffffffe6
 c1036b8:	e54b301b 	strb	r3, [fp, #-27]	; 0xffffffe5
 c1036bc:	e3a03000 	mov	r3, #0
 c1036c0:	e54b300f 	strb	r3, [fp, #-15]
 c1036c4:	ea000019 	b	c103730 <lcd_draw_vline+0x94>
 c1036c8:	e15b31b6 	ldrh	r3, [fp, #-22]	; 0xffffffea
 c1036cc:	e14b30be 	strh	r3, [fp, #-14]
 c1036d0:	ea00000f 	b	c103714 <lcd_draw_vline+0x78>
 c1036d4:	e55b300f 	ldrb	r3, [fp, #-15]
 c1036d8:	e1a03803 	lsl	r3, r3, #16
 c1036dc:	e1a02823 	lsr	r2, r3, #16
 c1036e0:	e15b31ba 	ldrh	r3, [fp, #-26]	; 0xffffffe6
 c1036e4:	e0823003 	add	r3, r2, r3
 c1036e8:	e1a03803 	lsl	r3, r3, #16
 c1036ec:	e1a01823 	lsr	r1, r3, #16
 c1036f0:	e15b20be 	ldrh	r2, [fp, #-14]
 c1036f4:	e55b301b 	ldrb	r3, [fp, #-27]	; 0xffffffe5
 c1036f8:	e1a00001 	mov	r0, r1
 c1036fc:	e1a01002 	mov	r1, r2
 c103700:	e1a02003 	mov	r2, r3
 c103704:	ebffff2c 	bl	c1033bc <lcd_putpixel>
 c103708:	e15b30be 	ldrh	r3, [fp, #-14]
 c10370c:	e2833001 	add	r3, r3, #1
 c103710:	e14b30be 	strh	r3, [fp, #-14]
 c103714:	e15b20be 	ldrh	r2, [fp, #-14]
 c103718:	e15b31b8 	ldrh	r3, [fp, #-24]	; 0xffffffe8
 c10371c:	e1520003 	cmp	r2, r3
 c103720:	9affffeb 	bls	c1036d4 <lcd_draw_vline+0x38>
 c103724:	e55b300f 	ldrb	r3, [fp, #-15]
 c103728:	e2833001 	add	r3, r3, #1
 c10372c:	e54b300f 	strb	r3, [fp, #-15]
 c103730:	e55b300f 	ldrb	r3, [fp, #-15]
 c103734:	e1a03803 	lsl	r3, r3, #16
 c103738:	e1a03823 	lsr	r3, r3, #16
 c10373c:	e1db20b4 	ldrh	r2, [fp, #4]
 c103740:	e1520003 	cmp	r2, r3
 c103744:	8affffdf 	bhi	c1036c8 <lcd_draw_vline+0x2c>
 c103748:	e24bd00c 	sub	sp, fp, #12
 c10374c:	e89d6800 	ldm	sp, {fp, sp, lr}
 c103750:	e12fff1e 	bx	lr

0c103754 <lcd_draw_box>:
 c103754:	e1a0c00d 	mov	ip, sp
 c103758:	e92dd800 	push	{fp, ip, lr, pc}
 c10375c:	e24cb004 	sub	fp, ip, #4
 c103760:	e24dd010 	sub	sp, sp, #16
 c103764:	e14b00be 	strh	r0, [fp, #-14]
 c103768:	e14b11b0 	strh	r1, [fp, #-16]
 c10376c:	e14b21b2 	strh	r2, [fp, #-18]	; 0xffffffee
 c103770:	e14b31b4 	strh	r3, [fp, #-20]	; 0xffffffec
 c103774:	e15b01b0 	ldrh	r0, [fp, #-16]
 c103778:	e15b11b4 	ldrh	r1, [fp, #-20]	; 0xffffffec
 c10377c:	e15b20be 	ldrh	r2, [fp, #-14]
 c103780:	e5db3004 	ldrb	r3, [fp, #4]
 c103784:	e1dbc0b8 	ldrh	ip, [fp, #8]
 c103788:	e58dc000 	str	ip, [sp]
 c10378c:	ebffffc2 	bl	c10369c <lcd_draw_vline>
 c103790:	e15b01b0 	ldrh	r0, [fp, #-16]
 c103794:	e15b11b4 	ldrh	r1, [fp, #-20]	; 0xffffffec
 c103798:	e15b21b2 	ldrh	r2, [fp, #-18]	; 0xffffffee
 c10379c:	e5db3004 	ldrb	r3, [fp, #4]
 c1037a0:	e1dbc0b8 	ldrh	ip, [fp, #8]
 c1037a4:	e58dc000 	str	ip, [sp]
 c1037a8:	ebffffbb 	bl	c10369c <lcd_draw_vline>
 c1037ac:	e15b00be 	ldrh	r0, [fp, #-14]
 c1037b0:	e15b11b2 	ldrh	r1, [fp, #-18]	; 0xffffffee
 c1037b4:	e15b21b0 	ldrh	r2, [fp, #-16]
 c1037b8:	e5db3004 	ldrb	r3, [fp, #4]
 c1037bc:	e1dbc0b8 	ldrh	ip, [fp, #8]
 c1037c0:	e58dc000 	str	ip, [sp]
 c1037c4:	ebffff62 	bl	c103554 <lcd_draw_hline>
 c1037c8:	e15b00be 	ldrh	r0, [fp, #-14]
 c1037cc:	e15b11b2 	ldrh	r1, [fp, #-18]	; 0xffffffee
 c1037d0:	e15b21b4 	ldrh	r2, [fp, #-20]	; 0xffffffec
 c1037d4:	e5db3004 	ldrb	r3, [fp, #4]
 c1037d8:	e1dbc0b8 	ldrh	ip, [fp, #8]
 c1037dc:	e58dc000 	str	ip, [sp]
 c1037e0:	ebffff5b 	bl	c103554 <lcd_draw_hline>
 c1037e4:	e24bd00c 	sub	sp, fp, #12
 c1037e8:	e89d6800 	ldm	sp, {fp, sp, lr}
 c1037ec:	e12fff1e 	bx	lr

0c1037f0 <lcd_putchar>:
 c1037f0:	e1a0c00d 	mov	ip, sp
 c1037f4:	e92dd800 	push	{fp, ip, lr, pc}
 c1037f8:	e24cb004 	sub	fp, ip, #4
 c1037fc:	e24dd010 	sub	sp, sp, #16
 c103800:	e14b01b6 	strh	r0, [fp, #-22]	; 0xffffffea
 c103804:	e14b11b8 	strh	r1, [fp, #-24]	; 0xffffffe8
 c103808:	e54b2019 	strb	r2, [fp, #-25]	; 0xffffffe7
 c10380c:	e54b301a 	strb	r3, [fp, #-26]	; 0xffffffe6
 c103810:	e55b301a 	ldrb	r3, [fp, #-26]	; 0xffffffe6
 c103814:	e1a03203 	lsl	r3, r3, #4
 c103818:	e1a02003 	mov	r2, r3
 c10381c:	e59f311c 	ldr	r3, [pc, #284]	; c103940 <lcd_putchar+0x150>
 c103820:	e0823003 	add	r3, r2, r3
 c103824:	e50b3014 	str	r3, [fp, #-20]	; 0xffffffec
 c103828:	e3a03000 	mov	r3, #0
 c10382c:	e54b300d 	strb	r3, [fp, #-13]
 c103830:	ea00003c 	b	c103928 <lcd_putchar+0x138>
 c103834:	e3a03000 	mov	r3, #0
 c103838:	e54b300e 	strb	r3, [fp, #-14]
 c10383c:	ea000033 	b	c103910 <lcd_putchar+0x120>
 c103840:	e55b300d 	ldrb	r3, [fp, #-13]
 c103844:	e51b2014 	ldr	r2, [fp, #-20]	; 0xffffffec
 c103848:	e0823003 	add	r3, r2, r3
 c10384c:	e5d33000 	ldrb	r3, [r3]
 c103850:	e1a02003 	mov	r2, r3
 c103854:	e55b300e 	ldrb	r3, [fp, #-14]
 c103858:	e3a01080 	mov	r1, #128	; 0x80
 c10385c:	e1a03351 	asr	r3, r1, r3
 c103860:	e0023003 	and	r3, r2, r3
 c103864:	e3530000 	cmp	r3, #0
 c103868:	0a000013 	beq	c1038bc <lcd_putchar+0xcc>
 c10386c:	e55b300e 	ldrb	r3, [fp, #-14]
 c103870:	e1a03803 	lsl	r3, r3, #16
 c103874:	e1a02823 	lsr	r2, r3, #16
 c103878:	e15b31b6 	ldrh	r3, [fp, #-22]	; 0xffffffea
 c10387c:	e0823003 	add	r3, r2, r3
 c103880:	e1a03803 	lsl	r3, r3, #16
 c103884:	e1a01823 	lsr	r1, r3, #16
 c103888:	e55b300d 	ldrb	r3, [fp, #-13]
 c10388c:	e1a03803 	lsl	r3, r3, #16
 c103890:	e1a02823 	lsr	r2, r3, #16
 c103894:	e15b31b8 	ldrh	r3, [fp, #-24]	; 0xffffffe8
 c103898:	e0823003 	add	r3, r2, r3
 c10389c:	e1a03803 	lsl	r3, r3, #16
 c1038a0:	e1a02823 	lsr	r2, r3, #16
 c1038a4:	e55b3019 	ldrb	r3, [fp, #-25]	; 0xffffffe7
 c1038a8:	e1a00001 	mov	r0, r1
 c1038ac:	e1a01002 	mov	r1, r2
 c1038b0:	e1a02003 	mov	r2, r3
 c1038b4:	ebfffec0 	bl	c1033bc <lcd_putpixel>
 c1038b8:	ea000011 	b	c103904 <lcd_putchar+0x114>
 c1038bc:	e55b300e 	ldrb	r3, [fp, #-14]
 c1038c0:	e1a03803 	lsl	r3, r3, #16
 c1038c4:	e1a02823 	lsr	r2, r3, #16
 c1038c8:	e15b31b6 	ldrh	r3, [fp, #-22]	; 0xffffffea
 c1038cc:	e0823003 	add	r3, r2, r3
 c1038d0:	e1a03803 	lsl	r3, r3, #16
 c1038d4:	e1a02823 	lsr	r2, r3, #16
 c1038d8:	e55b300d 	ldrb	r3, [fp, #-13]
 c1038dc:	e1a03803 	lsl	r3, r3, #16
 c1038e0:	e1a01823 	lsr	r1, r3, #16
 c1038e4:	e15b31b8 	ldrh	r3, [fp, #-24]	; 0xffffffe8
 c1038e8:	e0813003 	add	r3, r1, r3
 c1038ec:	e1a03803 	lsl	r3, r3, #16
 c1038f0:	e1a03823 	lsr	r3, r3, #16
 c1038f4:	e1a00002 	mov	r0, r2
 c1038f8:	e1a01003 	mov	r1, r3
 c1038fc:	e3a02000 	mov	r2, #0
 c103900:	ebfffead 	bl	c1033bc <lcd_putpixel>
 c103904:	e55b300e 	ldrb	r3, [fp, #-14]
 c103908:	e2833001 	add	r3, r3, #1
 c10390c:	e54b300e 	strb	r3, [fp, #-14]
 c103910:	e55b300e 	ldrb	r3, [fp, #-14]
 c103914:	e3530007 	cmp	r3, #7
 c103918:	9affffc8 	bls	c103840 <lcd_putchar+0x50>
 c10391c:	e55b300d 	ldrb	r3, [fp, #-13]
 c103920:	e2833001 	add	r3, r3, #1
 c103924:	e54b300d 	strb	r3, [fp, #-13]
 c103928:	e55b300d 	ldrb	r3, [fp, #-13]
 c10392c:	e353000f 	cmp	r3, #15
 c103930:	9affffbf 	bls	c103834 <lcd_putchar+0x44>
 c103934:	e24bd00c 	sub	sp, fp, #12
 c103938:	e89d6800 	ldm	sp, {fp, sp, lr}
 c10393c:	e12fff1e 	bx	lr
 c103940:	0c1090d0 	.word	0x0c1090d0

0c103944 <lcd_puts>:
 c103944:	e1a0c00d 	mov	ip, sp
 c103948:	e92dd800 	push	{fp, ip, lr, pc}
 c10394c:	e24cb004 	sub	fp, ip, #4
 c103950:	e24dd010 	sub	sp, sp, #16
 c103954:	e50b3018 	str	r3, [fp, #-24]	; 0xffffffe8
 c103958:	e14b00be 	strh	r0, [fp, #-14]
 c10395c:	e14b11b0 	strh	r1, [fp, #-16]
 c103960:	e1a03002 	mov	r3, r2
 c103964:	e54b3011 	strb	r3, [fp, #-17]	; 0xffffffef
 c103968:	ea00000b 	b	c10399c <lcd_puts+0x58>
 c10396c:	e51b3018 	ldr	r3, [fp, #-24]	; 0xffffffe8
 c103970:	e5d33000 	ldrb	r3, [r3]
 c103974:	e15b00be 	ldrh	r0, [fp, #-14]
 c103978:	e15b11b0 	ldrh	r1, [fp, #-16]
 c10397c:	e55b2011 	ldrb	r2, [fp, #-17]	; 0xffffffef
 c103980:	ebffff9a 	bl	c1037f0 <lcd_putchar>
 c103984:	e51b3018 	ldr	r3, [fp, #-24]	; 0xffffffe8
 c103988:	e2833001 	add	r3, r3, #1
 c10398c:	e50b3018 	str	r3, [fp, #-24]	; 0xffffffe8
 c103990:	e15b30be 	ldrh	r3, [fp, #-14]
 c103994:	e2833008 	add	r3, r3, #8
 c103998:	e14b30be 	strh	r3, [fp, #-14]
 c10399c:	e51b3018 	ldr	r3, [fp, #-24]	; 0xffffffe8
 c1039a0:	e5d33000 	ldrb	r3, [r3]
 c1039a4:	e3530000 	cmp	r3, #0
 c1039a8:	1affffef 	bne	c10396c <lcd_puts+0x28>
 c1039ac:	e24bd00c 	sub	sp, fp, #12
 c1039b0:	e89d6800 	ldm	sp, {fp, sp, lr}
 c1039b4:	e12fff1e 	bx	lr

0c1039b8 <lcd_putint>:
 c1039b8:	e1a0c00d 	mov	ip, sp
 c1039bc:	e92dd800 	push	{fp, ip, lr, pc}
 c1039c0:	e24cb004 	sub	fp, ip, #4
 c1039c4:	e24dd058 	sub	sp, sp, #88	; 0x58
 c1039c8:	e50b3060 	str	r3, [fp, #-96]	; 0xffffffa0
 c1039cc:	e14b05b6 	strh	r0, [fp, #-86]	; 0xffffffaa
 c1039d0:	e14b15b8 	strh	r1, [fp, #-88]	; 0xffffffa8
 c1039d4:	e1a03002 	mov	r3, r2
 c1039d8:	e54b3059 	strb	r3, [fp, #-89]	; 0xffffffa7
 c1039dc:	e3a03000 	mov	r3, #0
 c1039e0:	e50b3010 	str	r3, [fp, #-16]
 c1039e4:	e3a03000 	mov	r3, #0
 c1039e8:	e50b3014 	str	r3, [fp, #-20]	; 0xffffffec
 c1039ec:	e3a03001 	mov	r3, #1
 c1039f0:	e50b3018 	str	r3, [fp, #-24]	; 0xffffffe8
 c1039f4:	e51b3060 	ldr	r3, [fp, #-96]	; 0xffffffa0
 c1039f8:	e3530000 	cmp	r3, #0
 c1039fc:	aa000005 	bge	c103a18 <lcd_putint+0x60>
 c103a00:	e3e03000 	mvn	r3, #0
 c103a04:	e50b3018 	str	r3, [fp, #-24]	; 0xffffffe8
 c103a08:	e51b3060 	ldr	r3, [fp, #-96]	; 0xffffffa0
 c103a0c:	e51b2018 	ldr	r2, [fp, #-24]	; 0xffffffe8
 c103a10:	e0030392 	mul	r3, r2, r3
 c103a14:	e50b3060 	str	r3, [fp, #-96]	; 0xffffffa0
 c103a18:	e51b1060 	ldr	r1, [fp, #-96]	; 0xffffffa0
 c103a1c:	e59f3208 	ldr	r3, [pc, #520]	; c103c2c <lcd_putint+0x274>
 c103a20:	e0c30391 	smull	r0, r3, r1, r3
 c103a24:	e1a02143 	asr	r2, r3, #2
 c103a28:	e1a03fc1 	asr	r3, r1, #31
 c103a2c:	e0632002 	rsb	r2, r3, r2
 c103a30:	e1a03002 	mov	r3, r2
 c103a34:	e1a03103 	lsl	r3, r3, #2
 c103a38:	e0833002 	add	r3, r3, r2
 c103a3c:	e1a03083 	lsl	r3, r3, #1
 c103a40:	e0632001 	rsb	r2, r3, r1
 c103a44:	e51b1010 	ldr	r1, [fp, #-16]
 c103a48:	e3e03043 	mvn	r3, #67	; 0x43
 c103a4c:	e1a01101 	lsl	r1, r1, #2
 c103a50:	e24b000c 	sub	r0, fp, #12
 c103a54:	e0801001 	add	r1, r0, r1
 c103a58:	e0813003 	add	r3, r1, r3
 c103a5c:	e5832000 	str	r2, [r3]
 c103a60:	e51b3060 	ldr	r3, [fp, #-96]	; 0xffffffa0
 c103a64:	e59f21c0 	ldr	r2, [pc, #448]	; c103c2c <lcd_putint+0x274>
 c103a68:	e0c21293 	smull	r1, r2, r3, r2
 c103a6c:	e1a02142 	asr	r2, r2, #2
 c103a70:	e1a03fc3 	asr	r3, r3, #31
 c103a74:	e0633002 	rsb	r3, r3, r2
 c103a78:	e50b3060 	str	r3, [fp, #-96]	; 0xffffffa0
 c103a7c:	e51b3010 	ldr	r3, [fp, #-16]
 c103a80:	e2833001 	add	r3, r3, #1
 c103a84:	e50b3010 	str	r3, [fp, #-16]
 c103a88:	e51b3014 	ldr	r3, [fp, #-20]	; 0xffffffec
 c103a8c:	e2833001 	add	r3, r3, #1
 c103a90:	e50b3014 	str	r3, [fp, #-20]	; 0xffffffec
 c103a94:	e51b3060 	ldr	r3, [fp, #-96]	; 0xffffffa0
 c103a98:	e3530000 	cmp	r3, #0
 c103a9c:	caffffdd 	bgt	c103a18 <lcd_putint+0x60>
 c103aa0:	e3a03000 	mov	r3, #0
 c103aa4:	e50b301c 	str	r3, [fp, #-28]	; 0xffffffe4
 c103aa8:	e51b3014 	ldr	r3, [fp, #-20]	; 0xffffffec
 c103aac:	e2433001 	sub	r3, r3, #1
 c103ab0:	e50b301c 	str	r3, [fp, #-28]	; 0xffffffe4
 c103ab4:	ea000011 	b	c103b00 <lcd_putint+0x148>
 c103ab8:	e51b201c 	ldr	r2, [fp, #-28]	; 0xffffffe4
 c103abc:	e3e03043 	mvn	r3, #67	; 0x43
 c103ac0:	e1a02102 	lsl	r2, r2, #2
 c103ac4:	e24b000c 	sub	r0, fp, #12
 c103ac8:	e0802002 	add	r2, r0, r2
 c103acc:	e0823003 	add	r3, r2, r3
 c103ad0:	e5933000 	ldr	r3, [r3]
 c103ad4:	e2832030 	add	r2, r3, #48	; 0x30
 c103ad8:	e51b101c 	ldr	r1, [fp, #-28]	; 0xffffffe4
 c103adc:	e3e03043 	mvn	r3, #67	; 0x43
 c103ae0:	e1a01101 	lsl	r1, r1, #2
 c103ae4:	e24b000c 	sub	r0, fp, #12
 c103ae8:	e0801001 	add	r1, r0, r1
 c103aec:	e0813003 	add	r3, r1, r3
 c103af0:	e5832000 	str	r2, [r3]
 c103af4:	e51b301c 	ldr	r3, [fp, #-28]	; 0xffffffe4
 c103af8:	e2433001 	sub	r3, r3, #1
 c103afc:	e50b301c 	str	r3, [fp, #-28]	; 0xffffffe4
 c103b00:	e51b301c 	ldr	r3, [fp, #-28]	; 0xffffffe4
 c103b04:	e3530000 	cmp	r3, #0
 c103b08:	aaffffea 	bge	c103ab8 <lcd_putint+0x100>
 c103b0c:	e51b3018 	ldr	r3, [fp, #-24]	; 0xffffffe8
 c103b10:	e3730001 	cmn	r3, #1
 c103b14:	1a00000a 	bne	c103b44 <lcd_putint+0x18c>
 c103b18:	e15b15b6 	ldrh	r1, [fp, #-86]	; 0xffffffaa
 c103b1c:	e15b25b8 	ldrh	r2, [fp, #-88]	; 0xffffffa8
 c103b20:	e55b3059 	ldrb	r3, [fp, #-89]	; 0xffffffa7
 c103b24:	e1a00001 	mov	r0, r1
 c103b28:	e1a01002 	mov	r1, r2
 c103b2c:	e1a02003 	mov	r2, r3
 c103b30:	e3a0302d 	mov	r3, #45	; 0x2d
 c103b34:	ebffff2d 	bl	c1037f0 <lcd_putchar>
 c103b38:	e15b35b6 	ldrh	r3, [fp, #-86]	; 0xffffffaa
 c103b3c:	e2833008 	add	r3, r3, #8
 c103b40:	e14b35b6 	strh	r3, [fp, #-86]	; 0xffffffaa
 c103b44:	e3a03000 	mov	r3, #0
 c103b48:	e50b3020 	str	r3, [fp, #-32]	; 0xffffffe0
 c103b4c:	ea000026 	b	c103bec <lcd_putint+0x234>
 c103b50:	e51b2020 	ldr	r2, [fp, #-32]	; 0xffffffe0
 c103b54:	e3e03043 	mvn	r3, #67	; 0x43
 c103b58:	e1a02102 	lsl	r2, r2, #2
 c103b5c:	e24b100c 	sub	r1, fp, #12
 c103b60:	e0812002 	add	r2, r1, r2
 c103b64:	e0823003 	add	r3, r2, r3
 c103b68:	e5933000 	ldr	r3, [r3]
 c103b6c:	e50b3024 	str	r3, [fp, #-36]	; 0xffffffdc
 c103b70:	e51b3014 	ldr	r3, [fp, #-20]	; 0xffffffec
 c103b74:	e2432001 	sub	r2, r3, #1
 c103b78:	e51b3020 	ldr	r3, [fp, #-32]	; 0xffffffe0
 c103b7c:	e0632002 	rsb	r2, r3, r2
 c103b80:	e3e03043 	mvn	r3, #67	; 0x43
 c103b84:	e1a02102 	lsl	r2, r2, #2
 c103b88:	e24b000c 	sub	r0, fp, #12
 c103b8c:	e0802002 	add	r2, r0, r2
 c103b90:	e0823003 	add	r3, r2, r3
 c103b94:	e5932000 	ldr	r2, [r3]
 c103b98:	e51b1020 	ldr	r1, [fp, #-32]	; 0xffffffe0
 c103b9c:	e3e03043 	mvn	r3, #67	; 0x43
 c103ba0:	e1a01101 	lsl	r1, r1, #2
 c103ba4:	e24b000c 	sub	r0, fp, #12
 c103ba8:	e0801001 	add	r1, r0, r1
 c103bac:	e0813003 	add	r3, r1, r3
 c103bb0:	e5832000 	str	r2, [r3]
 c103bb4:	e51b3014 	ldr	r3, [fp, #-20]	; 0xffffffec
 c103bb8:	e2432001 	sub	r2, r3, #1
 c103bbc:	e51b3020 	ldr	r3, [fp, #-32]	; 0xffffffe0
 c103bc0:	e0631002 	rsb	r1, r3, r2
 c103bc4:	e51b2024 	ldr	r2, [fp, #-36]	; 0xffffffdc
 c103bc8:	e3e03043 	mvn	r3, #67	; 0x43
 c103bcc:	e1a01101 	lsl	r1, r1, #2
 c103bd0:	e24b000c 	sub	r0, fp, #12
 c103bd4:	e0801001 	add	r1, r0, r1
 c103bd8:	e0813003 	add	r3, r1, r3
 c103bdc:	e5832000 	str	r2, [r3]
 c103be0:	e51b3020 	ldr	r3, [fp, #-32]	; 0xffffffe0
 c103be4:	e2833001 	add	r3, r3, #1
 c103be8:	e50b3020 	str	r3, [fp, #-32]	; 0xffffffe0
 c103bec:	e51b3014 	ldr	r3, [fp, #-20]	; 0xffffffec
 c103bf0:	e1a02fa3 	lsr	r2, r3, #31
 c103bf4:	e0823003 	add	r3, r2, r3
 c103bf8:	e1a030c3 	asr	r3, r3, #1
 c103bfc:	e1a02003 	mov	r2, r3
 c103c00:	e51b3020 	ldr	r3, [fp, #-32]	; 0xffffffe0
 c103c04:	e1520003 	cmp	r2, r3
 c103c08:	caffffd0 	bgt	c103b50 <lcd_putint+0x198>
 c103c0c:	e24b3050 	sub	r3, fp, #80	; 0x50
 c103c10:	e15b05b6 	ldrh	r0, [fp, #-86]	; 0xffffffaa
 c103c14:	e15b15b8 	ldrh	r1, [fp, #-88]	; 0xffffffa8
 c103c18:	e55b2059 	ldrb	r2, [fp, #-89]	; 0xffffffa7
 c103c1c:	ebffff48 	bl	c103944 <lcd_puts>
 c103c20:	e24bd00c 	sub	sp, fp, #12
 c103c24:	e89d6800 	ldm	sp, {fp, sp, lr}
 c103c28:	e12fff1e 	bx	lr
 c103c2c:	66666667 	.word	0x66666667

0c103c30 <lcd_puthex>:
 c103c30:	e1a0c00d 	mov	ip, sp
 c103c34:	e92dd800 	push	{fp, ip, lr, pc}
 c103c38:	e24cb004 	sub	fp, ip, #4
 c103c3c:	e24dd020 	sub	sp, sp, #32
 c103c40:	e50b3028 	str	r3, [fp, #-40]	; 0xffffffd8
 c103c44:	e14b01be 	strh	r0, [fp, #-30]	; 0xffffffe2
 c103c48:	e14b12b0 	strh	r1, [fp, #-32]	; 0xffffffe0
 c103c4c:	e1a03002 	mov	r3, r2
 c103c50:	e54b3021 	strb	r3, [fp, #-33]	; 0xffffffdf
 c103c54:	e24b301c 	sub	r3, fp, #28
 c103c58:	e2833008 	add	r3, r3, #8
 c103c5c:	e50b3010 	str	r3, [fp, #-16]
 c103c60:	e51b3028 	ldr	r3, [fp, #-40]	; 0xffffffd8
 c103c64:	e20330ff 	and	r3, r3, #255	; 0xff
 c103c68:	e203300f 	and	r3, r3, #15
 c103c6c:	e54b3011 	strb	r3, [fp, #-17]	; 0xffffffef
 c103c70:	e55b3011 	ldrb	r3, [fp, #-17]	; 0xffffffef
 c103c74:	e3530009 	cmp	r3, #9
 c103c78:	8a000008 	bhi	c103ca0 <lcd_puthex+0x70>
 c103c7c:	e51b3010 	ldr	r3, [fp, #-16]
 c103c80:	e2433001 	sub	r3, r3, #1
 c103c84:	e50b3010 	str	r3, [fp, #-16]
 c103c88:	e55b3011 	ldrb	r3, [fp, #-17]	; 0xffffffef
 c103c8c:	e2833030 	add	r3, r3, #48	; 0x30
 c103c90:	e20320ff 	and	r2, r3, #255	; 0xff
 c103c94:	e51b3010 	ldr	r3, [fp, #-16]
 c103c98:	e5c32000 	strb	r2, [r3]
 c103c9c:	ea000007 	b	c103cc0 <lcd_puthex+0x90>
 c103ca0:	e51b3010 	ldr	r3, [fp, #-16]
 c103ca4:	e2433001 	sub	r3, r3, #1
 c103ca8:	e50b3010 	str	r3, [fp, #-16]
 c103cac:	e55b3011 	ldrb	r3, [fp, #-17]	; 0xffffffef
 c103cb0:	e2833057 	add	r3, r3, #87	; 0x57
 c103cb4:	e20320ff 	and	r2, r3, #255	; 0xff
 c103cb8:	e51b3010 	ldr	r3, [fp, #-16]
 c103cbc:	e5c32000 	strb	r2, [r3]
 c103cc0:	e51b3028 	ldr	r3, [fp, #-40]	; 0xffffffd8
 c103cc4:	e1a03223 	lsr	r3, r3, #4
 c103cc8:	e50b3028 	str	r3, [fp, #-40]	; 0xffffffd8
 c103ccc:	e51b3028 	ldr	r3, [fp, #-40]	; 0xffffffd8
 c103cd0:	e3530000 	cmp	r3, #0
 c103cd4:	1affffe1 	bne	c103c60 <lcd_puthex+0x30>
 c103cd8:	e15b11be 	ldrh	r1, [fp, #-30]	; 0xffffffe2
 c103cdc:	e15b22b0 	ldrh	r2, [fp, #-32]	; 0xffffffe0
 c103ce0:	e55b3021 	ldrb	r3, [fp, #-33]	; 0xffffffdf
 c103ce4:	e1a00001 	mov	r0, r1
 c103ce8:	e1a01002 	mov	r1, r2
 c103cec:	e1a02003 	mov	r2, r3
 c103cf0:	e51b3010 	ldr	r3, [fp, #-16]
 c103cf4:	ebffff12 	bl	c103944 <lcd_puts>
 c103cf8:	e24bd00c 	sub	sp, fp, #12
 c103cfc:	e89d6800 	ldm	sp, {fp, sp, lr}
 c103d00:	e12fff1e 	bx	lr

0c103d04 <lcd_putchar_x2>:
 c103d04:	e1a0c00d 	mov	ip, sp
 c103d08:	e92dd800 	push	{fp, ip, lr, pc}
 c103d0c:	e24cb004 	sub	fp, ip, #4
 c103d10:	e24dd010 	sub	sp, sp, #16
 c103d14:	e14b01b6 	strh	r0, [fp, #-22]	; 0xffffffea
 c103d18:	e14b11b8 	strh	r1, [fp, #-24]	; 0xffffffe8
 c103d1c:	e54b2019 	strb	r2, [fp, #-25]	; 0xffffffe7
 c103d20:	e54b301a 	strb	r3, [fp, #-26]	; 0xffffffe6
 c103d24:	e55b301a 	ldrb	r3, [fp, #-26]	; 0xffffffe6
 c103d28:	e1a03203 	lsl	r3, r3, #4
 c103d2c:	e1a02003 	mov	r2, r3
 c103d30:	e59f312c 	ldr	r3, [pc, #300]	; c103e64 <lcd_putchar_x2+0x160>
 c103d34:	e0823003 	add	r3, r2, r3
 c103d38:	e50b3014 	str	r3, [fp, #-20]	; 0xffffffec
 c103d3c:	e3a03000 	mov	r3, #0
 c103d40:	e54b300d 	strb	r3, [fp, #-13]
 c103d44:	ea000040 	b	c103e4c <lcd_putchar_x2+0x148>
 c103d48:	e3a03000 	mov	r3, #0
 c103d4c:	e54b300e 	strb	r3, [fp, #-14]
 c103d50:	ea000037 	b	c103e34 <lcd_putchar_x2+0x130>
 c103d54:	e55b300d 	ldrb	r3, [fp, #-13]
 c103d58:	e1a030a3 	lsr	r3, r3, #1
 c103d5c:	e20330ff 	and	r3, r3, #255	; 0xff
 c103d60:	e51b2014 	ldr	r2, [fp, #-20]	; 0xffffffec
 c103d64:	e0823003 	add	r3, r2, r3
 c103d68:	e5d33000 	ldrb	r3, [r3]
 c103d6c:	e1a02003 	mov	r2, r3
 c103d70:	e55b300e 	ldrb	r3, [fp, #-14]
 c103d74:	e1a030a3 	lsr	r3, r3, #1
 c103d78:	e20330ff 	and	r3, r3, #255	; 0xff
 c103d7c:	e3a01080 	mov	r1, #128	; 0x80
 c103d80:	e1a03351 	asr	r3, r1, r3
 c103d84:	e0023003 	and	r3, r2, r3
 c103d88:	e3530000 	cmp	r3, #0
 c103d8c:	0a000013 	beq	c103de0 <lcd_putchar_x2+0xdc>
 c103d90:	e55b300e 	ldrb	r3, [fp, #-14]
 c103d94:	e1a03803 	lsl	r3, r3, #16
 c103d98:	e1a02823 	lsr	r2, r3, #16
 c103d9c:	e15b31b6 	ldrh	r3, [fp, #-22]	; 0xffffffea
 c103da0:	e0823003 	add	r3, r2, r3
 c103da4:	e1a03803 	lsl	r3, r3, #16
 c103da8:	e1a01823 	lsr	r1, r3, #16
 c103dac:	e55b300d 	ldrb	r3, [fp, #-13]
 c103db0:	e1a03803 	lsl	r3, r3, #16
 c103db4:	e1a02823 	lsr	r2, r3, #16
 c103db8:	e15b31b8 	ldrh	r3, [fp, #-24]	; 0xffffffe8
 c103dbc:	e0823003 	add	r3, r2, r3
 c103dc0:	e1a03803 	lsl	r3, r3, #16
 c103dc4:	e1a02823 	lsr	r2, r3, #16
 c103dc8:	e55b3019 	ldrb	r3, [fp, #-25]	; 0xffffffe7
 c103dcc:	e1a00001 	mov	r0, r1
 c103dd0:	e1a01002 	mov	r1, r2
 c103dd4:	e1a02003 	mov	r2, r3
 c103dd8:	ebfffd77 	bl	c1033bc <lcd_putpixel>
 c103ddc:	ea000011 	b	c103e28 <lcd_putchar_x2+0x124>
 c103de0:	e55b300e 	ldrb	r3, [fp, #-14]
 c103de4:	e1a03803 	lsl	r3, r3, #16
 c103de8:	e1a02823 	lsr	r2, r3, #16
 c103dec:	e15b31b6 	ldrh	r3, [fp, #-22]	; 0xffffffea
 c103df0:	e0823003 	add	r3, r2, r3
 c103df4:	e1a03803 	lsl	r3, r3, #16
 c103df8:	e1a02823 	lsr	r2, r3, #16
 c103dfc:	e55b300d 	ldrb	r3, [fp, #-13]
 c103e00:	e1a03803 	lsl	r3, r3, #16
 c103e04:	e1a01823 	lsr	r1, r3, #16
 c103e08:	e15b31b8 	ldrh	r3, [fp, #-24]	; 0xffffffe8
 c103e0c:	e0813003 	add	r3, r1, r3
 c103e10:	e1a03803 	lsl	r3, r3, #16
 c103e14:	e1a03823 	lsr	r3, r3, #16
 c103e18:	e1a00002 	mov	r0, r2
 c103e1c:	e1a01003 	mov	r1, r3
 c103e20:	e3a02000 	mov	r2, #0
 c103e24:	ebfffd64 	bl	c1033bc <lcd_putpixel>
 c103e28:	e55b300e 	ldrb	r3, [fp, #-14]
 c103e2c:	e2833001 	add	r3, r3, #1
 c103e30:	e54b300e 	strb	r3, [fp, #-14]
 c103e34:	e55b300e 	ldrb	r3, [fp, #-14]
 c103e38:	e353000f 	cmp	r3, #15
 c103e3c:	9affffc4 	bls	c103d54 <lcd_putchar_x2+0x50>
 c103e40:	e55b300d 	ldrb	r3, [fp, #-13]
 c103e44:	e2833001 	add	r3, r3, #1
 c103e48:	e54b300d 	strb	r3, [fp, #-13]
 c103e4c:	e55b300d 	ldrb	r3, [fp, #-13]
 c103e50:	e353001f 	cmp	r3, #31
 c103e54:	9affffbb 	bls	c103d48 <lcd_putchar_x2+0x44>
 c103e58:	e24bd00c 	sub	sp, fp, #12
 c103e5c:	e89d6800 	ldm	sp, {fp, sp, lr}
 c103e60:	e12fff1e 	bx	lr
 c103e64:	0c1090d0 	.word	0x0c1090d0

0c103e68 <lcd_puts_x2>:
 c103e68:	e1a0c00d 	mov	ip, sp
 c103e6c:	e92dd800 	push	{fp, ip, lr, pc}
 c103e70:	e24cb004 	sub	fp, ip, #4
 c103e74:	e24dd010 	sub	sp, sp, #16
 c103e78:	e50b3018 	str	r3, [fp, #-24]	; 0xffffffe8
 c103e7c:	e14b00be 	strh	r0, [fp, #-14]
 c103e80:	e14b11b0 	strh	r1, [fp, #-16]
 c103e84:	e1a03002 	mov	r3, r2
 c103e88:	e54b3011 	strb	r3, [fp, #-17]	; 0xffffffef
 c103e8c:	ea00000b 	b	c103ec0 <lcd_puts_x2+0x58>
 c103e90:	e51b3018 	ldr	r3, [fp, #-24]	; 0xffffffe8
 c103e94:	e5d33000 	ldrb	r3, [r3]
 c103e98:	e15b00be 	ldrh	r0, [fp, #-14]
 c103e9c:	e15b11b0 	ldrh	r1, [fp, #-16]
 c103ea0:	e55b2011 	ldrb	r2, [fp, #-17]	; 0xffffffef
 c103ea4:	ebffff96 	bl	c103d04 <lcd_putchar_x2>
 c103ea8:	e51b3018 	ldr	r3, [fp, #-24]	; 0xffffffe8
 c103eac:	e2833001 	add	r3, r3, #1
 c103eb0:	e50b3018 	str	r3, [fp, #-24]	; 0xffffffe8
 c103eb4:	e15b30be 	ldrh	r3, [fp, #-14]
 c103eb8:	e2833010 	add	r3, r3, #16
 c103ebc:	e14b30be 	strh	r3, [fp, #-14]
 c103ec0:	e51b3018 	ldr	r3, [fp, #-24]	; 0xffffffe8
 c103ec4:	e5d33000 	ldrb	r3, [r3]
 c103ec8:	e3530000 	cmp	r3, #0
 c103ecc:	1affffef 	bne	c103e90 <lcd_puts_x2+0x28>
 c103ed0:	e24bd00c 	sub	sp, fp, #12
 c103ed4:	e89d6800 	ldm	sp, {fp, sp, lr}
 c103ed8:	e12fff1e 	bx	lr

0c103edc <lcd_putint_x2>:
 c103edc:	e1a0c00d 	mov	ip, sp
 c103ee0:	e92dd800 	push	{fp, ip, lr, pc}
 c103ee4:	e24cb004 	sub	fp, ip, #4
 c103ee8:	e24dd058 	sub	sp, sp, #88	; 0x58
 c103eec:	e50b3060 	str	r3, [fp, #-96]	; 0xffffffa0
 c103ef0:	e14b05b6 	strh	r0, [fp, #-86]	; 0xffffffaa
 c103ef4:	e14b15b8 	strh	r1, [fp, #-88]	; 0xffffffa8
 c103ef8:	e1a03002 	mov	r3, r2
 c103efc:	e54b3059 	strb	r3, [fp, #-89]	; 0xffffffa7
 c103f00:	e3a03000 	mov	r3, #0
 c103f04:	e50b3010 	str	r3, [fp, #-16]
 c103f08:	e3a03000 	mov	r3, #0
 c103f0c:	e50b3014 	str	r3, [fp, #-20]	; 0xffffffec
 c103f10:	e3a03001 	mov	r3, #1
 c103f14:	e50b3018 	str	r3, [fp, #-24]	; 0xffffffe8
 c103f18:	e51b3060 	ldr	r3, [fp, #-96]	; 0xffffffa0
 c103f1c:	e3530000 	cmp	r3, #0
 c103f20:	aa000005 	bge	c103f3c <lcd_putint_x2+0x60>
 c103f24:	e3e03000 	mvn	r3, #0
 c103f28:	e50b3018 	str	r3, [fp, #-24]	; 0xffffffe8
 c103f2c:	e51b3060 	ldr	r3, [fp, #-96]	; 0xffffffa0
 c103f30:	e51b2018 	ldr	r2, [fp, #-24]	; 0xffffffe8
 c103f34:	e0030392 	mul	r3, r2, r3
 c103f38:	e50b3060 	str	r3, [fp, #-96]	; 0xffffffa0
 c103f3c:	e51b1060 	ldr	r1, [fp, #-96]	; 0xffffffa0
 c103f40:	e59f3208 	ldr	r3, [pc, #520]	; c104150 <lcd_putint_x2+0x274>
 c103f44:	e0c30391 	smull	r0, r3, r1, r3
 c103f48:	e1a02143 	asr	r2, r3, #2
 c103f4c:	e1a03fc1 	asr	r3, r1, #31
 c103f50:	e0632002 	rsb	r2, r3, r2
 c103f54:	e1a03002 	mov	r3, r2
 c103f58:	e1a03103 	lsl	r3, r3, #2
 c103f5c:	e0833002 	add	r3, r3, r2
 c103f60:	e1a03083 	lsl	r3, r3, #1
 c103f64:	e0632001 	rsb	r2, r3, r1
 c103f68:	e51b1010 	ldr	r1, [fp, #-16]
 c103f6c:	e3e03043 	mvn	r3, #67	; 0x43
 c103f70:	e1a01101 	lsl	r1, r1, #2
 c103f74:	e24b000c 	sub	r0, fp, #12
 c103f78:	e0801001 	add	r1, r0, r1
 c103f7c:	e0813003 	add	r3, r1, r3
 c103f80:	e5832000 	str	r2, [r3]
 c103f84:	e51b3060 	ldr	r3, [fp, #-96]	; 0xffffffa0
 c103f88:	e59f21c0 	ldr	r2, [pc, #448]	; c104150 <lcd_putint_x2+0x274>
 c103f8c:	e0c21293 	smull	r1, r2, r3, r2
 c103f90:	e1a02142 	asr	r2, r2, #2
 c103f94:	e1a03fc3 	asr	r3, r3, #31
 c103f98:	e0633002 	rsb	r3, r3, r2
 c103f9c:	e50b3060 	str	r3, [fp, #-96]	; 0xffffffa0
 c103fa0:	e51b3010 	ldr	r3, [fp, #-16]
 c103fa4:	e2833001 	add	r3, r3, #1
 c103fa8:	e50b3010 	str	r3, [fp, #-16]
 c103fac:	e51b3014 	ldr	r3, [fp, #-20]	; 0xffffffec
 c103fb0:	e2833001 	add	r3, r3, #1
 c103fb4:	e50b3014 	str	r3, [fp, #-20]	; 0xffffffec
 c103fb8:	e51b3060 	ldr	r3, [fp, #-96]	; 0xffffffa0
 c103fbc:	e3530000 	cmp	r3, #0
 c103fc0:	caffffdd 	bgt	c103f3c <lcd_putint_x2+0x60>
 c103fc4:	e3a03000 	mov	r3, #0
 c103fc8:	e50b301c 	str	r3, [fp, #-28]	; 0xffffffe4
 c103fcc:	e51b3014 	ldr	r3, [fp, #-20]	; 0xffffffec
 c103fd0:	e2433001 	sub	r3, r3, #1
 c103fd4:	e50b301c 	str	r3, [fp, #-28]	; 0xffffffe4
 c103fd8:	ea000011 	b	c104024 <lcd_putint_x2+0x148>
 c103fdc:	e51b201c 	ldr	r2, [fp, #-28]	; 0xffffffe4
 c103fe0:	e3e03043 	mvn	r3, #67	; 0x43
 c103fe4:	e1a02102 	lsl	r2, r2, #2
 c103fe8:	e24b000c 	sub	r0, fp, #12
 c103fec:	e0802002 	add	r2, r0, r2
 c103ff0:	e0823003 	add	r3, r2, r3
 c103ff4:	e5933000 	ldr	r3, [r3]
 c103ff8:	e2832030 	add	r2, r3, #48	; 0x30
 c103ffc:	e51b101c 	ldr	r1, [fp, #-28]	; 0xffffffe4
 c104000:	e3e03043 	mvn	r3, #67	; 0x43
 c104004:	e1a01101 	lsl	r1, r1, #2
 c104008:	e24b000c 	sub	r0, fp, #12
 c10400c:	e0801001 	add	r1, r0, r1
 c104010:	e0813003 	add	r3, r1, r3
 c104014:	e5832000 	str	r2, [r3]
 c104018:	e51b301c 	ldr	r3, [fp, #-28]	; 0xffffffe4
 c10401c:	e2433001 	sub	r3, r3, #1
 c104020:	e50b301c 	str	r3, [fp, #-28]	; 0xffffffe4
 c104024:	e51b301c 	ldr	r3, [fp, #-28]	; 0xffffffe4
 c104028:	e3530000 	cmp	r3, #0
 c10402c:	aaffffea 	bge	c103fdc <lcd_putint_x2+0x100>
 c104030:	e51b3018 	ldr	r3, [fp, #-24]	; 0xffffffe8
 c104034:	e3730001 	cmn	r3, #1
 c104038:	1a00000a 	bne	c104068 <lcd_putint_x2+0x18c>
 c10403c:	e15b15b6 	ldrh	r1, [fp, #-86]	; 0xffffffaa
 c104040:	e15b25b8 	ldrh	r2, [fp, #-88]	; 0xffffffa8
 c104044:	e55b3059 	ldrb	r3, [fp, #-89]	; 0xffffffa7
 c104048:	e1a00001 	mov	r0, r1
 c10404c:	e1a01002 	mov	r1, r2
 c104050:	e1a02003 	mov	r2, r3
 c104054:	e3a0302d 	mov	r3, #45	; 0x2d
 c104058:	ebffff29 	bl	c103d04 <lcd_putchar_x2>
 c10405c:	e15b35b6 	ldrh	r3, [fp, #-86]	; 0xffffffaa
 c104060:	e2833008 	add	r3, r3, #8
 c104064:	e14b35b6 	strh	r3, [fp, #-86]	; 0xffffffaa
 c104068:	e3a03000 	mov	r3, #0
 c10406c:	e50b3020 	str	r3, [fp, #-32]	; 0xffffffe0
 c104070:	ea000026 	b	c104110 <lcd_putint_x2+0x234>
 c104074:	e51b2020 	ldr	r2, [fp, #-32]	; 0xffffffe0
 c104078:	e3e03043 	mvn	r3, #67	; 0x43
 c10407c:	e1a02102 	lsl	r2, r2, #2
 c104080:	e24b100c 	sub	r1, fp, #12
 c104084:	e0812002 	add	r2, r1, r2
 c104088:	e0823003 	add	r3, r2, r3
 c10408c:	e5933000 	ldr	r3, [r3]
 c104090:	e50b3024 	str	r3, [fp, #-36]	; 0xffffffdc
 c104094:	e51b3014 	ldr	r3, [fp, #-20]	; 0xffffffec
 c104098:	e2432001 	sub	r2, r3, #1
 c10409c:	e51b3020 	ldr	r3, [fp, #-32]	; 0xffffffe0
 c1040a0:	e0632002 	rsb	r2, r3, r2
 c1040a4:	e3e03043 	mvn	r3, #67	; 0x43
 c1040a8:	e1a02102 	lsl	r2, r2, #2
 c1040ac:	e24b000c 	sub	r0, fp, #12
 c1040b0:	e0802002 	add	r2, r0, r2
 c1040b4:	e0823003 	add	r3, r2, r3
 c1040b8:	e5932000 	ldr	r2, [r3]
 c1040bc:	e51b1020 	ldr	r1, [fp, #-32]	; 0xffffffe0
 c1040c0:	e3e03043 	mvn	r3, #67	; 0x43
 c1040c4:	e1a01101 	lsl	r1, r1, #2
 c1040c8:	e24b000c 	sub	r0, fp, #12
 c1040cc:	e0801001 	add	r1, r0, r1
 c1040d0:	e0813003 	add	r3, r1, r3
 c1040d4:	e5832000 	str	r2, [r3]
 c1040d8:	e51b3014 	ldr	r3, [fp, #-20]	; 0xffffffec
 c1040dc:	e2432001 	sub	r2, r3, #1
 c1040e0:	e51b3020 	ldr	r3, [fp, #-32]	; 0xffffffe0
 c1040e4:	e0631002 	rsb	r1, r3, r2
 c1040e8:	e51b2024 	ldr	r2, [fp, #-36]	; 0xffffffdc
 c1040ec:	e3e03043 	mvn	r3, #67	; 0x43
 c1040f0:	e1a01101 	lsl	r1, r1, #2
 c1040f4:	e24b000c 	sub	r0, fp, #12
 c1040f8:	e0801001 	add	r1, r0, r1
 c1040fc:	e0813003 	add	r3, r1, r3
 c104100:	e5832000 	str	r2, [r3]
 c104104:	e51b3020 	ldr	r3, [fp, #-32]	; 0xffffffe0
 c104108:	e2833001 	add	r3, r3, #1
 c10410c:	e50b3020 	str	r3, [fp, #-32]	; 0xffffffe0
 c104110:	e51b3014 	ldr	r3, [fp, #-20]	; 0xffffffec
 c104114:	e1a02fa3 	lsr	r2, r3, #31
 c104118:	e0823003 	add	r3, r2, r3
 c10411c:	e1a030c3 	asr	r3, r3, #1
 c104120:	e1a02003 	mov	r2, r3
 c104124:	e51b3020 	ldr	r3, [fp, #-32]	; 0xffffffe0
 c104128:	e1520003 	cmp	r2, r3
 c10412c:	caffffd0 	bgt	c104074 <lcd_putint_x2+0x198>
 c104130:	e24b3050 	sub	r3, fp, #80	; 0x50
 c104134:	e15b05b6 	ldrh	r0, [fp, #-86]	; 0xffffffaa
 c104138:	e15b15b8 	ldrh	r1, [fp, #-88]	; 0xffffffa8
 c10413c:	e55b2059 	ldrb	r2, [fp, #-89]	; 0xffffffa7
 c104140:	ebffff48 	bl	c103e68 <lcd_puts_x2>
 c104144:	e24bd00c 	sub	sp, fp, #12
 c104148:	e89d6800 	ldm	sp, {fp, sp, lr}
 c10414c:	e12fff1e 	bx	lr
 c104150:	66666667 	.word	0x66666667

0c104154 <lcd_puthex_x2>:
 c104154:	e1a0c00d 	mov	ip, sp
 c104158:	e92dd800 	push	{fp, ip, lr, pc}
 c10415c:	e24cb004 	sub	fp, ip, #4
 c104160:	e24dd020 	sub	sp, sp, #32
 c104164:	e50b3028 	str	r3, [fp, #-40]	; 0xffffffd8
 c104168:	e14b01be 	strh	r0, [fp, #-30]	; 0xffffffe2
 c10416c:	e14b12b0 	strh	r1, [fp, #-32]	; 0xffffffe0
 c104170:	e1a03002 	mov	r3, r2
 c104174:	e54b3021 	strb	r3, [fp, #-33]	; 0xffffffdf
 c104178:	e24b301c 	sub	r3, fp, #28
 c10417c:	e2833008 	add	r3, r3, #8
 c104180:	e50b3010 	str	r3, [fp, #-16]
 c104184:	e51b3028 	ldr	r3, [fp, #-40]	; 0xffffffd8
 c104188:	e20330ff 	and	r3, r3, #255	; 0xff
 c10418c:	e203300f 	and	r3, r3, #15
 c104190:	e54b3011 	strb	r3, [fp, #-17]	; 0xffffffef
 c104194:	e55b3011 	ldrb	r3, [fp, #-17]	; 0xffffffef
 c104198:	e3530009 	cmp	r3, #9
 c10419c:	8a000008 	bhi	c1041c4 <lcd_puthex_x2+0x70>
 c1041a0:	e51b3010 	ldr	r3, [fp, #-16]
 c1041a4:	e2433001 	sub	r3, r3, #1
 c1041a8:	e50b3010 	str	r3, [fp, #-16]
 c1041ac:	e55b3011 	ldrb	r3, [fp, #-17]	; 0xffffffef
 c1041b0:	e2833030 	add	r3, r3, #48	; 0x30
 c1041b4:	e20320ff 	and	r2, r3, #255	; 0xff
 c1041b8:	e51b3010 	ldr	r3, [fp, #-16]
 c1041bc:	e5c32000 	strb	r2, [r3]
 c1041c0:	ea000007 	b	c1041e4 <lcd_puthex_x2+0x90>
 c1041c4:	e51b3010 	ldr	r3, [fp, #-16]
 c1041c8:	e2433001 	sub	r3, r3, #1
 c1041cc:	e50b3010 	str	r3, [fp, #-16]
 c1041d0:	e55b3011 	ldrb	r3, [fp, #-17]	; 0xffffffef
 c1041d4:	e2833057 	add	r3, r3, #87	; 0x57
 c1041d8:	e20320ff 	and	r2, r3, #255	; 0xff
 c1041dc:	e51b3010 	ldr	r3, [fp, #-16]
 c1041e0:	e5c32000 	strb	r2, [r3]
 c1041e4:	e51b3028 	ldr	r3, [fp, #-40]	; 0xffffffd8
 c1041e8:	e1a03223 	lsr	r3, r3, #4
 c1041ec:	e50b3028 	str	r3, [fp, #-40]	; 0xffffffd8
 c1041f0:	e51b3028 	ldr	r3, [fp, #-40]	; 0xffffffd8
 c1041f4:	e3530000 	cmp	r3, #0
 c1041f8:	1affffe1 	bne	c104184 <lcd_puthex_x2+0x30>
 c1041fc:	e15b11be 	ldrh	r1, [fp, #-30]	; 0xffffffe2
 c104200:	e15b22b0 	ldrh	r2, [fp, #-32]	; 0xffffffe0
 c104204:	e55b3021 	ldrb	r3, [fp, #-33]	; 0xffffffdf
 c104208:	e1a00001 	mov	r0, r1
 c10420c:	e1a01002 	mov	r1, r2
 c104210:	e1a02003 	mov	r2, r3
 c104214:	e51b3010 	ldr	r3, [fp, #-16]
 c104218:	ebffff12 	bl	c103e68 <lcd_puts_x2>
 c10421c:	e24bd00c 	sub	sp, fp, #12
 c104220:	e89d6800 	ldm	sp, {fp, sp, lr}
 c104224:	e12fff1e 	bx	lr

0c104228 <lcd_puts_x3>:
 c104228:	e1a0c00d 	mov	ip, sp
 c10422c:	e92dd800 	push	{fp, ip, lr, pc}
 c104230:	e24cb004 	sub	fp, ip, #4
 c104234:	e24dd010 	sub	sp, sp, #16
 c104238:	e50b3018 	str	r3, [fp, #-24]	; 0xffffffe8
 c10423c:	e14b00be 	strh	r0, [fp, #-14]
 c104240:	e14b11b0 	strh	r1, [fp, #-16]
 c104244:	e1a03002 	mov	r3, r2
 c104248:	e54b3011 	strb	r3, [fp, #-17]	; 0xffffffef
 c10424c:	ea00000b 	b	c104280 <lcd_puts_x3+0x58>
 c104250:	e51b3018 	ldr	r3, [fp, #-24]	; 0xffffffe8
 c104254:	e5d33000 	ldrb	r3, [r3]
 c104258:	e15b00be 	ldrh	r0, [fp, #-14]
 c10425c:	e15b11b0 	ldrh	r1, [fp, #-16]
 c104260:	e55b2011 	ldrb	r2, [fp, #-17]	; 0xffffffef
 c104264:	eb0000aa 	bl	c104514 <lcd_putchar_x3>
 c104268:	e51b3018 	ldr	r3, [fp, #-24]	; 0xffffffe8
 c10426c:	e2833001 	add	r3, r3, #1
 c104270:	e50b3018 	str	r3, [fp, #-24]	; 0xffffffe8
 c104274:	e15b30be 	ldrh	r3, [fp, #-14]
 c104278:	e2833018 	add	r3, r3, #24
 c10427c:	e14b30be 	strh	r3, [fp, #-14]
 c104280:	e51b3018 	ldr	r3, [fp, #-24]	; 0xffffffe8
 c104284:	e5d33000 	ldrb	r3, [r3]
 c104288:	e3530000 	cmp	r3, #0
 c10428c:	1affffef 	bne	c104250 <lcd_puts_x3+0x28>
 c104290:	e24bd00c 	sub	sp, fp, #12
 c104294:	e89d6800 	ldm	sp, {fp, sp, lr}
 c104298:	e12fff1e 	bx	lr

0c10429c <lcd_putint_x3>:
 c10429c:	e1a0c00d 	mov	ip, sp
 c1042a0:	e92dd800 	push	{fp, ip, lr, pc}
 c1042a4:	e24cb004 	sub	fp, ip, #4
 c1042a8:	e24dd058 	sub	sp, sp, #88	; 0x58
 c1042ac:	e50b3060 	str	r3, [fp, #-96]	; 0xffffffa0
 c1042b0:	e14b05b6 	strh	r0, [fp, #-86]	; 0xffffffaa
 c1042b4:	e14b15b8 	strh	r1, [fp, #-88]	; 0xffffffa8
 c1042b8:	e1a03002 	mov	r3, r2
 c1042bc:	e54b3059 	strb	r3, [fp, #-89]	; 0xffffffa7
 c1042c0:	e3a03000 	mov	r3, #0
 c1042c4:	e50b3010 	str	r3, [fp, #-16]
 c1042c8:	e3a03000 	mov	r3, #0
 c1042cc:	e50b3014 	str	r3, [fp, #-20]	; 0xffffffec
 c1042d0:	e3a03001 	mov	r3, #1
 c1042d4:	e50b3018 	str	r3, [fp, #-24]	; 0xffffffe8
 c1042d8:	e51b3060 	ldr	r3, [fp, #-96]	; 0xffffffa0
 c1042dc:	e3530000 	cmp	r3, #0
 c1042e0:	aa000005 	bge	c1042fc <lcd_putint_x3+0x60>
 c1042e4:	e3e03000 	mvn	r3, #0
 c1042e8:	e50b3018 	str	r3, [fp, #-24]	; 0xffffffe8
 c1042ec:	e51b3060 	ldr	r3, [fp, #-96]	; 0xffffffa0
 c1042f0:	e51b2018 	ldr	r2, [fp, #-24]	; 0xffffffe8
 c1042f4:	e0030392 	mul	r3, r2, r3
 c1042f8:	e50b3060 	str	r3, [fp, #-96]	; 0xffffffa0
 c1042fc:	e51b1060 	ldr	r1, [fp, #-96]	; 0xffffffa0
 c104300:	e59f3208 	ldr	r3, [pc, #520]	; c104510 <lcd_putint_x3+0x274>
 c104304:	e0c30391 	smull	r0, r3, r1, r3
 c104308:	e1a02143 	asr	r2, r3, #2
 c10430c:	e1a03fc1 	asr	r3, r1, #31
 c104310:	e0632002 	rsb	r2, r3, r2
 c104314:	e1a03002 	mov	r3, r2
 c104318:	e1a03103 	lsl	r3, r3, #2
 c10431c:	e0833002 	add	r3, r3, r2
 c104320:	e1a03083 	lsl	r3, r3, #1
 c104324:	e0632001 	rsb	r2, r3, r1
 c104328:	e51b1010 	ldr	r1, [fp, #-16]
 c10432c:	e3e03043 	mvn	r3, #67	; 0x43
 c104330:	e1a01101 	lsl	r1, r1, #2
 c104334:	e24b000c 	sub	r0, fp, #12
 c104338:	e0801001 	add	r1, r0, r1
 c10433c:	e0813003 	add	r3, r1, r3
 c104340:	e5832000 	str	r2, [r3]
 c104344:	e51b3060 	ldr	r3, [fp, #-96]	; 0xffffffa0
 c104348:	e59f21c0 	ldr	r2, [pc, #448]	; c104510 <lcd_putint_x3+0x274>
 c10434c:	e0c21293 	smull	r1, r2, r3, r2
 c104350:	e1a02142 	asr	r2, r2, #2
 c104354:	e1a03fc3 	asr	r3, r3, #31
 c104358:	e0633002 	rsb	r3, r3, r2
 c10435c:	e50b3060 	str	r3, [fp, #-96]	; 0xffffffa0
 c104360:	e51b3010 	ldr	r3, [fp, #-16]
 c104364:	e2833001 	add	r3, r3, #1
 c104368:	e50b3010 	str	r3, [fp, #-16]
 c10436c:	e51b3014 	ldr	r3, [fp, #-20]	; 0xffffffec
 c104370:	e2833001 	add	r3, r3, #1
 c104374:	e50b3014 	str	r3, [fp, #-20]	; 0xffffffec
 c104378:	e51b3060 	ldr	r3, [fp, #-96]	; 0xffffffa0
 c10437c:	e3530000 	cmp	r3, #0
 c104380:	caffffdd 	bgt	c1042fc <lcd_putint_x3+0x60>
 c104384:	e3a03000 	mov	r3, #0
 c104388:	e50b301c 	str	r3, [fp, #-28]	; 0xffffffe4
 c10438c:	e51b3014 	ldr	r3, [fp, #-20]	; 0xffffffec
 c104390:	e2433001 	sub	r3, r3, #1
 c104394:	e50b301c 	str	r3, [fp, #-28]	; 0xffffffe4
 c104398:	ea000011 	b	c1043e4 <lcd_putint_x3+0x148>
 c10439c:	e51b201c 	ldr	r2, [fp, #-28]	; 0xffffffe4
 c1043a0:	e3e03043 	mvn	r3, #67	; 0x43
 c1043a4:	e1a02102 	lsl	r2, r2, #2
 c1043a8:	e24b000c 	sub	r0, fp, #12
 c1043ac:	e0802002 	add	r2, r0, r2
 c1043b0:	e0823003 	add	r3, r2, r3
 c1043b4:	e5933000 	ldr	r3, [r3]
 c1043b8:	e2832030 	add	r2, r3, #48	; 0x30
 c1043bc:	e51b101c 	ldr	r1, [fp, #-28]	; 0xffffffe4
 c1043c0:	e3e03043 	mvn	r3, #67	; 0x43
 c1043c4:	e1a01101 	lsl	r1, r1, #2
 c1043c8:	e24b000c 	sub	r0, fp, #12
 c1043cc:	e0801001 	add	r1, r0, r1
 c1043d0:	e0813003 	add	r3, r1, r3
 c1043d4:	e5832000 	str	r2, [r3]
 c1043d8:	e51b301c 	ldr	r3, [fp, #-28]	; 0xffffffe4
 c1043dc:	e2433001 	sub	r3, r3, #1
 c1043e0:	e50b301c 	str	r3, [fp, #-28]	; 0xffffffe4
 c1043e4:	e51b301c 	ldr	r3, [fp, #-28]	; 0xffffffe4
 c1043e8:	e3530000 	cmp	r3, #0
 c1043ec:	aaffffea 	bge	c10439c <lcd_putint_x3+0x100>
 c1043f0:	e51b3018 	ldr	r3, [fp, #-24]	; 0xffffffe8
 c1043f4:	e3730001 	cmn	r3, #1
 c1043f8:	1a00000a 	bne	c104428 <lcd_putint_x3+0x18c>
 c1043fc:	e15b15b6 	ldrh	r1, [fp, #-86]	; 0xffffffaa
 c104400:	e15b25b8 	ldrh	r2, [fp, #-88]	; 0xffffffa8
 c104404:	e55b3059 	ldrb	r3, [fp, #-89]	; 0xffffffa7
 c104408:	e1a00001 	mov	r0, r1
 c10440c:	e1a01002 	mov	r1, r2
 c104410:	e1a02003 	mov	r2, r3
 c104414:	e3a0302d 	mov	r3, #45	; 0x2d
 c104418:	ebfffe39 	bl	c103d04 <lcd_putchar_x2>
 c10441c:	e15b35b6 	ldrh	r3, [fp, #-86]	; 0xffffffaa
 c104420:	e2833008 	add	r3, r3, #8
 c104424:	e14b35b6 	strh	r3, [fp, #-86]	; 0xffffffaa
 c104428:	e3a03000 	mov	r3, #0
 c10442c:	e50b3020 	str	r3, [fp, #-32]	; 0xffffffe0
 c104430:	ea000026 	b	c1044d0 <lcd_putint_x3+0x234>
 c104434:	e51b2020 	ldr	r2, [fp, #-32]	; 0xffffffe0
 c104438:	e3e03043 	mvn	r3, #67	; 0x43
 c10443c:	e1a02102 	lsl	r2, r2, #2
 c104440:	e24b100c 	sub	r1, fp, #12
 c104444:	e0812002 	add	r2, r1, r2
 c104448:	e0823003 	add	r3, r2, r3
 c10444c:	e5933000 	ldr	r3, [r3]
 c104450:	e50b3024 	str	r3, [fp, #-36]	; 0xffffffdc
 c104454:	e51b3014 	ldr	r3, [fp, #-20]	; 0xffffffec
 c104458:	e2432001 	sub	r2, r3, #1
 c10445c:	e51b3020 	ldr	r3, [fp, #-32]	; 0xffffffe0
 c104460:	e0632002 	rsb	r2, r3, r2
 c104464:	e3e03043 	mvn	r3, #67	; 0x43
 c104468:	e1a02102 	lsl	r2, r2, #2
 c10446c:	e24b000c 	sub	r0, fp, #12
 c104470:	e0802002 	add	r2, r0, r2
 c104474:	e0823003 	add	r3, r2, r3
 c104478:	e5932000 	ldr	r2, [r3]
 c10447c:	e51b1020 	ldr	r1, [fp, #-32]	; 0xffffffe0
 c104480:	e3e03043 	mvn	r3, #67	; 0x43
 c104484:	e1a01101 	lsl	r1, r1, #2
 c104488:	e24b000c 	sub	r0, fp, #12
 c10448c:	e0801001 	add	r1, r0, r1
 c104490:	e0813003 	add	r3, r1, r3
 c104494:	e5832000 	str	r2, [r3]
 c104498:	e51b3014 	ldr	r3, [fp, #-20]	; 0xffffffec
 c10449c:	e2432001 	sub	r2, r3, #1
 c1044a0:	e51b3020 	ldr	r3, [fp, #-32]	; 0xffffffe0
 c1044a4:	e0631002 	rsb	r1, r3, r2
 c1044a8:	e51b2024 	ldr	r2, [fp, #-36]	; 0xffffffdc
 c1044ac:	e3e03043 	mvn	r3, #67	; 0x43
 c1044b0:	e1a01101 	lsl	r1, r1, #2
 c1044b4:	e24b000c 	sub	r0, fp, #12
 c1044b8:	e0801001 	add	r1, r0, r1
 c1044bc:	e0813003 	add	r3, r1, r3
 c1044c0:	e5832000 	str	r2, [r3]
 c1044c4:	e51b3020 	ldr	r3, [fp, #-32]	; 0xffffffe0
 c1044c8:	e2833001 	add	r3, r3, #1
 c1044cc:	e50b3020 	str	r3, [fp, #-32]	; 0xffffffe0
 c1044d0:	e51b3014 	ldr	r3, [fp, #-20]	; 0xffffffec
 c1044d4:	e1a02fa3 	lsr	r2, r3, #31
 c1044d8:	e0823003 	add	r3, r2, r3
 c1044dc:	e1a030c3 	asr	r3, r3, #1
 c1044e0:	e1a02003 	mov	r2, r3
 c1044e4:	e51b3020 	ldr	r3, [fp, #-32]	; 0xffffffe0
 c1044e8:	e1520003 	cmp	r2, r3
 c1044ec:	caffffd0 	bgt	c104434 <lcd_putint_x3+0x198>
 c1044f0:	e24b3050 	sub	r3, fp, #80	; 0x50
 c1044f4:	e15b05b6 	ldrh	r0, [fp, #-86]	; 0xffffffaa
 c1044f8:	e15b15b8 	ldrh	r1, [fp, #-88]	; 0xffffffa8
 c1044fc:	e55b2059 	ldrb	r2, [fp, #-89]	; 0xffffffa7
 c104500:	ebffff48 	bl	c104228 <lcd_puts_x3>
 c104504:	e24bd00c 	sub	sp, fp, #12
 c104508:	e89d6800 	ldm	sp, {fp, sp, lr}
 c10450c:	e12fff1e 	bx	lr
 c104510:	66666667 	.word	0x66666667

0c104514 <lcd_putchar_x3>:
 c104514:	e1a0c00d 	mov	ip, sp
 c104518:	e92dd800 	push	{fp, ip, lr, pc}
 c10451c:	e24cb004 	sub	fp, ip, #4
 c104520:	e24dd010 	sub	sp, sp, #16
 c104524:	e14b01b6 	strh	r0, [fp, #-22]	; 0xffffffea
 c104528:	e14b11b8 	strh	r1, [fp, #-24]	; 0xffffffe8
 c10452c:	e54b2019 	strb	r2, [fp, #-25]	; 0xffffffe7
 c104530:	e54b301a 	strb	r3, [fp, #-26]	; 0xffffffe6
 c104534:	e55b301a 	ldrb	r3, [fp, #-26]	; 0xffffffe6
 c104538:	e1a03203 	lsl	r3, r3, #4
 c10453c:	e1a02003 	mov	r2, r3
 c104540:	e59f313c 	ldr	r3, [pc, #316]	; c104684 <lcd_putchar_x3+0x170>
 c104544:	e0823003 	add	r3, r2, r3
 c104548:	e50b3014 	str	r3, [fp, #-20]	; 0xffffffec
 c10454c:	e3a03000 	mov	r3, #0
 c104550:	e54b300d 	strb	r3, [fp, #-13]
 c104554:	ea000044 	b	c10466c <lcd_putchar_x3+0x158>
 c104558:	e3a03000 	mov	r3, #0
 c10455c:	e54b300e 	strb	r3, [fp, #-14]
 c104560:	ea00003b 	b	c104654 <lcd_putchar_x3+0x140>
 c104564:	e55b200d 	ldrb	r2, [fp, #-13]
 c104568:	e59f3118 	ldr	r3, [pc, #280]	; c104688 <lcd_putchar_x3+0x174>
 c10456c:	e0830392 	umull	r0, r3, r2, r3
 c104570:	e1a030a3 	lsr	r3, r3, #1
 c104574:	e20330ff 	and	r3, r3, #255	; 0xff
 c104578:	e51b2014 	ldr	r2, [fp, #-20]	; 0xffffffec
 c10457c:	e0823003 	add	r3, r2, r3
 c104580:	e5d33000 	ldrb	r3, [r3]
 c104584:	e1a02003 	mov	r2, r3
 c104588:	e55b100e 	ldrb	r1, [fp, #-14]
 c10458c:	e59f30f4 	ldr	r3, [pc, #244]	; c104688 <lcd_putchar_x3+0x174>
 c104590:	e0830391 	umull	r0, r3, r1, r3
 c104594:	e1a030a3 	lsr	r3, r3, #1
 c104598:	e20330ff 	and	r3, r3, #255	; 0xff
 c10459c:	e3a01080 	mov	r1, #128	; 0x80
 c1045a0:	e1a03351 	asr	r3, r1, r3
 c1045a4:	e0023003 	and	r3, r2, r3
 c1045a8:	e3530000 	cmp	r3, #0
 c1045ac:	0a000013 	beq	c104600 <lcd_putchar_x3+0xec>
 c1045b0:	e55b300e 	ldrb	r3, [fp, #-14]
 c1045b4:	e1a03803 	lsl	r3, r3, #16
 c1045b8:	e1a02823 	lsr	r2, r3, #16
 c1045bc:	e15b31b6 	ldrh	r3, [fp, #-22]	; 0xffffffea
 c1045c0:	e0823003 	add	r3, r2, r3
 c1045c4:	e1a03803 	lsl	r3, r3, #16
 c1045c8:	e1a01823 	lsr	r1, r3, #16
 c1045cc:	e55b300d 	ldrb	r3, [fp, #-13]
 c1045d0:	e1a03803 	lsl	r3, r3, #16
 c1045d4:	e1a02823 	lsr	r2, r3, #16
 c1045d8:	e15b31b8 	ldrh	r3, [fp, #-24]	; 0xffffffe8
 c1045dc:	e0823003 	add	r3, r2, r3
 c1045e0:	e1a03803 	lsl	r3, r3, #16
 c1045e4:	e1a02823 	lsr	r2, r3, #16
 c1045e8:	e55b3019 	ldrb	r3, [fp, #-25]	; 0xffffffe7
 c1045ec:	e1a00001 	mov	r0, r1
 c1045f0:	e1a01002 	mov	r1, r2
 c1045f4:	e1a02003 	mov	r2, r3
 c1045f8:	ebfffb6f 	bl	c1033bc <lcd_putpixel>
 c1045fc:	ea000011 	b	c104648 <lcd_putchar_x3+0x134>
 c104600:	e55b300e 	ldrb	r3, [fp, #-14]
 c104604:	e1a03803 	lsl	r3, r3, #16
 c104608:	e1a02823 	lsr	r2, r3, #16
 c10460c:	e15b31b6 	ldrh	r3, [fp, #-22]	; 0xffffffea
 c104610:	e0823003 	add	r3, r2, r3
 c104614:	e1a03803 	lsl	r3, r3, #16
 c104618:	e1a02823 	lsr	r2, r3, #16
 c10461c:	e55b300d 	ldrb	r3, [fp, #-13]
 c104620:	e1a03803 	lsl	r3, r3, #16
 c104624:	e1a01823 	lsr	r1, r3, #16
 c104628:	e15b31b8 	ldrh	r3, [fp, #-24]	; 0xffffffe8
 c10462c:	e0813003 	add	r3, r1, r3
 c104630:	e1a03803 	lsl	r3, r3, #16
 c104634:	e1a03823 	lsr	r3, r3, #16
 c104638:	e1a00002 	mov	r0, r2
 c10463c:	e1a01003 	mov	r1, r3
 c104640:	e3a02000 	mov	r2, #0
 c104644:	ebfffb5c 	bl	c1033bc <lcd_putpixel>
 c104648:	e55b300e 	ldrb	r3, [fp, #-14]
 c10464c:	e2833001 	add	r3, r3, #1
 c104650:	e54b300e 	strb	r3, [fp, #-14]
 c104654:	e55b300e 	ldrb	r3, [fp, #-14]
 c104658:	e3530017 	cmp	r3, #23
 c10465c:	9affffc0 	bls	c104564 <lcd_putchar_x3+0x50>
 c104660:	e55b300d 	ldrb	r3, [fp, #-13]
 c104664:	e2833001 	add	r3, r3, #1
 c104668:	e54b300d 	strb	r3, [fp, #-13]
 c10466c:	e55b300d 	ldrb	r3, [fp, #-13]
 c104670:	e353002f 	cmp	r3, #47	; 0x2f
 c104674:	9affffb7 	bls	c104558 <lcd_putchar_x3+0x44>
 c104678:	e24bd00c 	sub	sp, fp, #12
 c10467c:	e89d6800 	ldm	sp, {fp, sp, lr}
 c104680:	e12fff1e 	bx	lr
 c104684:	0c1090d0 	.word	0x0c1090d0
 c104688:	aaaaaaab 	.word	0xaaaaaaab

0c10468c <lcd_puts_xmedios>:
 c10468c:	e1a0c00d 	mov	ip, sp
 c104690:	e92dd800 	push	{fp, ip, lr, pc}
 c104694:	e24cb004 	sub	fp, ip, #4
 c104698:	e24dd010 	sub	sp, sp, #16
 c10469c:	e50b3018 	str	r3, [fp, #-24]	; 0xffffffe8
 c1046a0:	e14b00be 	strh	r0, [fp, #-14]
 c1046a4:	e14b11b0 	strh	r1, [fp, #-16]
 c1046a8:	e1a03002 	mov	r3, r2
 c1046ac:	e54b3011 	strb	r3, [fp, #-17]	; 0xffffffef
 c1046b0:	ea00000b 	b	c1046e4 <lcd_puts_xmedios+0x58>
 c1046b4:	e51b3018 	ldr	r3, [fp, #-24]	; 0xffffffe8
 c1046b8:	e5d33000 	ldrb	r3, [r3]
 c1046bc:	e15b00be 	ldrh	r0, [fp, #-14]
 c1046c0:	e15b11b0 	ldrh	r1, [fp, #-16]
 c1046c4:	e55b2011 	ldrb	r2, [fp, #-17]	; 0xffffffef
 c1046c8:	eb0000a8 	bl	c104970 <lcd_putchar_xmedios>
 c1046cc:	e51b3018 	ldr	r3, [fp, #-24]	; 0xffffffe8
 c1046d0:	e2833001 	add	r3, r3, #1
 c1046d4:	e50b3018 	str	r3, [fp, #-24]	; 0xffffffe8
 c1046d8:	e15b30be 	ldrh	r3, [fp, #-14]
 c1046dc:	e283300c 	add	r3, r3, #12
 c1046e0:	e14b30be 	strh	r3, [fp, #-14]
 c1046e4:	e51b3018 	ldr	r3, [fp, #-24]	; 0xffffffe8
 c1046e8:	e5d33000 	ldrb	r3, [r3]
 c1046ec:	e3530000 	cmp	r3, #0
 c1046f0:	1affffef 	bne	c1046b4 <lcd_puts_xmedios+0x28>
 c1046f4:	e24bd00c 	sub	sp, fp, #12
 c1046f8:	e89d6800 	ldm	sp, {fp, sp, lr}
 c1046fc:	e12fff1e 	bx	lr

0c104700 <lcd_putint_xmedios>:
 c104700:	e1a0c00d 	mov	ip, sp
 c104704:	e92dd800 	push	{fp, ip, lr, pc}
 c104708:	e24cb004 	sub	fp, ip, #4
 c10470c:	e24dd038 	sub	sp, sp, #56	; 0x38
 c104710:	e50b3040 	str	r3, [fp, #-64]	; 0xffffffc0
 c104714:	e14b03b6 	strh	r0, [fp, #-54]	; 0xffffffca
 c104718:	e14b13b8 	strh	r1, [fp, #-56]	; 0xffffffc8
 c10471c:	e1a03002 	mov	r3, r2
 c104720:	e54b3039 	strb	r3, [fp, #-57]	; 0xffffffc7
 c104724:	e3a03000 	mov	r3, #0
 c104728:	e50b3010 	str	r3, [fp, #-16]
 c10472c:	e3a03000 	mov	r3, #0
 c104730:	e50b3014 	str	r3, [fp, #-20]	; 0xffffffec
 c104734:	e51b3040 	ldr	r3, [fp, #-64]	; 0xffffffc0
 c104738:	e50b3024 	str	r3, [fp, #-36]	; 0xffffffdc
 c10473c:	e3a03001 	mov	r3, #1
 c104740:	e50b3018 	str	r3, [fp, #-24]	; 0xffffffe8
 c104744:	e51b3040 	ldr	r3, [fp, #-64]	; 0xffffffc0
 c104748:	e3530000 	cmp	r3, #0
 c10474c:	aa000005 	bge	c104768 <lcd_putint_xmedios+0x68>
 c104750:	e3e03000 	mvn	r3, #0
 c104754:	e50b3018 	str	r3, [fp, #-24]	; 0xffffffe8
 c104758:	e51b3040 	ldr	r3, [fp, #-64]	; 0xffffffc0
 c10475c:	e51b2018 	ldr	r2, [fp, #-24]	; 0xffffffe8
 c104760:	e0030392 	mul	r3, r2, r3
 c104764:	e50b3040 	str	r3, [fp, #-64]	; 0xffffffc0
 c104768:	e51b1040 	ldr	r1, [fp, #-64]	; 0xffffffc0
 c10476c:	e59f31f8 	ldr	r3, [pc, #504]	; c10496c <lcd_putint_xmedios+0x26c>
 c104770:	e0c30391 	smull	r0, r3, r1, r3
 c104774:	e1a02143 	asr	r2, r3, #2
 c104778:	e1a03fc1 	asr	r3, r1, #31
 c10477c:	e0632002 	rsb	r2, r3, r2
 c104780:	e1a03002 	mov	r3, r2
 c104784:	e1a03103 	lsl	r3, r3, #2
 c104788:	e0833002 	add	r3, r3, r2
 c10478c:	e1a03083 	lsl	r3, r3, #1
 c104790:	e0632001 	rsb	r2, r3, r1
 c104794:	e20220ff 	and	r2, r2, #255	; 0xff
 c104798:	e3e03027 	mvn	r3, #39	; 0x27
 c10479c:	e51b1010 	ldr	r1, [fp, #-16]
 c1047a0:	e24b000c 	sub	r0, fp, #12
 c1047a4:	e0801001 	add	r1, r0, r1
 c1047a8:	e0813003 	add	r3, r1, r3
 c1047ac:	e5c32000 	strb	r2, [r3]
 c1047b0:	e51b3040 	ldr	r3, [fp, #-64]	; 0xffffffc0
 c1047b4:	e59f21b0 	ldr	r2, [pc, #432]	; c10496c <lcd_putint_xmedios+0x26c>
 c1047b8:	e0c21293 	smull	r1, r2, r3, r2
 c1047bc:	e1a02142 	asr	r2, r2, #2
 c1047c0:	e1a03fc3 	asr	r3, r3, #31
 c1047c4:	e0633002 	rsb	r3, r3, r2
 c1047c8:	e50b3040 	str	r3, [fp, #-64]	; 0xffffffc0
 c1047cc:	e51b3010 	ldr	r3, [fp, #-16]
 c1047d0:	e2833001 	add	r3, r3, #1
 c1047d4:	e50b3010 	str	r3, [fp, #-16]
 c1047d8:	e51b3014 	ldr	r3, [fp, #-20]	; 0xffffffec
 c1047dc:	e2833001 	add	r3, r3, #1
 c1047e0:	e50b3014 	str	r3, [fp, #-20]	; 0xffffffec
 c1047e4:	e51b3040 	ldr	r3, [fp, #-64]	; 0xffffffc0
 c1047e8:	e3530000 	cmp	r3, #0
 c1047ec:	caffffdd 	bgt	c104768 <lcd_putint_xmedios+0x68>
 c1047f0:	e3a03000 	mov	r3, #0
 c1047f4:	e50b301c 	str	r3, [fp, #-28]	; 0xffffffe4
 c1047f8:	e51b3014 	ldr	r3, [fp, #-20]	; 0xffffffec
 c1047fc:	e2433001 	sub	r3, r3, #1
 c104800:	e50b301c 	str	r3, [fp, #-28]	; 0xffffffe4
 c104804:	ea000010 	b	c10484c <lcd_putint_xmedios+0x14c>
 c104808:	e3e03027 	mvn	r3, #39	; 0x27
 c10480c:	e51b201c 	ldr	r2, [fp, #-28]	; 0xffffffe4
 c104810:	e24b000c 	sub	r0, fp, #12
 c104814:	e0802002 	add	r2, r0, r2
 c104818:	e0823003 	add	r3, r2, r3
 c10481c:	e5d33000 	ldrb	r3, [r3]
 c104820:	e2833030 	add	r3, r3, #48	; 0x30
 c104824:	e20320ff 	and	r2, r3, #255	; 0xff
 c104828:	e3e03027 	mvn	r3, #39	; 0x27
 c10482c:	e51b101c 	ldr	r1, [fp, #-28]	; 0xffffffe4
 c104830:	e24b000c 	sub	r0, fp, #12
 c104834:	e0801001 	add	r1, r0, r1
 c104838:	e0813003 	add	r3, r1, r3
 c10483c:	e5c32000 	strb	r2, [r3]
 c104840:	e51b301c 	ldr	r3, [fp, #-28]	; 0xffffffe4
 c104844:	e2433001 	sub	r3, r3, #1
 c104848:	e50b301c 	str	r3, [fp, #-28]	; 0xffffffe4
 c10484c:	e51b301c 	ldr	r3, [fp, #-28]	; 0xffffffe4
 c104850:	e3530000 	cmp	r3, #0
 c104854:	aaffffeb 	bge	c104808 <lcd_putint_xmedios+0x108>
 c104858:	e51b3018 	ldr	r3, [fp, #-24]	; 0xffffffe8
 c10485c:	e3730001 	cmn	r3, #1
 c104860:	1a00000a 	bne	c104890 <lcd_putint_xmedios+0x190>
 c104864:	e15b13b6 	ldrh	r1, [fp, #-54]	; 0xffffffca
 c104868:	e15b23b8 	ldrh	r2, [fp, #-56]	; 0xffffffc8
 c10486c:	e55b3039 	ldrb	r3, [fp, #-57]	; 0xffffffc7
 c104870:	e1a00001 	mov	r0, r1
 c104874:	e1a01002 	mov	r1, r2
 c104878:	e1a02003 	mov	r2, r3
 c10487c:	e3a0302d 	mov	r3, #45	; 0x2d
 c104880:	eb00003a 	bl	c104970 <lcd_putchar_xmedios>
 c104884:	e15b33b6 	ldrh	r3, [fp, #-54]	; 0xffffffca
 c104888:	e2833008 	add	r3, r3, #8
 c10488c:	e14b33b6 	strh	r3, [fp, #-54]	; 0xffffffca
 c104890:	e3a03000 	mov	r3, #0
 c104894:	e50b3020 	str	r3, [fp, #-32]	; 0xffffffe0
 c104898:	ea000023 	b	c10492c <lcd_putint_xmedios+0x22c>
 c10489c:	e3e03027 	mvn	r3, #39	; 0x27
 c1048a0:	e51b2020 	ldr	r2, [fp, #-32]	; 0xffffffe0
 c1048a4:	e24b100c 	sub	r1, fp, #12
 c1048a8:	e0812002 	add	r2, r1, r2
 c1048ac:	e0823003 	add	r3, r2, r3
 c1048b0:	e5d33000 	ldrb	r3, [r3]
 c1048b4:	e50b3028 	str	r3, [fp, #-40]	; 0xffffffd8
 c1048b8:	e51b3014 	ldr	r3, [fp, #-20]	; 0xffffffec
 c1048bc:	e2432001 	sub	r2, r3, #1
 c1048c0:	e51b3020 	ldr	r3, [fp, #-32]	; 0xffffffe0
 c1048c4:	e0632002 	rsb	r2, r3, r2
 c1048c8:	e3e03027 	mvn	r3, #39	; 0x27
 c1048cc:	e24b000c 	sub	r0, fp, #12
 c1048d0:	e0802002 	add	r2, r0, r2
 c1048d4:	e0823003 	add	r3, r2, r3
 c1048d8:	e5d32000 	ldrb	r2, [r3]
 c1048dc:	e3e03027 	mvn	r3, #39	; 0x27
 c1048e0:	e51b1020 	ldr	r1, [fp, #-32]	; 0xffffffe0
 c1048e4:	e24b000c 	sub	r0, fp, #12
 c1048e8:	e0801001 	add	r1, r0, r1
 c1048ec:	e0813003 	add	r3, r1, r3
 c1048f0:	e5c32000 	strb	r2, [r3]
 c1048f4:	e51b3014 	ldr	r3, [fp, #-20]	; 0xffffffec
 c1048f8:	e2432001 	sub	r2, r3, #1
 c1048fc:	e51b3020 	ldr	r3, [fp, #-32]	; 0xffffffe0
 c104900:	e0631002 	rsb	r1, r3, r2
 c104904:	e51b3028 	ldr	r3, [fp, #-40]	; 0xffffffd8
 c104908:	e20320ff 	and	r2, r3, #255	; 0xff
 c10490c:	e3e03027 	mvn	r3, #39	; 0x27
 c104910:	e24b000c 	sub	r0, fp, #12
 c104914:	e0801001 	add	r1, r0, r1
 c104918:	e0813003 	add	r3, r1, r3
 c10491c:	e5c32000 	strb	r2, [r3]
 c104920:	e51b3020 	ldr	r3, [fp, #-32]	; 0xffffffe0
 c104924:	e2833001 	add	r3, r3, #1
 c104928:	e50b3020 	str	r3, [fp, #-32]	; 0xffffffe0
 c10492c:	e51b3014 	ldr	r3, [fp, #-20]	; 0xffffffec
 c104930:	e1a02fa3 	lsr	r2, r3, #31
 c104934:	e0823003 	add	r3, r2, r3
 c104938:	e1a030c3 	asr	r3, r3, #1
 c10493c:	e1a02003 	mov	r2, r3
 c104940:	e51b3020 	ldr	r3, [fp, #-32]	; 0xffffffe0
 c104944:	e1520003 	cmp	r2, r3
 c104948:	caffffd3 	bgt	c10489c <lcd_putint_xmedios+0x19c>
 c10494c:	e15b03b6 	ldrh	r0, [fp, #-54]	; 0xffffffca
 c104950:	e15b13b8 	ldrh	r1, [fp, #-56]	; 0xffffffc8
 c104954:	e55b2039 	ldrb	r2, [fp, #-57]	; 0xffffffc7
 c104958:	e24b3034 	sub	r3, fp, #52	; 0x34
 c10495c:	ebffff4a 	bl	c10468c <lcd_puts_xmedios>
 c104960:	e24bd00c 	sub	sp, fp, #12
 c104964:	e89d6800 	ldm	sp, {fp, sp, lr}
 c104968:	e12fff1e 	bx	lr
 c10496c:	66666667 	.word	0x66666667

0c104970 <lcd_putchar_xmedios>:
 c104970:	e1a0c00d 	mov	ip, sp
 c104974:	e92dd800 	push	{fp, ip, lr, pc}
 c104978:	e24cb004 	sub	fp, ip, #4
 c10497c:	e24dd010 	sub	sp, sp, #16
 c104980:	e14b01b6 	strh	r0, [fp, #-22]	; 0xffffffea
 c104984:	e14b11b8 	strh	r1, [fp, #-24]	; 0xffffffe8
 c104988:	e54b2019 	strb	r2, [fp, #-25]	; 0xffffffe7
 c10498c:	e54b301a 	strb	r3, [fp, #-26]	; 0xffffffe6
 c104990:	e55b301a 	ldrb	r3, [fp, #-26]	; 0xffffffe6
 c104994:	e1a03203 	lsl	r3, r3, #4
 c104998:	e1a02003 	mov	r2, r3
 c10499c:	e59f311c 	ldr	r3, [pc, #284]	; c104ac0 <lcd_putchar_xmedios+0x150>
 c1049a0:	e0823003 	add	r3, r2, r3
 c1049a4:	e50b3014 	str	r3, [fp, #-20]	; 0xffffffec
 c1049a8:	e3a03000 	mov	r3, #0
 c1049ac:	e54b300d 	strb	r3, [fp, #-13]
 c1049b0:	ea00003c 	b	c104aa8 <lcd_putchar_xmedios+0x138>
 c1049b4:	e3a03000 	mov	r3, #0
 c1049b8:	e54b300e 	strb	r3, [fp, #-14]
 c1049bc:	ea000033 	b	c104a90 <lcd_putchar_xmedios+0x120>
 c1049c0:	e55b300d 	ldrb	r3, [fp, #-13]
 c1049c4:	e51b2014 	ldr	r2, [fp, #-20]	; 0xffffffec
 c1049c8:	e0823003 	add	r3, r2, r3
 c1049cc:	e5d33000 	ldrb	r3, [r3]
 c1049d0:	e1a02003 	mov	r2, r3
 c1049d4:	e55b300e 	ldrb	r3, [fp, #-14]
 c1049d8:	e3a01080 	mov	r1, #128	; 0x80
 c1049dc:	e1a03351 	asr	r3, r1, r3
 c1049e0:	e0023003 	and	r3, r2, r3
 c1049e4:	e3530000 	cmp	r3, #0
 c1049e8:	0a000013 	beq	c104a3c <lcd_putchar_xmedios+0xcc>
 c1049ec:	e55b300e 	ldrb	r3, [fp, #-14]
 c1049f0:	e1a03803 	lsl	r3, r3, #16
 c1049f4:	e1a02823 	lsr	r2, r3, #16
 c1049f8:	e15b31b6 	ldrh	r3, [fp, #-22]	; 0xffffffea
 c1049fc:	e0823003 	add	r3, r2, r3
 c104a00:	e1a03803 	lsl	r3, r3, #16
 c104a04:	e1a01823 	lsr	r1, r3, #16
 c104a08:	e55b300d 	ldrb	r3, [fp, #-13]
 c104a0c:	e1a03803 	lsl	r3, r3, #16
 c104a10:	e1a02823 	lsr	r2, r3, #16
 c104a14:	e15b31b8 	ldrh	r3, [fp, #-24]	; 0xffffffe8
 c104a18:	e0823003 	add	r3, r2, r3
 c104a1c:	e1a03803 	lsl	r3, r3, #16
 c104a20:	e1a02823 	lsr	r2, r3, #16
 c104a24:	e55b3019 	ldrb	r3, [fp, #-25]	; 0xffffffe7
 c104a28:	e1a00001 	mov	r0, r1
 c104a2c:	e1a01002 	mov	r1, r2
 c104a30:	e1a02003 	mov	r2, r3
 c104a34:	ebfffa60 	bl	c1033bc <lcd_putpixel>
 c104a38:	ea000011 	b	c104a84 <lcd_putchar_xmedios+0x114>
 c104a3c:	e55b300e 	ldrb	r3, [fp, #-14]
 c104a40:	e1a03803 	lsl	r3, r3, #16
 c104a44:	e1a02823 	lsr	r2, r3, #16
 c104a48:	e15b31b6 	ldrh	r3, [fp, #-22]	; 0xffffffea
 c104a4c:	e0823003 	add	r3, r2, r3
 c104a50:	e1a03803 	lsl	r3, r3, #16
 c104a54:	e1a02823 	lsr	r2, r3, #16
 c104a58:	e55b300d 	ldrb	r3, [fp, #-13]
 c104a5c:	e1a03803 	lsl	r3, r3, #16
 c104a60:	e1a01823 	lsr	r1, r3, #16
 c104a64:	e15b31b8 	ldrh	r3, [fp, #-24]	; 0xffffffe8
 c104a68:	e0813003 	add	r3, r1, r3
 c104a6c:	e1a03803 	lsl	r3, r3, #16
 c104a70:	e1a03823 	lsr	r3, r3, #16
 c104a74:	e1a00002 	mov	r0, r2
 c104a78:	e1a01003 	mov	r1, r3
 c104a7c:	e3a02000 	mov	r2, #0
 c104a80:	ebfffa4d 	bl	c1033bc <lcd_putpixel>
 c104a84:	e55b300e 	ldrb	r3, [fp, #-14]
 c104a88:	e2833001 	add	r3, r3, #1
 c104a8c:	e54b300e 	strb	r3, [fp, #-14]
 c104a90:	e55b300e 	ldrb	r3, [fp, #-14]
 c104a94:	e353000b 	cmp	r3, #11
 c104a98:	9affffc8 	bls	c1049c0 <lcd_putchar_xmedios+0x50>
 c104a9c:	e55b300d 	ldrb	r3, [fp, #-13]
 c104aa0:	e2833001 	add	r3, r3, #1
 c104aa4:	e54b300d 	strb	r3, [fp, #-13]
 c104aa8:	e55b300d 	ldrb	r3, [fp, #-13]
 c104aac:	e3530017 	cmp	r3, #23
 c104ab0:	9affffbf 	bls	c1049b4 <lcd_putchar_xmedios+0x44>
 c104ab4:	e24bd00c 	sub	sp, fp, #12
 c104ab8:	e89d6800 	ldm	sp, {fp, sp, lr}
 c104abc:	e12fff1e 	bx	lr
 c104ac0:	0c1090d0 	.word	0x0c1090d0

0c104ac4 <lcd_putWallpaper>:
 c104ac4:	e1a0c00d 	mov	ip, sp
 c104ac8:	e92dd800 	push	{fp, ip, lr, pc}
 c104acc:	e24cb004 	sub	fp, ip, #4
 c104ad0:	e24dd018 	sub	sp, sp, #24
 c104ad4:	e50b0020 	str	r0, [fp, #-32]	; 0xffffffe0
 c104ad8:	e51b3020 	ldr	r3, [fp, #-32]	; 0xffffffe0
 c104adc:	e283300a 	add	r3, r3, #10
 c104ae0:	e5d33000 	ldrb	r3, [r3]
 c104ae4:	e1a02003 	mov	r2, r3
 c104ae8:	e51b3020 	ldr	r3, [fp, #-32]	; 0xffffffe0
 c104aec:	e283300b 	add	r3, r3, #11
 c104af0:	e5d33000 	ldrb	r3, [r3]
 c104af4:	e1a03403 	lsl	r3, r3, #8
 c104af8:	e0822003 	add	r2, r2, r3
 c104afc:	e51b3020 	ldr	r3, [fp, #-32]	; 0xffffffe0
 c104b00:	e283300c 	add	r3, r3, #12
 c104b04:	e5d33000 	ldrb	r3, [r3]
 c104b08:	e1a03803 	lsl	r3, r3, #16
 c104b0c:	e0822003 	add	r2, r2, r3
 c104b10:	e51b3020 	ldr	r3, [fp, #-32]	; 0xffffffe0
 c104b14:	e283300d 	add	r3, r3, #13
 c104b18:	e5d33000 	ldrb	r3, [r3]
 c104b1c:	e1a03c03 	lsl	r3, r3, #24
 c104b20:	e0823003 	add	r3, r2, r3
 c104b24:	e50b3018 	str	r3, [fp, #-24]	; 0xffffffe8
 c104b28:	e51b2020 	ldr	r2, [fp, #-32]	; 0xffffffe0
 c104b2c:	e51b3018 	ldr	r3, [fp, #-24]	; 0xffffffe8
 c104b30:	e0823003 	add	r3, r2, r3
 c104b34:	e50b3020 	str	r3, [fp, #-32]	; 0xffffffe0
 c104b38:	e3a03000 	mov	r3, #0
 c104b3c:	e14b31b0 	strh	r3, [fp, #-16]
 c104b40:	e3a030ef 	mov	r3, #239	; 0xef
 c104b44:	e14b31b2 	strh	r3, [fp, #-18]	; 0xffffffee
 c104b48:	ea00002d 	b	c104c04 <lcd_putWallpaper+0x140>
 c104b4c:	e15b21b2 	ldrh	r2, [fp, #-18]	; 0xffffffee
 c104b50:	e1a03002 	mov	r3, r2
 c104b54:	e1a03103 	lsl	r3, r3, #2
 c104b58:	e0833002 	add	r3, r3, r2
 c104b5c:	e1a03303 	lsl	r3, r3, #6
 c104b60:	e1a02fa3 	lsr	r2, r3, #31
 c104b64:	e0823003 	add	r3, r2, r3
 c104b68:	e1a030c3 	asr	r3, r3, #1
 c104b6c:	e14b31ba 	strh	r3, [fp, #-26]	; 0xffffffe6
 c104b70:	e15b21b0 	ldrh	r2, [fp, #-16]
 c104b74:	e1a03002 	mov	r3, r2
 c104b78:	e1a03103 	lsl	r3, r3, #2
 c104b7c:	e0833002 	add	r3, r3, r2
 c104b80:	e1a03303 	lsl	r3, r3, #6
 c104b84:	e1a02fa3 	lsr	r2, r3, #31
 c104b88:	e0823003 	add	r3, r2, r3
 c104b8c:	e1a030c3 	asr	r3, r3, #1
 c104b90:	e14b31bc 	strh	r3, [fp, #-28]	; 0xffffffe4
 c104b94:	e3a03000 	mov	r3, #0
 c104b98:	e14b30be 	strh	r3, [fp, #-14]
 c104b9c:	ea00000f 	b	c104be0 <lcd_putWallpaper+0x11c>
 c104ba0:	e15b21ba 	ldrh	r2, [fp, #-26]	; 0xffffffe6
 c104ba4:	e15b30be 	ldrh	r3, [fp, #-14]
 c104ba8:	e0823003 	add	r3, r2, r3
 c104bac:	e15b11bc 	ldrh	r1, [fp, #-28]	; 0xffffffe4
 c104bb0:	e15b20be 	ldrh	r2, [fp, #-14]
 c104bb4:	e0812002 	add	r2, r1, r2
 c104bb8:	e51b1020 	ldr	r1, [fp, #-32]	; 0xffffffe0
 c104bbc:	e0812002 	add	r2, r1, r2
 c104bc0:	e5d22000 	ldrb	r2, [r2]
 c104bc4:	e1e02002 	mvn	r2, r2
 c104bc8:	e20210ff 	and	r1, r2, #255	; 0xff
 c104bcc:	e59f2048 	ldr	r2, [pc, #72]	; c104c1c <lcd_putWallpaper+0x158>
 c104bd0:	e7c21003 	strb	r1, [r2, r3]
 c104bd4:	e15b30be 	ldrh	r3, [fp, #-14]
 c104bd8:	e2833001 	add	r3, r3, #1
 c104bdc:	e14b30be 	strh	r3, [fp, #-14]
 c104be0:	e15b30be 	ldrh	r3, [fp, #-14]
 c104be4:	e353009f 	cmp	r3, #159	; 0x9f
 c104be8:	9affffec 	bls	c104ba0 <lcd_putWallpaper+0xdc>
 c104bec:	e15b31b0 	ldrh	r3, [fp, #-16]
 c104bf0:	e2833001 	add	r3, r3, #1
 c104bf4:	e14b31b0 	strh	r3, [fp, #-16]
 c104bf8:	e15b31b2 	ldrh	r3, [fp, #-18]	; 0xffffffee
 c104bfc:	e2433001 	sub	r3, r3, #1
 c104c00:	e14b31b2 	strh	r3, [fp, #-18]	; 0xffffffee
 c104c04:	e15b31b0 	ldrh	r3, [fp, #-16]
 c104c08:	e35300ef 	cmp	r3, #239	; 0xef
 c104c0c:	9affffce 	bls	c104b4c <lcd_putWallpaper+0x88>
 c104c10:	e24bd00c 	sub	sp, fp, #12
 c104c14:	e89d6800 	ldm	sp, {fp, sp, lr}
 c104c18:	e12fff1e 	bx	lr
 c104c1c:	0c113c70 	.word	0x0c113c70

0c104c20 <lcd_savescreen>:
 c104c20:	e1a0c00d 	mov	ip, sp
 c104c24:	e92dd800 	push	{fp, ip, lr, pc}
 c104c28:	e24cb004 	sub	fp, ip, #4
 c104c2c:	e24dd010 	sub	sp, sp, #16
 c104c30:	e50b0018 	str	r0, [fp, #-24]	; 0xffffffe8
 c104c34:	e3a03000 	mov	r3, #0
 c104c38:	e50b3010 	str	r3, [fp, #-16]
 c104c3c:	e3a03000 	mov	r3, #0
 c104c40:	e50b3010 	str	r3, [fp, #-16]
 c104c44:	ea00000a 	b	c104c74 <lcd_savescreen+0x54>
 c104c48:	e51b3010 	ldr	r3, [fp, #-16]
 c104c4c:	e51b2018 	ldr	r2, [fp, #-24]	; 0xffffffe8
 c104c50:	e0823003 	add	r3, r2, r3
 c104c54:	e59f1034 	ldr	r1, [pc, #52]	; c104c90 <lcd_savescreen+0x70>
 c104c58:	e51b2010 	ldr	r2, [fp, #-16]
 c104c5c:	e0812002 	add	r2, r1, r2
 c104c60:	e5d22000 	ldrb	r2, [r2]
 c104c64:	e5c32000 	strb	r2, [r3]
 c104c68:	e51b3010 	ldr	r3, [fp, #-16]
 c104c6c:	e2833001 	add	r3, r3, #1
 c104c70:	e50b3010 	str	r3, [fp, #-16]
 c104c74:	e51b2010 	ldr	r2, [fp, #-16]
 c104c78:	e59f3014 	ldr	r3, [pc, #20]	; c104c94 <lcd_savescreen+0x74>
 c104c7c:	e1520003 	cmp	r2, r3
 c104c80:	dafffff0 	ble	c104c48 <lcd_savescreen+0x28>
 c104c84:	e24bd00c 	sub	sp, fp, #12
 c104c88:	e89d6800 	ldm	sp, {fp, sp, lr}
 c104c8c:	e12fff1e 	bx	lr
 c104c90:	0c113c70 	.word	0x0c113c70
 c104c94:	000095ff 	.word	0x000095ff

0c104c98 <lcd_loadscreen>:
 c104c98:	e1a0c00d 	mov	ip, sp
 c104c9c:	e92dd800 	push	{fp, ip, lr, pc}
 c104ca0:	e24cb004 	sub	fp, ip, #4
 c104ca4:	e24dd010 	sub	sp, sp, #16
 c104ca8:	e50b0018 	str	r0, [fp, #-24]	; 0xffffffe8
 c104cac:	e3a03000 	mov	r3, #0
 c104cb0:	e50b3010 	str	r3, [fp, #-16]
 c104cb4:	e3a03000 	mov	r3, #0
 c104cb8:	e50b3010 	str	r3, [fp, #-16]
 c104cbc:	ea00000a 	b	c104cec <lcd_loadscreen+0x54>
 c104cc0:	e51b3010 	ldr	r3, [fp, #-16]
 c104cc4:	e51b2018 	ldr	r2, [fp, #-24]	; 0xffffffe8
 c104cc8:	e0823003 	add	r3, r2, r3
 c104ccc:	e5d32000 	ldrb	r2, [r3]
 c104cd0:	e59f1030 	ldr	r1, [pc, #48]	; c104d08 <lcd_loadscreen+0x70>
 c104cd4:	e51b3010 	ldr	r3, [fp, #-16]
 c104cd8:	e0813003 	add	r3, r1, r3
 c104cdc:	e5c32000 	strb	r2, [r3]
 c104ce0:	e51b3010 	ldr	r3, [fp, #-16]
 c104ce4:	e2833001 	add	r3, r3, #1
 c104ce8:	e50b3010 	str	r3, [fp, #-16]
 c104cec:	e51b2010 	ldr	r2, [fp, #-16]
 c104cf0:	e59f3014 	ldr	r3, [pc, #20]	; c104d0c <lcd_loadscreen+0x74>
 c104cf4:	e1520003 	cmp	r2, r3
 c104cf8:	dafffff0 	ble	c104cc0 <lcd_loadscreen+0x28>
 c104cfc:	e24bd00c 	sub	sp, fp, #12
 c104d00:	e89d6800 	ldm	sp, {fp, sp, lr}
 c104d04:	e12fff1e 	bx	lr
 c104d08:	0c113c70 	.word	0x0c113c70
 c104d0c:	000095ff 	.word	0x000095ff

0c104d10 <pbs_init>:
 c104d10:	e1a0c00d 	mov	ip, sp
 c104d14:	e92dd800 	push	{fp, ip, lr, pc}
 c104d18:	e24cb004 	sub	fp, ip, #4
 c104d1c:	eb0003d9 	bl	c105c88 <timers_init>
 c104d20:	e24bd00c 	sub	sp, fp, #12
 c104d24:	e89d6800 	ldm	sp, {fp, sp, lr}
 c104d28:	e12fff1e 	bx	lr

0c104d2c <pb_scan>:
 c104d2c:	e1a0c00d 	mov	ip, sp
 c104d30:	e92dd800 	push	{fp, ip, lr, pc}
 c104d34:	e24cb004 	sub	fp, ip, #4
 c104d38:	e59f3044 	ldr	r3, [pc, #68]	; c104d84 <pb_scan+0x58>
 c104d3c:	e5933000 	ldr	r3, [r3]
 c104d40:	e2033040 	and	r3, r3, #64	; 0x40
 c104d44:	e3530000 	cmp	r3, #0
 c104d48:	1a000001 	bne	c104d54 <pb_scan+0x28>
 c104d4c:	e3a03040 	mov	r3, #64	; 0x40
 c104d50:	ea000007 	b	c104d74 <pb_scan+0x48>
 c104d54:	e59f3028 	ldr	r3, [pc, #40]	; c104d84 <pb_scan+0x58>
 c104d58:	e5933000 	ldr	r3, [r3]
 c104d5c:	e2033080 	and	r3, r3, #128	; 0x80
 c104d60:	e3530000 	cmp	r3, #0
 c104d64:	1a000001 	bne	c104d70 <pb_scan+0x44>
 c104d68:	e3a03080 	mov	r3, #128	; 0x80
 c104d6c:	ea000000 	b	c104d74 <pb_scan+0x48>
 c104d70:	e3a030ff 	mov	r3, #255	; 0xff
 c104d74:	e1a00003 	mov	r0, r3
 c104d78:	e24bd00c 	sub	sp, fp, #12
 c104d7c:	e89d6800 	ldm	sp, {fp, sp, lr}
 c104d80:	e12fff1e 	bx	lr
 c104d84:	01d20044 	.word	0x01d20044

0c104d88 <pb_status>:
 c104d88:	e1a0c00d 	mov	ip, sp
 c104d8c:	e92dd800 	push	{fp, ip, lr, pc}
 c104d90:	e24cb004 	sub	fp, ip, #4
 c104d94:	e24dd008 	sub	sp, sp, #8
 c104d98:	e1a03000 	mov	r3, r0
 c104d9c:	e54b300d 	strb	r3, [fp, #-13]
 c104da0:	ebffffe1 	bl	c104d2c <pb_scan>
 c104da4:	e1a03000 	mov	r3, r0
 c104da8:	e55b200d 	ldrb	r2, [fp, #-13]
 c104dac:	e1520003 	cmp	r2, r3
 c104db0:	1a000001 	bne	c104dbc <pb_status+0x34>
 c104db4:	e3a03001 	mov	r3, #1
 c104db8:	ea000000 	b	c104dc0 <pb_status+0x38>
 c104dbc:	e3a03000 	mov	r3, #0
 c104dc0:	e1a00003 	mov	r0, r3
 c104dc4:	e24bd00c 	sub	sp, fp, #12
 c104dc8:	e89d6800 	ldm	sp, {fp, sp, lr}
 c104dcc:	e12fff1e 	bx	lr

0c104dd0 <pb_wait_keydown>:
 c104dd0:	e1a0c00d 	mov	ip, sp
 c104dd4:	e92dd800 	push	{fp, ip, lr, pc}
 c104dd8:	e24cb004 	sub	fp, ip, #4
 c104ddc:	e24dd008 	sub	sp, sp, #8
 c104de0:	e1a03000 	mov	r3, r0
 c104de4:	e54b300d 	strb	r3, [fp, #-13]
 c104de8:	e1a00000 	nop			; (mov r0, r0)
 c104dec:	ebffffce 	bl	c104d2c <pb_scan>
 c104df0:	e1a03000 	mov	r3, r0
 c104df4:	e55b200d 	ldrb	r2, [fp, #-13]
 c104df8:	e1520003 	cmp	r2, r3
 c104dfc:	1afffffa 	bne	c104dec <pb_wait_keydown+0x1c>
 c104e00:	e3a0001e 	mov	r0, #30
 c104e04:	eb000448 	bl	c105f2c <sw_delay_ms>
 c104e08:	e24bd00c 	sub	sp, fp, #12
 c104e0c:	e89d6800 	ldm	sp, {fp, sp, lr}
 c104e10:	e12fff1e 	bx	lr

0c104e14 <pb_wait_keyup>:
 c104e14:	e1a0c00d 	mov	ip, sp
 c104e18:	e92dd800 	push	{fp, ip, lr, pc}
 c104e1c:	e24cb004 	sub	fp, ip, #4
 c104e20:	e24dd008 	sub	sp, sp, #8
 c104e24:	e1a03000 	mov	r3, r0
 c104e28:	e54b300d 	strb	r3, [fp, #-13]
 c104e2c:	e1a00000 	nop			; (mov r0, r0)
 c104e30:	ebffffbd 	bl	c104d2c <pb_scan>
 c104e34:	e1a03000 	mov	r3, r0
 c104e38:	e55b200d 	ldrb	r2, [fp, #-13]
 c104e3c:	e1520003 	cmp	r2, r3
 c104e40:	1afffffa 	bne	c104e30 <pb_wait_keyup+0x1c>
 c104e44:	e3a0001e 	mov	r0, #30
 c104e48:	eb000437 	bl	c105f2c <sw_delay_ms>
 c104e4c:	e1a00000 	nop			; (mov r0, r0)
 c104e50:	ebffffb5 	bl	c104d2c <pb_scan>
 c104e54:	e1a03000 	mov	r3, r0
 c104e58:	e55b200d 	ldrb	r2, [fp, #-13]
 c104e5c:	e1520003 	cmp	r2, r3
 c104e60:	0afffffa 	beq	c104e50 <pb_wait_keyup+0x3c>
 c104e64:	e3a0001e 	mov	r0, #30
 c104e68:	eb00042f 	bl	c105f2c <sw_delay_ms>
 c104e6c:	e24bd00c 	sub	sp, fp, #12
 c104e70:	e89d6800 	ldm	sp, {fp, sp, lr}
 c104e74:	e12fff1e 	bx	lr

0c104e78 <pb_wait_any_keydown>:
 c104e78:	e1a0c00d 	mov	ip, sp
 c104e7c:	e92dd800 	push	{fp, ip, lr, pc}
 c104e80:	e24cb004 	sub	fp, ip, #4
 c104e84:	e1a00000 	nop			; (mov r0, r0)
 c104e88:	ebffffa7 	bl	c104d2c <pb_scan>
 c104e8c:	e1a03000 	mov	r3, r0
 c104e90:	e35300ff 	cmp	r3, #255	; 0xff
 c104e94:	0afffffb 	beq	c104e88 <pb_wait_any_keydown+0x10>
 c104e98:	e3a0001e 	mov	r0, #30
 c104e9c:	eb000422 	bl	c105f2c <sw_delay_ms>
 c104ea0:	e24bd00c 	sub	sp, fp, #12
 c104ea4:	e89d6800 	ldm	sp, {fp, sp, lr}
 c104ea8:	e12fff1e 	bx	lr

0c104eac <pb_wait_any_keyup>:
 c104eac:	e1a0c00d 	mov	ip, sp
 c104eb0:	e92dd800 	push	{fp, ip, lr, pc}
 c104eb4:	e24cb004 	sub	fp, ip, #4
 c104eb8:	e24dd008 	sub	sp, sp, #8
 c104ebc:	ebffff9a 	bl	c104d2c <pb_scan>
 c104ec0:	e1a03000 	mov	r3, r0
 c104ec4:	e54b300d 	strb	r3, [fp, #-13]
 c104ec8:	e55b300d 	ldrb	r3, [fp, #-13]
 c104ecc:	e35300ff 	cmp	r3, #255	; 0xff
 c104ed0:	0afffff9 	beq	c104ebc <pb_wait_any_keyup+0x10>
 c104ed4:	e55b300d 	ldrb	r3, [fp, #-13]
 c104ed8:	e1a00003 	mov	r0, r3
 c104edc:	ebffffcc 	bl	c104e14 <pb_wait_keyup>
 c104ee0:	e24bd00c 	sub	sp, fp, #12
 c104ee4:	e89d6800 	ldm	sp, {fp, sp, lr}
 c104ee8:	e12fff1e 	bx	lr

0c104eec <pb_getchar>:
 c104eec:	e1a0c00d 	mov	ip, sp
 c104ef0:	e92dd800 	push	{fp, ip, lr, pc}
 c104ef4:	e24cb004 	sub	fp, ip, #4
 c104ef8:	e24dd008 	sub	sp, sp, #8
 c104efc:	ebffff8a 	bl	c104d2c <pb_scan>
 c104f00:	e1a03000 	mov	r3, r0
 c104f04:	e54b300d 	strb	r3, [fp, #-13]
 c104f08:	e55b300d 	ldrb	r3, [fp, #-13]
 c104f0c:	e35300ff 	cmp	r3, #255	; 0xff
 c104f10:	0afffff9 	beq	c104efc <pb_getchar+0x10>
 c104f14:	e3a0001e 	mov	r0, #30
 c104f18:	eb000403 	bl	c105f2c <sw_delay_ms>
 c104f1c:	e55b300d 	ldrb	r3, [fp, #-13]
 c104f20:	e1a00003 	mov	r0, r3
 c104f24:	ebffffba 	bl	c104e14 <pb_wait_keyup>
 c104f28:	e55b300d 	ldrb	r3, [fp, #-13]
 c104f2c:	e1a00003 	mov	r0, r3
 c104f30:	e24bd00c 	sub	sp, fp, #12
 c104f34:	e89d6800 	ldm	sp, {fp, sp, lr}
 c104f38:	e12fff1e 	bx	lr

0c104f3c <pb_getchartime>:
 c104f3c:	e1a0c00d 	mov	ip, sp
 c104f40:	e92dd800 	push	{fp, ip, lr, pc}
 c104f44:	e24cb004 	sub	fp, ip, #4
 c104f48:	e24dd010 	sub	sp, sp, #16
 c104f4c:	e50b0018 	str	r0, [fp, #-24]	; 0xffffffe8
 c104f50:	e1a00000 	nop			; (mov r0, r0)
 c104f54:	ebffff74 	bl	c104d2c <pb_scan>
 c104f58:	e1a03000 	mov	r3, r0
 c104f5c:	e35300ff 	cmp	r3, #255	; 0xff
 c104f60:	0afffffb 	beq	c104f54 <pb_getchartime+0x18>
 c104f64:	eb000457 	bl	c1060c8 <timer3_start>
 c104f68:	e3a0001e 	mov	r0, #30
 c104f6c:	eb0003ee 	bl	c105f2c <sw_delay_ms>
 c104f70:	ebffff6d 	bl	c104d2c <pb_scan>
 c104f74:	e1a03000 	mov	r3, r0
 c104f78:	e54b300d 	strb	r3, [fp, #-13]
 c104f7c:	e1a00000 	nop			; (mov r0, r0)
 c104f80:	ebffff69 	bl	c104d2c <pb_scan>
 c104f84:	e1a03000 	mov	r3, r0
 c104f88:	e55b200d 	ldrb	r2, [fp, #-13]
 c104f8c:	e1520003 	cmp	r2, r3
 c104f90:	0afffffa 	beq	c104f80 <pb_getchartime+0x44>
 c104f94:	eb000477 	bl	c106178 <timer3_stop>
 c104f98:	e1a03000 	mov	r3, r0
 c104f9c:	e1a02003 	mov	r2, r3
 c104fa0:	e59f3030 	ldr	r3, [pc, #48]	; c104fd8 <pb_getchartime+0x9c>
 c104fa4:	e0831392 	umull	r1, r3, r2, r3
 c104fa8:	e1a031a3 	lsr	r3, r3, #3
 c104fac:	e1a03803 	lsl	r3, r3, #16
 c104fb0:	e1a02823 	lsr	r2, r3, #16
 c104fb4:	e51b3018 	ldr	r3, [fp, #-24]	; 0xffffffe8
 c104fb8:	e1c320b0 	strh	r2, [r3]
 c104fbc:	e3a00064 	mov	r0, #100	; 0x64
 c104fc0:	eb0003d9 	bl	c105f2c <sw_delay_ms>
 c104fc4:	e55b300d 	ldrb	r3, [fp, #-13]
 c104fc8:	e1a00003 	mov	r0, r3
 c104fcc:	e24bd00c 	sub	sp, fp, #12
 c104fd0:	e89d6800 	ldm	sp, {fp, sp, lr}
 c104fd4:	e12fff1e 	bx	lr
 c104fd8:	cccccccd 	.word	0xcccccccd

0c104fdc <pb_timeout_getchar>:
 c104fdc:	e1a0c00d 	mov	ip, sp
 c104fe0:	e92dd810 	push	{r4, fp, ip, lr, pc}
 c104fe4:	e24cb004 	sub	fp, ip, #4
 c104fe8:	e24dd014 	sub	sp, sp, #20
 c104fec:	e1a03000 	mov	r3, r0
 c104ff0:	e14b31be 	strh	r3, [fp, #-30]	; 0xffffffe2
 c104ff4:	e1a00000 	nop			; (mov r0, r0)
 c104ff8:	ebffff4b 	bl	c104d2c <pb_scan>
 c104ffc:	e1a03000 	mov	r3, r0
 c105000:	e35300ff 	cmp	r3, #255	; 0xff
 c105004:	0afffffb 	beq	c104ff8 <pb_timeout_getchar+0x1c>
 c105008:	e15b31be 	ldrh	r3, [fp, #-30]	; 0xffffffe2
 c10500c:	e1a00003 	mov	r0, r3
 c105010:	eb00046d 	bl	c1061cc <timer3_start_timeout>
 c105014:	e3a0001e 	mov	r0, #30
 c105018:	eb0003c3 	bl	c105f2c <sw_delay_ms>
 c10501c:	ebffff42 	bl	c104d2c <pb_scan>
 c105020:	e1a03000 	mov	r3, r0
 c105024:	e54b3016 	strb	r3, [fp, #-22]	; 0xffffffea
 c105028:	ea000002 	b	c105038 <pb_timeout_getchar+0x5c>
 c10502c:	eb000494 	bl	c106284 <timer3_timeout>
 c105030:	e1a03000 	mov	r3, r0
 c105034:	e54b3015 	strb	r3, [fp, #-21]	; 0xffffffeb
 c105038:	e55b3015 	ldrb	r3, [fp, #-21]	; 0xffffffeb
 c10503c:	e3530000 	cmp	r3, #0
 c105040:	13a03000 	movne	r3, #0
 c105044:	03a03001 	moveq	r3, #1
 c105048:	e20340ff 	and	r4, r3, #255	; 0xff
 c10504c:	ebffff36 	bl	c104d2c <pb_scan>
 c105050:	e1a03000 	mov	r3, r0
 c105054:	e55b2016 	ldrb	r2, [fp, #-22]	; 0xffffffea
 c105058:	e1520003 	cmp	r2, r3
 c10505c:	13a03000 	movne	r3, #0
 c105060:	03a03001 	moveq	r3, #1
 c105064:	e20330ff 	and	r3, r3, #255	; 0xff
 c105068:	e0043003 	and	r3, r4, r3
 c10506c:	e20330ff 	and	r3, r3, #255	; 0xff
 c105070:	e3530000 	cmp	r3, #0
 c105074:	1affffec 	bne	c10502c <pb_timeout_getchar+0x50>
 c105078:	e3a0001e 	mov	r0, #30
 c10507c:	eb0003aa 	bl	c105f2c <sw_delay_ms>
 c105080:	e55b3015 	ldrb	r3, [fp, #-21]	; 0xffffffeb
 c105084:	e3530000 	cmp	r3, #0
 c105088:	0a000001 	beq	c105094 <pb_timeout_getchar+0xb8>
 c10508c:	e3a030fe 	mov	r3, #254	; 0xfe
 c105090:	ea000000 	b	c105098 <pb_timeout_getchar+0xbc>
 c105094:	e55b3016 	ldrb	r3, [fp, #-22]	; 0xffffffea
 c105098:	e1a00003 	mov	r0, r3
 c10509c:	e24bd010 	sub	sp, fp, #16
 c1050a0:	e89d6810 	ldm	sp, {r4, fp, sp, lr}
 c1050a4:	e12fff1e 	bx	lr

0c1050a8 <pbs_open>:
 c1050a8:	e1a0c00d 	mov	ip, sp
 c1050ac:	e92dd800 	push	{fp, ip, lr, pc}
 c1050b0:	e24cb004 	sub	fp, ip, #4
 c1050b4:	e24dd008 	sub	sp, sp, #8
 c1050b8:	e50b0010 	str	r0, [fp, #-16]
 c1050bc:	e59f303c 	ldr	r3, [pc, #60]	; c105100 <pbs_open+0x58>
 c1050c0:	e51b2010 	ldr	r2, [fp, #-16]
 c1050c4:	e5832000 	str	r2, [r3]
 c1050c8:	e59f3034 	ldr	r3, [pc, #52]	; c105104 <pbs_open+0x5c>
 c1050cc:	e3a0200c 	mov	r2, #12
 c1050d0:	e5832000 	str	r2, [r3]
 c1050d4:	e59f302c 	ldr	r3, [pc, #44]	; c105108 <pbs_open+0x60>
 c1050d8:	e3a02602 	mov	r2, #2097152	; 0x200000
 c1050dc:	e5832000 	str	r2, [r3]
 c1050e0:	e59f3024 	ldr	r3, [pc, #36]	; c10510c <pbs_open+0x64>
 c1050e4:	e59f2020 	ldr	r2, [pc, #32]	; c10510c <pbs_open+0x64>
 c1050e8:	e5922000 	ldr	r2, [r2]
 c1050ec:	e3c22642 	bic	r2, r2, #69206016	; 0x4200000
 c1050f0:	e5832000 	str	r2, [r3]
 c1050f4:	e24bd00c 	sub	sp, fp, #12
 c1050f8:	e89d6800 	ldm	sp, {fp, sp, lr}
 c1050fc:	e12fff1e 	bx	lr
 c105100:	0c7fff74 	.word	0x0c7fff74
 c105104:	01d20054 	.word	0x01d20054
 c105108:	01e00024 	.word	0x01e00024
 c10510c:	01e0000c 	.word	0x01e0000c

0c105110 <pbs_close>:
 c105110:	e1a0c00d 	mov	ip, sp
 c105114:	e92dd800 	push	{fp, ip, lr, pc}
 c105118:	e24cb004 	sub	fp, ip, #4
 c10511c:	e59f3024 	ldr	r3, [pc, #36]	; c105148 <pbs_close+0x38>
 c105120:	e59f2020 	ldr	r2, [pc, #32]	; c105148 <pbs_close+0x38>
 c105124:	e5922000 	ldr	r2, [r2]
 c105128:	e3822602 	orr	r2, r2, #2097152	; 0x200000
 c10512c:	e5832000 	str	r2, [r3]
 c105130:	e59f3014 	ldr	r3, [pc, #20]	; c10514c <pbs_close+0x3c>
 c105134:	e59f2014 	ldr	r2, [pc, #20]	; c105150 <pbs_close+0x40>
 c105138:	e5832000 	str	r2, [r3]
 c10513c:	e24bd00c 	sub	sp, fp, #12
 c105140:	e89d6800 	ldm	sp, {fp, sp, lr}
 c105144:	e12fff1e 	bx	lr
 c105148:	01e0000c 	.word	0x01e0000c
 c10514c:	0c7fff74 	.word	0x0c7fff74
 c105150:	0c105b58 	.word	0x0c105b58

0c105154 <sys_init>:
 c105154:	e1a0c00d 	mov	ip, sp
 c105158:	e92dd800 	push	{fp, ip, lr, pc}
 c10515c:	e24cb004 	sub	fp, ip, #4
 c105160:	e59f30ec 	ldr	r3, [pc, #236]	; c105254 <sys_init+0x100>
 c105164:	e3a02000 	mov	r2, #0
 c105168:	e5832000 	str	r2, [r3]
 c10516c:	e59f30e4 	ldr	r3, [pc, #228]	; c105258 <sys_init+0x104>
 c105170:	e3e02000 	mvn	r2, #0
 c105174:	e5832000 	str	r2, [r3]
 c105178:	e59f30dc 	ldr	r3, [pc, #220]	; c10525c <sys_init+0x108>
 c10517c:	e59f20dc 	ldr	r2, [pc, #220]	; c105260 <sys_init+0x10c>
 c105180:	e5832000 	str	r2, [r3]
 c105184:	e3a03776 	mov	r3, #30932992	; 0x1d80000
 c105188:	e59f20d4 	ldr	r2, [pc, #212]	; c105264 <sys_init+0x110>
 c10518c:	e5832000 	str	r2, [r3]
 c105190:	e59f30d0 	ldr	r3, [pc, #208]	; c105268 <sys_init+0x114>
 c105194:	e3a02008 	mov	r2, #8
 c105198:	e5832000 	str	r2, [r3]
 c10519c:	e59f30c8 	ldr	r3, [pc, #200]	; c10526c <sys_init+0x118>
 c1051a0:	e59f20c8 	ldr	r2, [pc, #200]	; c105270 <sys_init+0x11c>
 c1051a4:	e5832000 	str	r2, [r3]
 c1051a8:	e3a03771 	mov	r3, #29622272	; 0x1c40000
 c1051ac:	e3a0216e 	mov	r2, #-2147483621	; 0x8000001b
 c1051b0:	e5832000 	str	r2, [r3]
 c1051b4:	e3a03507 	mov	r3, #29360128	; 0x1c00000
 c1051b8:	e3a02000 	mov	r2, #0
 c1051bc:	e5832000 	str	r2, [r3]
 c1051c0:	e59f30ac 	ldr	r3, [pc, #172]	; c105274 <sys_init+0x120>
 c1051c4:	e59f20ac 	ldr	r2, [pc, #172]	; c105278 <sys_init+0x124>
 c1051c8:	e5832000 	str	r2, [r3]
 c1051cc:	e59f30a8 	ldr	r3, [pc, #168]	; c10527c <sys_init+0x128>
 c1051d0:	e59f20a8 	ldr	r2, [pc, #168]	; c105280 <sys_init+0x12c>
 c1051d4:	e5832000 	str	r2, [r3]
 c1051d8:	e59f30a4 	ldr	r3, [pc, #164]	; c105284 <sys_init+0x130>
 c1051dc:	e3a02000 	mov	r2, #0
 c1051e0:	e5832000 	str	r2, [r3]
 c1051e4:	eb00008c 	bl	c10541c <install_dummy_isr>
 c1051e8:	e59f3098 	ldr	r3, [pc, #152]	; c105288 <sys_init+0x134>
 c1051ec:	e3a02010 	mov	r2, #16
 c1051f0:	e5832000 	str	r2, [r3]
 c1051f4:	e59f3090 	ldr	r3, [pc, #144]	; c10528c <sys_init+0x138>
 c1051f8:	e3e02000 	mvn	r2, #0
 c1051fc:	e5832000 	str	r2, [r3]
 c105200:	e3a0361e 	mov	r3, #31457280	; 0x1e00000
 c105204:	e3a02001 	mov	r2, #1
 c105208:	e5832000 	str	r2, [r3]
 c10520c:	e10f0000 	mrs	r0, CPSR
 c105210:	e3c0001f 	bic	r0, r0, #31
 c105214:	e3800013 	orr	r0, r0, #19
 c105218:	e121f000 	msr	CPSR_c, r0
 c10521c:	e10f0000 	mrs	r0, CPSR
 c105220:	e3c00080 	bic	r0, r0, #128	; 0x80
 c105224:	e3800000 	orr	r0, r0, #0
 c105228:	e121f000 	msr	CPSR_c, r0
 c10522c:	e10f0000 	mrs	r0, CPSR
 c105230:	e3c00040 	bic	r0, r0, #64	; 0x40
 c105234:	e3800040 	orr	r0, r0, #64	; 0x40
 c105238:	e121f000 	msr	CPSR_c, r0
 c10523c:	eb000013 	bl	c105290 <port_init>
 c105240:	eb000500 	bl	c106648 <uart0_init>
 c105244:	eb00027a 	bl	c105c34 <show_sys_info>
 c105248:	e24bd00c 	sub	sp, fp, #12
 c10524c:	e89d6800 	ldm	sp, {fp, sp, lr}
 c105250:	e12fff1e 	bx	lr
 c105254:	01d30000 	.word	0x01d30000
 c105258:	01e0000c 	.word	0x01e0000c
 c10525c:	01d8000c 	.word	0x01d8000c
 c105260:	00000fff 	.word	0x00000fff
 c105264:	00038021 	.word	0x00038021
 c105268:	01d80008 	.word	0x01d80008
 c10526c:	01d80004 	.word	0x01d80004
 c105270:	00007ff8 	.word	0x00007ff8
 c105274:	01e00014 	.word	0x01e00014
 c105278:	00001f1b 	.word	0x00001f1b
 c10527c:	01e00010 	.word	0x01e00010
 c105280:	1b1b1b1b 	.word	0x1b1b1b1b
 c105284:	01e00008 	.word	0x01e00008
 c105288:	01d20054 	.word	0x01d20054
 c10528c:	01e00024 	.word	0x01e00024

0c105290 <port_init>:
 c105290:	e1a0c00d 	mov	ip, sp
 c105294:	e92dd800 	push	{fp, ip, lr, pc}
 c105298:	e24cb004 	sub	fp, ip, #4
 c10529c:	e59f3100 	ldr	r3, [pc, #256]	; c1053a4 <port_init+0x114>
 c1052a0:	e3e02000 	mvn	r2, #0
 c1052a4:	e5832000 	str	r2, [r3]
 c1052a8:	e59f30f8 	ldr	r3, [pc, #248]	; c1053a8 <port_init+0x118>
 c1052ac:	e3a020fe 	mov	r2, #254	; 0xfe
 c1052b0:	e5832000 	str	r2, [r3]
 c1052b4:	e59f30f0 	ldr	r3, [pc, #240]	; c1053ac <port_init+0x11c>
 c1052b8:	e3e02000 	mvn	r2, #0
 c1052bc:	e5832000 	str	r2, [r3]
 c1052c0:	e59f30e8 	ldr	r3, [pc, #232]	; c1053b0 <port_init+0x120>
 c1052c4:	e59f20e8 	ldr	r2, [pc, #232]	; c1053b4 <port_init+0x124>
 c1052c8:	e5832000 	str	r2, [r3]
 c1052cc:	e59f30e4 	ldr	r3, [pc, #228]	; c1053b8 <port_init+0x128>
 c1052d0:	e3e02000 	mvn	r2, #0
 c1052d4:	e5832000 	str	r2, [r3]
 c1052d8:	e59f30dc 	ldr	r3, [pc, #220]	; c1053bc <port_init+0x12c>
 c1052dc:	e59f20dc 	ldr	r2, [pc, #220]	; c1053c0 <port_init+0x130>
 c1052e0:	e5832000 	str	r2, [r3]
 c1052e4:	e59f30d8 	ldr	r3, [pc, #216]	; c1053c4 <port_init+0x134>
 c1052e8:	e59f20d8 	ldr	r2, [pc, #216]	; c1053c8 <port_init+0x138>
 c1052ec:	e5832000 	str	r2, [r3]
 c1052f0:	e59f30d4 	ldr	r3, [pc, #212]	; c1053cc <port_init+0x13c>
 c1052f4:	e3e02000 	mvn	r2, #0
 c1052f8:	e5832000 	str	r2, [r3]
 c1052fc:	e59f30cc 	ldr	r3, [pc, #204]	; c1053d0 <port_init+0x140>
 c105300:	e59f20cc 	ldr	r2, [pc, #204]	; c1053d4 <port_init+0x144>
 c105304:	e5832000 	str	r2, [r3]
 c105308:	e59f30c8 	ldr	r3, [pc, #200]	; c1053d8 <port_init+0x148>
 c10530c:	e3a020ff 	mov	r2, #255	; 0xff
 c105310:	e5832000 	str	r2, [r3]
 c105314:	e59f30c0 	ldr	r3, [pc, #192]	; c1053dc <port_init+0x14c>
 c105318:	e3e02000 	mvn	r2, #0
 c10531c:	e5832000 	str	r2, [r3]
 c105320:	e59f30b8 	ldr	r3, [pc, #184]	; c1053e0 <port_init+0x150>
 c105324:	e59f20b8 	ldr	r2, [pc, #184]	; c1053e4 <port_init+0x154>
 c105328:	e5832000 	str	r2, [r3]
 c10532c:	e59f30b4 	ldr	r3, [pc, #180]	; c1053e8 <port_init+0x158>
 c105330:	e59f20b4 	ldr	r2, [pc, #180]	; c1053ec <port_init+0x15c>
 c105334:	e5832000 	str	r2, [r3]
 c105338:	e59f30b0 	ldr	r3, [pc, #176]	; c1053f0 <port_init+0x160>
 c10533c:	e3e02000 	mvn	r2, #0
 c105340:	e5832000 	str	r2, [r3]
 c105344:	e59f30a8 	ldr	r3, [pc, #168]	; c1053f4 <port_init+0x164>
 c105348:	e59f20a8 	ldr	r2, [pc, #168]	; c1053f8 <port_init+0x168>
 c10534c:	e5832000 	str	r2, [r3]
 c105350:	e59f30a4 	ldr	r3, [pc, #164]	; c1053fc <port_init+0x16c>
 c105354:	e3a02074 	mov	r2, #116	; 0x74
 c105358:	e5832000 	str	r2, [r3]
 c10535c:	e59f309c 	ldr	r3, [pc, #156]	; c105400 <port_init+0x170>
 c105360:	e3e02000 	mvn	r2, #0
 c105364:	e5832000 	str	r2, [r3]
 c105368:	e59f3094 	ldr	r3, [pc, #148]	; c105404 <port_init+0x174>
 c10536c:	e59f2094 	ldr	r2, [pc, #148]	; c105408 <port_init+0x178>
 c105370:	e5832000 	str	r2, [r3]
 c105374:	e59f3090 	ldr	r3, [pc, #144]	; c10540c <port_init+0x17c>
 c105378:	e3a02030 	mov	r2, #48	; 0x30
 c10537c:	e5832000 	str	r2, [r3]
 c105380:	e59f3088 	ldr	r3, [pc, #136]	; c105410 <port_init+0x180>
 c105384:	e3a02007 	mov	r2, #7
 c105388:	e5832000 	str	r2, [r3]
 c10538c:	e59f3080 	ldr	r3, [pc, #128]	; c105414 <port_init+0x184>
 c105390:	e59f2080 	ldr	r2, [pc, #128]	; c105418 <port_init+0x188>
 c105394:	e5832000 	str	r2, [r3]
 c105398:	e24bd00c 	sub	sp, fp, #12
 c10539c:	e89d6800 	ldm	sp, {fp, sp, lr}
 c1053a0:	e12fff1e 	bx	lr
 c1053a4:	01d20004 	.word	0x01d20004
 c1053a8:	01d20000 	.word	0x01d20000
 c1053ac:	01d2000c 	.word	0x01d2000c
 c1053b0:	01d20008 	.word	0x01d20008
 c1053b4:	0000014f 	.word	0x0000014f
 c1053b8:	01d20014 	.word	0x01d20014
 c1053bc:	01d20010 	.word	0x01d20010
 c1053c0:	5ff555ff 	.word	0x5ff555ff
 c1053c4:	01d20018 	.word	0x01d20018
 c1053c8:	000094fb 	.word	0x000094fb
 c1053cc:	01d20020 	.word	0x01d20020
 c1053d0:	01d2001c 	.word	0x01d2001c
 c1053d4:	0000aaaa 	.word	0x0000aaaa
 c1053d8:	01d20024 	.word	0x01d20024
 c1053dc:	01d2002c 	.word	0x01d2002c
 c1053e0:	01d20028 	.word	0x01d20028
 c1053e4:	00025569 	.word	0x00025569
 c1053e8:	01d20030 	.word	0x01d20030
 c1053ec:	000001fb 	.word	0x000001fb
 c1053f0:	01d20038 	.word	0x01d20038
 c1053f4:	01d20034 	.word	0x01d20034
 c1053f8:	0000251a 	.word	0x0000251a
 c1053fc:	01d2003c 	.word	0x01d2003c
 c105400:	01d20044 	.word	0x01d20044
 c105404:	01d20040 	.word	0x01d20040
 c105408:	0000f5ff 	.word	0x0000f5ff
 c10540c:	01d20048 	.word	0x01d20048
 c105410:	01d2004c 	.word	0x01d2004c
 c105414:	01d20050 	.word	0x01d20050
 c105418:	22000220 	.word	0x22000220

0c10541c <install_dummy_isr>:
 c10541c:	e1a0c00d 	mov	ip, sp
 c105420:	e92dd800 	push	{fp, ip, lr, pc}
 c105424:	e24cb004 	sub	fp, ip, #4
 c105428:	e59f3184 	ldr	r3, [pc, #388]	; c1055b4 <install_dummy_isr+0x198>
 c10542c:	e59f2184 	ldr	r2, [pc, #388]	; c1055b8 <install_dummy_isr+0x19c>
 c105430:	e5832000 	str	r2, [r3]
 c105434:	e59f3180 	ldr	r3, [pc, #384]	; c1055bc <install_dummy_isr+0x1a0>
 c105438:	e59f2180 	ldr	r2, [pc, #384]	; c1055c0 <install_dummy_isr+0x1a4>
 c10543c:	e5832000 	str	r2, [r3]
 c105440:	e59f317c 	ldr	r3, [pc, #380]	; c1055c4 <install_dummy_isr+0x1a8>
 c105444:	e59f217c 	ldr	r2, [pc, #380]	; c1055c8 <install_dummy_isr+0x1ac>
 c105448:	e5832000 	str	r2, [r3]
 c10544c:	e59f3178 	ldr	r3, [pc, #376]	; c1055cc <install_dummy_isr+0x1b0>
 c105450:	e59f2178 	ldr	r2, [pc, #376]	; c1055d0 <install_dummy_isr+0x1b4>
 c105454:	e5832000 	str	r2, [r3]
 c105458:	e59f3174 	ldr	r3, [pc, #372]	; c1055d4 <install_dummy_isr+0x1b8>
 c10545c:	e59f2174 	ldr	r2, [pc, #372]	; c1055d8 <install_dummy_isr+0x1bc>
 c105460:	e5832000 	str	r2, [r3]
 c105464:	e59f3170 	ldr	r3, [pc, #368]	; c1055dc <install_dummy_isr+0x1c0>
 c105468:	e59f2170 	ldr	r2, [pc, #368]	; c1055e0 <install_dummy_isr+0x1c4>
 c10546c:	e5832000 	str	r2, [r3]
 c105470:	e59f316c 	ldr	r3, [pc, #364]	; c1055e4 <install_dummy_isr+0x1c8>
 c105474:	e59f216c 	ldr	r2, [pc, #364]	; c1055e8 <install_dummy_isr+0x1cc>
 c105478:	e5832000 	str	r2, [r3]
 c10547c:	e59f3168 	ldr	r3, [pc, #360]	; c1055ec <install_dummy_isr+0x1d0>
 c105480:	e59f2168 	ldr	r2, [pc, #360]	; c1055f0 <install_dummy_isr+0x1d4>
 c105484:	e5832000 	str	r2, [r3]
 c105488:	e59f3164 	ldr	r3, [pc, #356]	; c1055f4 <install_dummy_isr+0x1d8>
 c10548c:	e59f2164 	ldr	r2, [pc, #356]	; c1055f8 <install_dummy_isr+0x1dc>
 c105490:	e5832000 	str	r2, [r3]
 c105494:	e59f3160 	ldr	r3, [pc, #352]	; c1055fc <install_dummy_isr+0x1e0>
 c105498:	e59f2160 	ldr	r2, [pc, #352]	; c105600 <install_dummy_isr+0x1e4>
 c10549c:	e5832000 	str	r2, [r3]
 c1054a0:	e59f315c 	ldr	r3, [pc, #348]	; c105604 <install_dummy_isr+0x1e8>
 c1054a4:	e59f215c 	ldr	r2, [pc, #348]	; c105608 <install_dummy_isr+0x1ec>
 c1054a8:	e5832000 	str	r2, [r3]
 c1054ac:	e59f3158 	ldr	r3, [pc, #344]	; c10560c <install_dummy_isr+0x1f0>
 c1054b0:	e59f2158 	ldr	r2, [pc, #344]	; c105610 <install_dummy_isr+0x1f4>
 c1054b4:	e5832000 	str	r2, [r3]
 c1054b8:	e59f3154 	ldr	r3, [pc, #340]	; c105614 <install_dummy_isr+0x1f8>
 c1054bc:	e59f2154 	ldr	r2, [pc, #340]	; c105618 <install_dummy_isr+0x1fc>
 c1054c0:	e5832000 	str	r2, [r3]
 c1054c4:	e59f3150 	ldr	r3, [pc, #336]	; c10561c <install_dummy_isr+0x200>
 c1054c8:	e59f2150 	ldr	r2, [pc, #336]	; c105620 <install_dummy_isr+0x204>
 c1054cc:	e5832000 	str	r2, [r3]
 c1054d0:	e59f314c 	ldr	r3, [pc, #332]	; c105624 <install_dummy_isr+0x208>
 c1054d4:	e59f214c 	ldr	r2, [pc, #332]	; c105628 <install_dummy_isr+0x20c>
 c1054d8:	e5832000 	str	r2, [r3]
 c1054dc:	e59f3148 	ldr	r3, [pc, #328]	; c10562c <install_dummy_isr+0x210>
 c1054e0:	e59f2148 	ldr	r2, [pc, #328]	; c105630 <install_dummy_isr+0x214>
 c1054e4:	e5832000 	str	r2, [r3]
 c1054e8:	e59f3144 	ldr	r3, [pc, #324]	; c105634 <install_dummy_isr+0x218>
 c1054ec:	e59f2144 	ldr	r2, [pc, #324]	; c105638 <install_dummy_isr+0x21c>
 c1054f0:	e5832000 	str	r2, [r3]
 c1054f4:	e59f3140 	ldr	r3, [pc, #320]	; c10563c <install_dummy_isr+0x220>
 c1054f8:	e59f2140 	ldr	r2, [pc, #320]	; c105640 <install_dummy_isr+0x224>
 c1054fc:	e5832000 	str	r2, [r3]
 c105500:	e59f313c 	ldr	r3, [pc, #316]	; c105644 <install_dummy_isr+0x228>
 c105504:	e59f213c 	ldr	r2, [pc, #316]	; c105648 <install_dummy_isr+0x22c>
 c105508:	e5832000 	str	r2, [r3]
 c10550c:	e59f3138 	ldr	r3, [pc, #312]	; c10564c <install_dummy_isr+0x230>
 c105510:	e59f2138 	ldr	r2, [pc, #312]	; c105650 <install_dummy_isr+0x234>
 c105514:	e5832000 	str	r2, [r3]
 c105518:	e59f3134 	ldr	r3, [pc, #308]	; c105654 <install_dummy_isr+0x238>
 c10551c:	e59f2134 	ldr	r2, [pc, #308]	; c105658 <install_dummy_isr+0x23c>
 c105520:	e5832000 	str	r2, [r3]
 c105524:	e59f3130 	ldr	r3, [pc, #304]	; c10565c <install_dummy_isr+0x240>
 c105528:	e59f2130 	ldr	r2, [pc, #304]	; c105660 <install_dummy_isr+0x244>
 c10552c:	e5832000 	str	r2, [r3]
 c105530:	e59f312c 	ldr	r3, [pc, #300]	; c105664 <install_dummy_isr+0x248>
 c105534:	e59f212c 	ldr	r2, [pc, #300]	; c105668 <install_dummy_isr+0x24c>
 c105538:	e5832000 	str	r2, [r3]
 c10553c:	e59f3128 	ldr	r3, [pc, #296]	; c10566c <install_dummy_isr+0x250>
 c105540:	e59f2128 	ldr	r2, [pc, #296]	; c105670 <install_dummy_isr+0x254>
 c105544:	e5832000 	str	r2, [r3]
 c105548:	e59f3124 	ldr	r3, [pc, #292]	; c105674 <install_dummy_isr+0x258>
 c10554c:	e59f2124 	ldr	r2, [pc, #292]	; c105678 <install_dummy_isr+0x25c>
 c105550:	e5832000 	str	r2, [r3]
 c105554:	e59f3120 	ldr	r3, [pc, #288]	; c10567c <install_dummy_isr+0x260>
 c105558:	e59f2120 	ldr	r2, [pc, #288]	; c105680 <install_dummy_isr+0x264>
 c10555c:	e5832000 	str	r2, [r3]
 c105560:	e59f311c 	ldr	r3, [pc, #284]	; c105684 <install_dummy_isr+0x268>
 c105564:	e59f211c 	ldr	r2, [pc, #284]	; c105688 <install_dummy_isr+0x26c>
 c105568:	e5832000 	str	r2, [r3]
 c10556c:	e59f3118 	ldr	r3, [pc, #280]	; c10568c <install_dummy_isr+0x270>
 c105570:	e59f2118 	ldr	r2, [pc, #280]	; c105690 <install_dummy_isr+0x274>
 c105574:	e5832000 	str	r2, [r3]
 c105578:	e59f3114 	ldr	r3, [pc, #276]	; c105694 <install_dummy_isr+0x278>
 c10557c:	e59f2114 	ldr	r2, [pc, #276]	; c105698 <install_dummy_isr+0x27c>
 c105580:	e5832000 	str	r2, [r3]
 c105584:	e59f3110 	ldr	r3, [pc, #272]	; c10569c <install_dummy_isr+0x280>
 c105588:	e59f2110 	ldr	r2, [pc, #272]	; c1056a0 <install_dummy_isr+0x284>
 c10558c:	e5832000 	str	r2, [r3]
 c105590:	e59f310c 	ldr	r3, [pc, #268]	; c1056a4 <install_dummy_isr+0x288>
 c105594:	e59f210c 	ldr	r2, [pc, #268]	; c1056a8 <install_dummy_isr+0x28c>
 c105598:	e5832000 	str	r2, [r3]
 c10559c:	e59f3108 	ldr	r3, [pc, #264]	; c1056ac <install_dummy_isr+0x290>
 c1055a0:	e59f2108 	ldr	r2, [pc, #264]	; c1056b0 <install_dummy_isr+0x294>
 c1055a4:	e5832000 	str	r2, [r3]
 c1055a8:	e24bd00c 	sub	sp, fp, #12
 c1055ac:	e89d6800 	ldm	sp, {fp, sp, lr}
 c1055b0:	e12fff1e 	bx	lr
 c1055b4:	0c7fff08 	.word	0x0c7fff08
 c1055b8:	0c1056b4 	.word	0x0c1056b4
 c1055bc:	0c7fff04 	.word	0x0c7fff04
 c1055c0:	0c1056e0 	.word	0x0c1056e0
 c1055c4:	0c7fff18 	.word	0x0c7fff18
 c1055c8:	0c10570c 	.word	0x0c10570c
 c1055cc:	0c7fff1c 	.word	0x0c7fff1c
 c1055d0:	0c105738 	.word	0x0c105738
 c1055d4:	0c7fff0c 	.word	0x0c7fff0c
 c1055d8:	0c105764 	.word	0x0c105764
 c1055dc:	0c7fff10 	.word	0x0c7fff10
 c1055e0:	0c105790 	.word	0x0c105790
 c1055e4:	0c7fff20 	.word	0x0c7fff20
 c1055e8:	0c1057bc 	.word	0x0c1057bc
 c1055ec:	0c7fff24 	.word	0x0c7fff24
 c1055f0:	0c1057e8 	.word	0x0c1057e8
 c1055f4:	0c7fff28 	.word	0x0c7fff28
 c1055f8:	0c105814 	.word	0x0c105814
 c1055fc:	0c7fff2c 	.word	0x0c7fff2c
 c105600:	0c105840 	.word	0x0c105840
 c105604:	0c7fff30 	.word	0x0c7fff30
 c105608:	0c10586c 	.word	0x0c10586c
 c10560c:	0c7fff34 	.word	0x0c7fff34
 c105610:	0c105898 	.word	0x0c105898
 c105614:	0c7fff38 	.word	0x0c7fff38
 c105618:	0c1058c4 	.word	0x0c1058c4
 c10561c:	0c7fff3c 	.word	0x0c7fff3c
 c105620:	0c1058f0 	.word	0x0c1058f0
 c105624:	0c7fff40 	.word	0x0c7fff40
 c105628:	0c10591c 	.word	0x0c10591c
 c10562c:	0c7fff44 	.word	0x0c7fff44
 c105630:	0c105948 	.word	0x0c105948
 c105634:	0c7fff48 	.word	0x0c7fff48
 c105638:	0c105974 	.word	0x0c105974
 c10563c:	0c7fff4c 	.word	0x0c7fff4c
 c105640:	0c1059a0 	.word	0x0c1059a0
 c105644:	0c7fff50 	.word	0x0c7fff50
 c105648:	0c1059cc 	.word	0x0c1059cc
 c10564c:	0c7fff54 	.word	0x0c7fff54
 c105650:	0c1059f8 	.word	0x0c1059f8
 c105654:	0c7fff58 	.word	0x0c7fff58
 c105658:	0c105a24 	.word	0x0c105a24
 c10565c:	0c7fff5c 	.word	0x0c7fff5c
 c105660:	0c105a50 	.word	0x0c105a50
 c105664:	0c7fff60 	.word	0x0c7fff60
 c105668:	0c105a7c 	.word	0x0c105a7c
 c10566c:	0c7fff64 	.word	0x0c7fff64
 c105670:	0c105aa8 	.word	0x0c105aa8
 c105674:	0c7fff68 	.word	0x0c7fff68
 c105678:	0c105ad4 	.word	0x0c105ad4
 c10567c:	0c7fff6c 	.word	0x0c7fff6c
 c105680:	0c105b00 	.word	0x0c105b00
 c105684:	0c7fff70 	.word	0x0c7fff70
 c105688:	0c105b2c 	.word	0x0c105b2c
 c10568c:	0c7fff74 	.word	0x0c7fff74
 c105690:	0c105b58 	.word	0x0c105b58
 c105694:	0c7fff78 	.word	0x0c7fff78
 c105698:	0c105b84 	.word	0x0c105b84
 c10569c:	0c7fff7c 	.word	0x0c7fff7c
 c1056a0:	0c105bb0 	.word	0x0c105bb0
 c1056a4:	0c7fff80 	.word	0x0c7fff80
 c1056a8:	0c105bdc 	.word	0x0c105bdc
 c1056ac:	0c7fff84 	.word	0x0c7fff84
 c1056b0:	0c105c08 	.word	0x0c105c08

0c1056b4 <isr_SWI_dummy>:
 c1056b4:	e52dc004 	push	{ip}		; (str ip, [sp, #-4]!)
 c1056b8:	e1a0c00d 	mov	ip, sp
 c1056bc:	e92dd80f 	push	{r0, r1, r2, r3, fp, ip, lr, pc}
 c1056c0:	e24cb004 	sub	fp, ip, #4
 c1056c4:	e59f0010 	ldr	r0, [pc, #16]	; c1056dc <isr_SWI_dummy+0x28>
 c1056c8:	eb00041d 	bl	c106744 <uart0_puts>
 c1056cc:	e3a03785 	mov	r3, #34865152	; 0x2140000
 c1056d0:	e3a02075 	mov	r2, #117	; 0x75
 c1056d4:	e5c32000 	strb	r2, [r3]
 c1056d8:	eafffffe 	b	c1056d8 <isr_SWI_dummy+0x24>
 c1056dc:	0c108b14 	.word	0x0c108b14

0c1056e0 <isr_UNDEF_dummy>:
 c1056e0:	e52dc004 	push	{ip}		; (str ip, [sp, #-4]!)
 c1056e4:	e1a0c00d 	mov	ip, sp
 c1056e8:	e92dd80f 	push	{r0, r1, r2, r3, fp, ip, lr, pc}
 c1056ec:	e24cb004 	sub	fp, ip, #4
 c1056f0:	e59f0010 	ldr	r0, [pc, #16]	; c105708 <isr_UNDEF_dummy+0x28>
 c1056f4:	eb000412 	bl	c106744 <uart0_puts>
 c1056f8:	e3a03785 	mov	r3, #34865152	; 0x2140000
 c1056fc:	e3a02075 	mov	r2, #117	; 0x75
 c105700:	e5c32000 	strb	r2, [r3]
 c105704:	eafffffe 	b	c105704 <isr_UNDEF_dummy+0x24>
 c105708:	0c108b40 	.word	0x0c108b40

0c10570c <isr_IRQ_dummy>:
 c10570c:	e52dc004 	push	{ip}		; (str ip, [sp, #-4]!)
 c105710:	e1a0c00d 	mov	ip, sp
 c105714:	e92dd80f 	push	{r0, r1, r2, r3, fp, ip, lr, pc}
 c105718:	e24cb004 	sub	fp, ip, #4
 c10571c:	e59f0010 	ldr	r0, [pc, #16]	; c105734 <isr_IRQ_dummy+0x28>
 c105720:	eb000407 	bl	c106744 <uart0_puts>
 c105724:	e3a03785 	mov	r3, #34865152	; 0x2140000
 c105728:	e3a02075 	mov	r2, #117	; 0x75
 c10572c:	e5c32000 	strb	r2, [r3]
 c105730:	eafffffe 	b	c105730 <isr_IRQ_dummy+0x24>
 c105734:	0c108b70 	.word	0x0c108b70

0c105738 <isr_FIQ_dummy>:
 c105738:	e52dc004 	push	{ip}		; (str ip, [sp, #-4]!)
 c10573c:	e1a0c00d 	mov	ip, sp
 c105740:	e92dd80f 	push	{r0, r1, r2, r3, fp, ip, lr, pc}
 c105744:	e24cb004 	sub	fp, ip, #4
 c105748:	e59f0010 	ldr	r0, [pc, #16]	; c105760 <isr_FIQ_dummy+0x28>
 c10574c:	eb0003fc 	bl	c106744 <uart0_puts>
 c105750:	e3a03785 	mov	r3, #34865152	; 0x2140000
 c105754:	e3a02075 	mov	r2, #117	; 0x75
 c105758:	e5c32000 	strb	r2, [r3]
 c10575c:	eafffffe 	b	c10575c <isr_FIQ_dummy+0x24>
 c105760:	0c108b9c 	.word	0x0c108b9c

0c105764 <isr_PABORT_dummy>:
 c105764:	e52dc004 	push	{ip}		; (str ip, [sp, #-4]!)
 c105768:	e1a0c00d 	mov	ip, sp
 c10576c:	e92dd80f 	push	{r0, r1, r2, r3, fp, ip, lr, pc}
 c105770:	e24cb004 	sub	fp, ip, #4
 c105774:	e59f0010 	ldr	r0, [pc, #16]	; c10578c <isr_PABORT_dummy+0x28>
 c105778:	eb0003f1 	bl	c106744 <uart0_puts>
 c10577c:	e3a03785 	mov	r3, #34865152	; 0x2140000
 c105780:	e3a02075 	mov	r2, #117	; 0x75
 c105784:	e5c32000 	strb	r2, [r3]
 c105788:	eafffffe 	b	c105788 <isr_PABORT_dummy+0x24>
 c10578c:	0c108bc8 	.word	0x0c108bc8

0c105790 <isr_DABORT_dummy>:
 c105790:	e52dc004 	push	{ip}		; (str ip, [sp, #-4]!)
 c105794:	e1a0c00d 	mov	ip, sp
 c105798:	e92dd80f 	push	{r0, r1, r2, r3, fp, ip, lr, pc}
 c10579c:	e24cb004 	sub	fp, ip, #4
 c1057a0:	e59f0010 	ldr	r0, [pc, #16]	; c1057b8 <isr_DABORT_dummy+0x28>
 c1057a4:	eb0003e6 	bl	c106744 <uart0_puts>
 c1057a8:	e3a03785 	mov	r3, #34865152	; 0x2140000
 c1057ac:	e3a02075 	mov	r2, #117	; 0x75
 c1057b0:	e5c32000 	strb	r2, [r3]
 c1057b4:	eafffffe 	b	c1057b4 <isr_DABORT_dummy+0x24>
 c1057b8:	0c108bf8 	.word	0x0c108bf8

0c1057bc <isr_ADC_dummy>:
 c1057bc:	e52dc004 	push	{ip}		; (str ip, [sp, #-4]!)
 c1057c0:	e1a0c00d 	mov	ip, sp
 c1057c4:	e92dd80f 	push	{r0, r1, r2, r3, fp, ip, lr, pc}
 c1057c8:	e24cb004 	sub	fp, ip, #4
 c1057cc:	e59f0010 	ldr	r0, [pc, #16]	; c1057e4 <isr_ADC_dummy+0x28>
 c1057d0:	eb0003db 	bl	c106744 <uart0_puts>
 c1057d4:	e3a03785 	mov	r3, #34865152	; 0x2140000
 c1057d8:	e3a02075 	mov	r2, #117	; 0x75
 c1057dc:	e5c32000 	strb	r2, [r3]
 c1057e0:	eafffffe 	b	c1057e0 <isr_ADC_dummy+0x24>
 c1057e4:	0c108c28 	.word	0x0c108c28

0c1057e8 <isr_RTC_dummy>:
 c1057e8:	e52dc004 	push	{ip}		; (str ip, [sp, #-4]!)
 c1057ec:	e1a0c00d 	mov	ip, sp
 c1057f0:	e92dd80f 	push	{r0, r1, r2, r3, fp, ip, lr, pc}
 c1057f4:	e24cb004 	sub	fp, ip, #4
 c1057f8:	e59f0010 	ldr	r0, [pc, #16]	; c105810 <isr_RTC_dummy+0x28>
 c1057fc:	eb0003d0 	bl	c106744 <uart0_puts>
 c105800:	e3a03785 	mov	r3, #34865152	; 0x2140000
 c105804:	e3a02075 	mov	r2, #117	; 0x75
 c105808:	e5c32000 	strb	r2, [r3]
 c10580c:	eafffffe 	b	c10580c <isr_RTC_dummy+0x24>
 c105810:	0c108c54 	.word	0x0c108c54

0c105814 <isr_UTXD1_dummy>:
 c105814:	e52dc004 	push	{ip}		; (str ip, [sp, #-4]!)
 c105818:	e1a0c00d 	mov	ip, sp
 c10581c:	e92dd80f 	push	{r0, r1, r2, r3, fp, ip, lr, pc}
 c105820:	e24cb004 	sub	fp, ip, #4
 c105824:	e59f0010 	ldr	r0, [pc, #16]	; c10583c <isr_UTXD1_dummy+0x28>
 c105828:	eb0003c5 	bl	c106744 <uart0_puts>
 c10582c:	e3a03785 	mov	r3, #34865152	; 0x2140000
 c105830:	e3a02075 	mov	r2, #117	; 0x75
 c105834:	e5c32000 	strb	r2, [r3]
 c105838:	eafffffe 	b	c105838 <isr_UTXD1_dummy+0x24>
 c10583c:	0c108c80 	.word	0x0c108c80

0c105840 <isr_UTXD0_dummy>:
 c105840:	e52dc004 	push	{ip}		; (str ip, [sp, #-4]!)
 c105844:	e1a0c00d 	mov	ip, sp
 c105848:	e92dd80f 	push	{r0, r1, r2, r3, fp, ip, lr, pc}
 c10584c:	e24cb004 	sub	fp, ip, #4
 c105850:	e59f0010 	ldr	r0, [pc, #16]	; c105868 <isr_UTXD0_dummy+0x28>
 c105854:	eb0003ba 	bl	c106744 <uart0_puts>
 c105858:	e3a03785 	mov	r3, #34865152	; 0x2140000
 c10585c:	e3a02075 	mov	r2, #117	; 0x75
 c105860:	e5c32000 	strb	r2, [r3]
 c105864:	eafffffe 	b	c105864 <isr_UTXD0_dummy+0x24>
 c105868:	0c108cb0 	.word	0x0c108cb0

0c10586c <isr_SIO_dummy>:
 c10586c:	e52dc004 	push	{ip}		; (str ip, [sp, #-4]!)
 c105870:	e1a0c00d 	mov	ip, sp
 c105874:	e92dd80f 	push	{r0, r1, r2, r3, fp, ip, lr, pc}
 c105878:	e24cb004 	sub	fp, ip, #4
 c10587c:	e59f0010 	ldr	r0, [pc, #16]	; c105894 <isr_SIO_dummy+0x28>
 c105880:	eb0003af 	bl	c106744 <uart0_puts>
 c105884:	e3a03785 	mov	r3, #34865152	; 0x2140000
 c105888:	e3a02075 	mov	r2, #117	; 0x75
 c10588c:	e5c32000 	strb	r2, [r3]
 c105890:	eafffffe 	b	c105890 <isr_SIO_dummy+0x24>
 c105894:	0c108ce0 	.word	0x0c108ce0

0c105898 <isr_IIC_dummy>:
 c105898:	e52dc004 	push	{ip}		; (str ip, [sp, #-4]!)
 c10589c:	e1a0c00d 	mov	ip, sp
 c1058a0:	e92dd80f 	push	{r0, r1, r2, r3, fp, ip, lr, pc}
 c1058a4:	e24cb004 	sub	fp, ip, #4
 c1058a8:	e59f0010 	ldr	r0, [pc, #16]	; c1058c0 <isr_IIC_dummy+0x28>
 c1058ac:	eb0003a4 	bl	c106744 <uart0_puts>
 c1058b0:	e3a03785 	mov	r3, #34865152	; 0x2140000
 c1058b4:	e3a02075 	mov	r2, #117	; 0x75
 c1058b8:	e5c32000 	strb	r2, [r3]
 c1058bc:	eafffffe 	b	c1058bc <isr_IIC_dummy+0x24>
 c1058c0:	0c108d0c 	.word	0x0c108d0c

0c1058c4 <isr_URXD1_dummy>:
 c1058c4:	e52dc004 	push	{ip}		; (str ip, [sp, #-4]!)
 c1058c8:	e1a0c00d 	mov	ip, sp
 c1058cc:	e92dd80f 	push	{r0, r1, r2, r3, fp, ip, lr, pc}
 c1058d0:	e24cb004 	sub	fp, ip, #4
 c1058d4:	e59f0010 	ldr	r0, [pc, #16]	; c1058ec <isr_URXD1_dummy+0x28>
 c1058d8:	eb000399 	bl	c106744 <uart0_puts>
 c1058dc:	e3a03785 	mov	r3, #34865152	; 0x2140000
 c1058e0:	e3a02075 	mov	r2, #117	; 0x75
 c1058e4:	e5c32000 	strb	r2, [r3]
 c1058e8:	eafffffe 	b	c1058e8 <isr_URXD1_dummy+0x24>
 c1058ec:	0c108d38 	.word	0x0c108d38

0c1058f0 <isr_URXD0_dummy>:
 c1058f0:	e52dc004 	push	{ip}		; (str ip, [sp, #-4]!)
 c1058f4:	e1a0c00d 	mov	ip, sp
 c1058f8:	e92dd80f 	push	{r0, r1, r2, r3, fp, ip, lr, pc}
 c1058fc:	e24cb004 	sub	fp, ip, #4
 c105900:	e59f0010 	ldr	r0, [pc, #16]	; c105918 <isr_URXD0_dummy+0x28>
 c105904:	eb00038e 	bl	c106744 <uart0_puts>
 c105908:	e3a03785 	mov	r3, #34865152	; 0x2140000
 c10590c:	e3a02075 	mov	r2, #117	; 0x75
 c105910:	e5c32000 	strb	r2, [r3]
 c105914:	eafffffe 	b	c105914 <isr_URXD0_dummy+0x24>
 c105918:	0c108d68 	.word	0x0c108d68

0c10591c <isr_TIMER5_dummy>:
 c10591c:	e52dc004 	push	{ip}		; (str ip, [sp, #-4]!)
 c105920:	e1a0c00d 	mov	ip, sp
 c105924:	e92dd80f 	push	{r0, r1, r2, r3, fp, ip, lr, pc}
 c105928:	e24cb004 	sub	fp, ip, #4
 c10592c:	e59f0010 	ldr	r0, [pc, #16]	; c105944 <isr_TIMER5_dummy+0x28>
 c105930:	eb000383 	bl	c106744 <uart0_puts>
 c105934:	e3a03785 	mov	r3, #34865152	; 0x2140000
 c105938:	e3a02075 	mov	r2, #117	; 0x75
 c10593c:	e5c32000 	strb	r2, [r3]
 c105940:	eafffffe 	b	c105940 <isr_TIMER5_dummy+0x24>
 c105944:	0c108d98 	.word	0x0c108d98

0c105948 <isr_TIMER4_dummy>:
 c105948:	e52dc004 	push	{ip}		; (str ip, [sp, #-4]!)
 c10594c:	e1a0c00d 	mov	ip, sp
 c105950:	e92dd80f 	push	{r0, r1, r2, r3, fp, ip, lr, pc}
 c105954:	e24cb004 	sub	fp, ip, #4
 c105958:	e59f0010 	ldr	r0, [pc, #16]	; c105970 <isr_TIMER4_dummy+0x28>
 c10595c:	eb000378 	bl	c106744 <uart0_puts>
 c105960:	e3a03785 	mov	r3, #34865152	; 0x2140000
 c105964:	e3a02075 	mov	r2, #117	; 0x75
 c105968:	e5c32000 	strb	r2, [r3]
 c10596c:	eafffffe 	b	c10596c <isr_TIMER4_dummy+0x24>
 c105970:	0c108dc8 	.word	0x0c108dc8

0c105974 <isr_TIMER3_dummy>:
 c105974:	e52dc004 	push	{ip}		; (str ip, [sp, #-4]!)
 c105978:	e1a0c00d 	mov	ip, sp
 c10597c:	e92dd80f 	push	{r0, r1, r2, r3, fp, ip, lr, pc}
 c105980:	e24cb004 	sub	fp, ip, #4
 c105984:	e59f0010 	ldr	r0, [pc, #16]	; c10599c <isr_TIMER3_dummy+0x28>
 c105988:	eb00036d 	bl	c106744 <uart0_puts>
 c10598c:	e3a03785 	mov	r3, #34865152	; 0x2140000
 c105990:	e3a02075 	mov	r2, #117	; 0x75
 c105994:	e5c32000 	strb	r2, [r3]
 c105998:	eafffffe 	b	c105998 <isr_TIMER3_dummy+0x24>
 c10599c:	0c108df8 	.word	0x0c108df8

0c1059a0 <isr_TIMER2_dummy>:
 c1059a0:	e52dc004 	push	{ip}		; (str ip, [sp, #-4]!)
 c1059a4:	e1a0c00d 	mov	ip, sp
 c1059a8:	e92dd80f 	push	{r0, r1, r2, r3, fp, ip, lr, pc}
 c1059ac:	e24cb004 	sub	fp, ip, #4
 c1059b0:	e59f0010 	ldr	r0, [pc, #16]	; c1059c8 <isr_TIMER2_dummy+0x28>
 c1059b4:	eb000362 	bl	c106744 <uart0_puts>
 c1059b8:	e3a03785 	mov	r3, #34865152	; 0x2140000
 c1059bc:	e3a02075 	mov	r2, #117	; 0x75
 c1059c0:	e5c32000 	strb	r2, [r3]
 c1059c4:	eafffffe 	b	c1059c4 <isr_TIMER2_dummy+0x24>
 c1059c8:	0c108e28 	.word	0x0c108e28

0c1059cc <isr_TIMER1_dummy>:
 c1059cc:	e52dc004 	push	{ip}		; (str ip, [sp, #-4]!)
 c1059d0:	e1a0c00d 	mov	ip, sp
 c1059d4:	e92dd80f 	push	{r0, r1, r2, r3, fp, ip, lr, pc}
 c1059d8:	e24cb004 	sub	fp, ip, #4
 c1059dc:	e59f0010 	ldr	r0, [pc, #16]	; c1059f4 <isr_TIMER1_dummy+0x28>
 c1059e0:	eb000357 	bl	c106744 <uart0_puts>
 c1059e4:	e3a03785 	mov	r3, #34865152	; 0x2140000
 c1059e8:	e3a02075 	mov	r2, #117	; 0x75
 c1059ec:	e5c32000 	strb	r2, [r3]
 c1059f0:	eafffffe 	b	c1059f0 <isr_TIMER1_dummy+0x24>
 c1059f4:	0c108e58 	.word	0x0c108e58

0c1059f8 <isr_TIMER0_dummy>:
 c1059f8:	e52dc004 	push	{ip}		; (str ip, [sp, #-4]!)
 c1059fc:	e1a0c00d 	mov	ip, sp
 c105a00:	e92dd80f 	push	{r0, r1, r2, r3, fp, ip, lr, pc}
 c105a04:	e24cb004 	sub	fp, ip, #4
 c105a08:	e59f0010 	ldr	r0, [pc, #16]	; c105a20 <isr_TIMER0_dummy+0x28>
 c105a0c:	eb00034c 	bl	c106744 <uart0_puts>
 c105a10:	e3a03785 	mov	r3, #34865152	; 0x2140000
 c105a14:	e3a02075 	mov	r2, #117	; 0x75
 c105a18:	e5c32000 	strb	r2, [r3]
 c105a1c:	eafffffe 	b	c105a1c <isr_TIMER0_dummy+0x24>
 c105a20:	0c108e88 	.word	0x0c108e88

0c105a24 <isr_UERR01_dummy>:
 c105a24:	e52dc004 	push	{ip}		; (str ip, [sp, #-4]!)
 c105a28:	e1a0c00d 	mov	ip, sp
 c105a2c:	e92dd80f 	push	{r0, r1, r2, r3, fp, ip, lr, pc}
 c105a30:	e24cb004 	sub	fp, ip, #4
 c105a34:	e59f0010 	ldr	r0, [pc, #16]	; c105a4c <isr_UERR01_dummy+0x28>
 c105a38:	eb000341 	bl	c106744 <uart0_puts>
 c105a3c:	e3a03785 	mov	r3, #34865152	; 0x2140000
 c105a40:	e3a02075 	mov	r2, #117	; 0x75
 c105a44:	e5c32000 	strb	r2, [r3]
 c105a48:	eafffffe 	b	c105a48 <isr_UERR01_dummy+0x24>
 c105a4c:	0c108eb8 	.word	0x0c108eb8

0c105a50 <isr_WDT_dummy>:
 c105a50:	e52dc004 	push	{ip}		; (str ip, [sp, #-4]!)
 c105a54:	e1a0c00d 	mov	ip, sp
 c105a58:	e92dd80f 	push	{r0, r1, r2, r3, fp, ip, lr, pc}
 c105a5c:	e24cb004 	sub	fp, ip, #4
 c105a60:	e59f0010 	ldr	r0, [pc, #16]	; c105a78 <isr_WDT_dummy+0x28>
 c105a64:	eb000336 	bl	c106744 <uart0_puts>
 c105a68:	e3a03785 	mov	r3, #34865152	; 0x2140000
 c105a6c:	e3a02075 	mov	r2, #117	; 0x75
 c105a70:	e5c32000 	strb	r2, [r3]
 c105a74:	eafffffe 	b	c105a74 <isr_WDT_dummy+0x24>
 c105a78:	0c108ee8 	.word	0x0c108ee8

0c105a7c <isr_BDMA1_dummy>:
 c105a7c:	e52dc004 	push	{ip}		; (str ip, [sp, #-4]!)
 c105a80:	e1a0c00d 	mov	ip, sp
 c105a84:	e92dd80f 	push	{r0, r1, r2, r3, fp, ip, lr, pc}
 c105a88:	e24cb004 	sub	fp, ip, #4
 c105a8c:	e59f0010 	ldr	r0, [pc, #16]	; c105aa4 <isr_BDMA1_dummy+0x28>
 c105a90:	eb00032b 	bl	c106744 <uart0_puts>
 c105a94:	e3a03785 	mov	r3, #34865152	; 0x2140000
 c105a98:	e3a02075 	mov	r2, #117	; 0x75
 c105a9c:	e5c32000 	strb	r2, [r3]
 c105aa0:	eafffffe 	b	c105aa0 <isr_BDMA1_dummy+0x24>
 c105aa4:	0c108f14 	.word	0x0c108f14

0c105aa8 <isr_BDMA0_dummy>:
 c105aa8:	e52dc004 	push	{ip}		; (str ip, [sp, #-4]!)
 c105aac:	e1a0c00d 	mov	ip, sp
 c105ab0:	e92dd80f 	push	{r0, r1, r2, r3, fp, ip, lr, pc}
 c105ab4:	e24cb004 	sub	fp, ip, #4
 c105ab8:	e59f0010 	ldr	r0, [pc, #16]	; c105ad0 <isr_BDMA0_dummy+0x28>
 c105abc:	eb000320 	bl	c106744 <uart0_puts>
 c105ac0:	e3a03785 	mov	r3, #34865152	; 0x2140000
 c105ac4:	e3a02075 	mov	r2, #117	; 0x75
 c105ac8:	e5c32000 	strb	r2, [r3]
 c105acc:	eafffffe 	b	c105acc <isr_BDMA0_dummy+0x24>
 c105ad0:	0c108f44 	.word	0x0c108f44

0c105ad4 <isr_ZDMA1_dummy>:
 c105ad4:	e52dc004 	push	{ip}		; (str ip, [sp, #-4]!)
 c105ad8:	e1a0c00d 	mov	ip, sp
 c105adc:	e92dd80f 	push	{r0, r1, r2, r3, fp, ip, lr, pc}
 c105ae0:	e24cb004 	sub	fp, ip, #4
 c105ae4:	e59f0010 	ldr	r0, [pc, #16]	; c105afc <isr_ZDMA1_dummy+0x28>
 c105ae8:	eb000315 	bl	c106744 <uart0_puts>
 c105aec:	e3a03785 	mov	r3, #34865152	; 0x2140000
 c105af0:	e3a02075 	mov	r2, #117	; 0x75
 c105af4:	e5c32000 	strb	r2, [r3]
 c105af8:	eafffffe 	b	c105af8 <isr_ZDMA1_dummy+0x24>
 c105afc:	0c108f74 	.word	0x0c108f74

0c105b00 <isr_ZDMA0_dummy>:
 c105b00:	e52dc004 	push	{ip}		; (str ip, [sp, #-4]!)
 c105b04:	e1a0c00d 	mov	ip, sp
 c105b08:	e92dd80f 	push	{r0, r1, r2, r3, fp, ip, lr, pc}
 c105b0c:	e24cb004 	sub	fp, ip, #4
 c105b10:	e59f0010 	ldr	r0, [pc, #16]	; c105b28 <isr_ZDMA0_dummy+0x28>
 c105b14:	eb00030a 	bl	c106744 <uart0_puts>
 c105b18:	e3a03785 	mov	r3, #34865152	; 0x2140000
 c105b1c:	e3a02075 	mov	r2, #117	; 0x75
 c105b20:	e5c32000 	strb	r2, [r3]
 c105b24:	eafffffe 	b	c105b24 <isr_ZDMA0_dummy+0x24>
 c105b28:	0c108fa4 	.word	0x0c108fa4

0c105b2c <isr_TICK_dummy>:
 c105b2c:	e52dc004 	push	{ip}		; (str ip, [sp, #-4]!)
 c105b30:	e1a0c00d 	mov	ip, sp
 c105b34:	e92dd80f 	push	{r0, r1, r2, r3, fp, ip, lr, pc}
 c105b38:	e24cb004 	sub	fp, ip, #4
 c105b3c:	e59f0010 	ldr	r0, [pc, #16]	; c105b54 <isr_TICK_dummy+0x28>
 c105b40:	eb0002ff 	bl	c106744 <uart0_puts>
 c105b44:	e3a03785 	mov	r3, #34865152	; 0x2140000
 c105b48:	e3a02075 	mov	r2, #117	; 0x75
 c105b4c:	e5c32000 	strb	r2, [r3]
 c105b50:	eafffffe 	b	c105b50 <isr_TICK_dummy+0x24>
 c105b54:	0c108d98 	.word	0x0c108d98

0c105b58 <isr_PB_dummy>:
 c105b58:	e52dc004 	push	{ip}		; (str ip, [sp, #-4]!)
 c105b5c:	e1a0c00d 	mov	ip, sp
 c105b60:	e92dd80f 	push	{r0, r1, r2, r3, fp, ip, lr, pc}
 c105b64:	e24cb004 	sub	fp, ip, #4
 c105b68:	e59f0010 	ldr	r0, [pc, #16]	; c105b80 <isr_PB_dummy+0x28>
 c105b6c:	eb0002f4 	bl	c106744 <uart0_puts>
 c105b70:	e3a03785 	mov	r3, #34865152	; 0x2140000
 c105b74:	e3a02075 	mov	r2, #117	; 0x75
 c105b78:	e5c32000 	strb	r2, [r3]
 c105b7c:	eafffffe 	b	c105b7c <isr_PB_dummy+0x24>
 c105b80:	0c108d98 	.word	0x0c108d98

0c105b84 <isr_ETHERNET_dummy>:
 c105b84:	e52dc004 	push	{ip}		; (str ip, [sp, #-4]!)
 c105b88:	e1a0c00d 	mov	ip, sp
 c105b8c:	e92dd80f 	push	{r0, r1, r2, r3, fp, ip, lr, pc}
 c105b90:	e24cb004 	sub	fp, ip, #4
 c105b94:	e59f0010 	ldr	r0, [pc, #16]	; c105bac <isr_ETHERNET_dummy+0x28>
 c105b98:	eb0002e9 	bl	c106744 <uart0_puts>
 c105b9c:	e3a03785 	mov	r3, #34865152	; 0x2140000
 c105ba0:	e3a02075 	mov	r2, #117	; 0x75
 c105ba4:	e5c32000 	strb	r2, [r3]
 c105ba8:	eafffffe 	b	c105ba8 <isr_ETHERNET_dummy+0x24>
 c105bac:	0c108fd4 	.word	0x0c108fd4

0c105bb0 <isr_TS_dummy>:
 c105bb0:	e52dc004 	push	{ip}		; (str ip, [sp, #-4]!)
 c105bb4:	e1a0c00d 	mov	ip, sp
 c105bb8:	e92dd80f 	push	{r0, r1, r2, r3, fp, ip, lr, pc}
 c105bbc:	e24cb004 	sub	fp, ip, #4
 c105bc0:	e59f0010 	ldr	r0, [pc, #16]	; c105bd8 <isr_TS_dummy+0x28>
 c105bc4:	eb0002de 	bl	c106744 <uart0_puts>
 c105bc8:	e3a03785 	mov	r3, #34865152	; 0x2140000
 c105bcc:	e3a02075 	mov	r2, #117	; 0x75
 c105bd0:	e5c32000 	strb	r2, [r3]
 c105bd4:	eafffffe 	b	c105bd4 <isr_TS_dummy+0x24>
 c105bd8:	0c109008 	.word	0x0c109008

0c105bdc <isr_KEYPAD_dummy>:
 c105bdc:	e52dc004 	push	{ip}		; (str ip, [sp, #-4]!)
 c105be0:	e1a0c00d 	mov	ip, sp
 c105be4:	e92dd80f 	push	{r0, r1, r2, r3, fp, ip, lr, pc}
 c105be8:	e24cb004 	sub	fp, ip, #4
 c105bec:	e59f0010 	ldr	r0, [pc, #16]	; c105c04 <isr_KEYPAD_dummy+0x28>
 c105bf0:	eb0002d3 	bl	c106744 <uart0_puts>
 c105bf4:	e3a03785 	mov	r3, #34865152	; 0x2140000
 c105bf8:	e3a02075 	mov	r2, #117	; 0x75
 c105bfc:	e5c32000 	strb	r2, [r3]
 c105c00:	eafffffe 	b	c105c00 <isr_KEYPAD_dummy+0x24>
 c105c04:	0c109034 	.word	0x0c109034

0c105c08 <isr_USB_dummy>:
 c105c08:	e52dc004 	push	{ip}		; (str ip, [sp, #-4]!)
 c105c0c:	e1a0c00d 	mov	ip, sp
 c105c10:	e92dd80f 	push	{r0, r1, r2, r3, fp, ip, lr, pc}
 c105c14:	e24cb004 	sub	fp, ip, #4
 c105c18:	e59f0010 	ldr	r0, [pc, #16]	; c105c30 <isr_USB_dummy+0x28>
 c105c1c:	eb0002c8 	bl	c106744 <uart0_puts>
 c105c20:	e3a03785 	mov	r3, #34865152	; 0x2140000
 c105c24:	e3a02075 	mov	r2, #117	; 0x75
 c105c28:	e5c32000 	strb	r2, [r3]
 c105c2c:	eafffffe 	b	c105c2c <isr_USB_dummy+0x24>
 c105c30:	0c109064 	.word	0x0c109064

0c105c34 <show_sys_info>:
 c105c34:	e1a0c00d 	mov	ip, sp
 c105c38:	e92dd800 	push	{fp, ip, lr, pc}
 c105c3c:	e24cb004 	sub	fp, ip, #4
 c105c40:	e59f000c 	ldr	r0, [pc, #12]	; c105c54 <show_sys_info+0x20>
 c105c44:	eb0002be 	bl	c106744 <uart0_puts>
 c105c48:	e24bd00c 	sub	sp, fp, #12
 c105c4c:	e89d6800 	ldm	sp, {fp, sp, lr}
 c105c50:	e12fff1e 	bx	lr
 c105c54:	0c109090 	.word	0x0c109090

0c105c58 <sleep>:
 c105c58:	e1a0c00d 	mov	ip, sp
 c105c5c:	e92dd800 	push	{fp, ip, lr, pc}
 c105c60:	e24cb004 	sub	fp, ip, #4
 c105c64:	e59f3018 	ldr	r3, [pc, #24]	; c105c84 <sleep+0x2c>
 c105c68:	e59f2014 	ldr	r2, [pc, #20]	; c105c84 <sleep+0x2c>
 c105c6c:	e5922000 	ldr	r2, [r2]
 c105c70:	e3822004 	orr	r2, r2, #4
 c105c74:	e5832000 	str	r2, [r3]
 c105c78:	e24bd00c 	sub	sp, fp, #12
 c105c7c:	e89d6800 	ldm	sp, {fp, sp, lr}
 c105c80:	e12fff1e 	bx	lr
 c105c84:	01d80004 	.word	0x01d80004

0c105c88 <timers_init>:
 c105c88:	e1a0c00d 	mov	ip, sp
 c105c8c:	e92dd800 	push	{fp, ip, lr, pc}
 c105c90:	e24cb004 	sub	fp, ip, #4
 c105c94:	e59f30bc 	ldr	r3, [pc, #188]	; c105d58 <timers_init+0xd0>
 c105c98:	e3a02000 	mov	r2, #0
 c105c9c:	e5832000 	str	r2, [r3]
 c105ca0:	e59f30b4 	ldr	r3, [pc, #180]	; c105d5c <timers_init+0xd4>
 c105ca4:	e3a02000 	mov	r2, #0
 c105ca8:	e5832000 	str	r2, [r3]
 c105cac:	e59f30ac 	ldr	r3, [pc, #172]	; c105d60 <timers_init+0xd8>
 c105cb0:	e3a02000 	mov	r2, #0
 c105cb4:	e5832000 	str	r2, [r3]
 c105cb8:	e59f30a4 	ldr	r3, [pc, #164]	; c105d64 <timers_init+0xdc>
 c105cbc:	e3a02000 	mov	r2, #0
 c105cc0:	e5832000 	str	r2, [r3]
 c105cc4:	e59f309c 	ldr	r3, [pc, #156]	; c105d68 <timers_init+0xe0>
 c105cc8:	e3a02000 	mov	r2, #0
 c105ccc:	e5832000 	str	r2, [r3]
 c105cd0:	e59f3094 	ldr	r3, [pc, #148]	; c105d6c <timers_init+0xe4>
 c105cd4:	e3a02000 	mov	r2, #0
 c105cd8:	e5832000 	str	r2, [r3]
 c105cdc:	e59f308c 	ldr	r3, [pc, #140]	; c105d70 <timers_init+0xe8>
 c105ce0:	e3a02000 	mov	r2, #0
 c105ce4:	e5832000 	str	r2, [r3]
 c105ce8:	e59f3084 	ldr	r3, [pc, #132]	; c105d74 <timers_init+0xec>
 c105cec:	e3a02000 	mov	r2, #0
 c105cf0:	e5832000 	str	r2, [r3]
 c105cf4:	e59f307c 	ldr	r3, [pc, #124]	; c105d78 <timers_init+0xf0>
 c105cf8:	e3a02000 	mov	r2, #0
 c105cfc:	e5832000 	str	r2, [r3]
 c105d00:	e59f3074 	ldr	r3, [pc, #116]	; c105d7c <timers_init+0xf4>
 c105d04:	e3a02000 	mov	r2, #0
 c105d08:	e5832000 	str	r2, [r3]
 c105d0c:	e59f306c 	ldr	r3, [pc, #108]	; c105d80 <timers_init+0xf8>
 c105d10:	e3a02000 	mov	r2, #0
 c105d14:	e5832000 	str	r2, [r3]
 c105d18:	e59f3064 	ldr	r3, [pc, #100]	; c105d84 <timers_init+0xfc>
 c105d1c:	e3a02000 	mov	r2, #0
 c105d20:	e5832000 	str	r2, [r3]
 c105d24:	e59f305c 	ldr	r3, [pc, #92]	; c105d88 <timers_init+0x100>
 c105d28:	e3a02000 	mov	r2, #0
 c105d2c:	e5832000 	str	r2, [r3]
 c105d30:	e59f3054 	ldr	r3, [pc, #84]	; c105d8c <timers_init+0x104>
 c105d34:	e59f2054 	ldr	r2, [pc, #84]	; c105d90 <timers_init+0x108>
 c105d38:	e5832000 	str	r2, [r3]
 c105d3c:	e59f3048 	ldr	r3, [pc, #72]	; c105d8c <timers_init+0x104>
 c105d40:	e3a02000 	mov	r2, #0
 c105d44:	e5832000 	str	r2, [r3]
 c105d48:	eb000011 	bl	c105d94 <sw_delay_init>
 c105d4c:	e24bd00c 	sub	sp, fp, #12
 c105d50:	e89d6800 	ldm	sp, {fp, sp, lr}
 c105d54:	e12fff1e 	bx	lr
 c105d58:	01d50000 	.word	0x01d50000
 c105d5c:	01d50004 	.word	0x01d50004
 c105d60:	01d5000c 	.word	0x01d5000c
 c105d64:	01d50010 	.word	0x01d50010
 c105d68:	01d50018 	.word	0x01d50018
 c105d6c:	01d5001c 	.word	0x01d5001c
 c105d70:	01d50024 	.word	0x01d50024
 c105d74:	01d50028 	.word	0x01d50028
 c105d78:	01d50030 	.word	0x01d50030
 c105d7c:	01d50034 	.word	0x01d50034
 c105d80:	01d5003c 	.word	0x01d5003c
 c105d84:	01d50040 	.word	0x01d50040
 c105d88:	01d50048 	.word	0x01d50048
 c105d8c:	01d50008 	.word	0x01d50008
 c105d90:	02222202 	.word	0x02222202

0c105d94 <sw_delay_init>:
 c105d94:	e1a0c00d 	mov	ip, sp
 c105d98:	e92dd810 	push	{r4, fp, ip, lr, pc}
 c105d9c:	e24cb004 	sub	fp, ip, #4
 c105da0:	e24dd00c 	sub	sp, sp, #12
 c105da4:	eb0000c7 	bl	c1060c8 <timer3_start>
 c105da8:	e59f3088 	ldr	r3, [pc, #136]	; c105e38 <sw_delay_init+0xa4>
 c105dac:	e50b3018 	str	r3, [fp, #-24]	; 0xffffffe8
 c105db0:	ea000002 	b	c105dc0 <sw_delay_init+0x2c>
 c105db4:	e51b3018 	ldr	r3, [fp, #-24]	; 0xffffffe8
 c105db8:	e2433001 	sub	r3, r3, #1
 c105dbc:	e50b3018 	str	r3, [fp, #-24]	; 0xffffffe8
 c105dc0:	e51b3018 	ldr	r3, [fp, #-24]	; 0xffffffe8
 c105dc4:	e3530000 	cmp	r3, #0
 c105dc8:	1afffff9 	bne	c105db4 <sw_delay_init+0x20>
 c105dcc:	eb0000e9 	bl	c106178 <timer3_stop>
 c105dd0:	e1a03000 	mov	r3, r0
 c105dd4:	e1a02003 	mov	r2, r3
 c105dd8:	e1a03002 	mov	r3, r2
 c105ddc:	e3a04000 	mov	r4, #0
 c105de0:	e3a00315 	mov	r0, #1409286144	; 0x54000000
 c105de4:	e2800abe 	add	r0, r0, #778240	; 0xbe000
 c105de8:	e2800b01 	add	r0, r0, #1024	; 0x400
 c105dec:	e3a01002 	mov	r1, #2
 c105df0:	e1a02003 	mov	r2, r3
 c105df4:	e1a03004 	mov	r3, r4
 c105df8:	eb000775 	bl	c107bd4 <__aeabi_uldivmod>
 c105dfc:	e1a03000 	mov	r3, r0
 c105e00:	e1a04001 	mov	r4, r1
 c105e04:	e1a02003 	mov	r2, r3
 c105e08:	e59f302c 	ldr	r3, [pc, #44]	; c105e3c <sw_delay_init+0xa8>
 c105e0c:	e5832000 	str	r2, [r3]
 c105e10:	e59f3024 	ldr	r3, [pc, #36]	; c105e3c <sw_delay_init+0xa8>
 c105e14:	e5932000 	ldr	r2, [r3]
 c105e18:	e59f3020 	ldr	r3, [pc, #32]	; c105e40 <sw_delay_init+0xac>
 c105e1c:	e0831392 	umull	r1, r3, r2, r3
 c105e20:	e1a02323 	lsr	r2, r3, #6
 c105e24:	e59f3018 	ldr	r3, [pc, #24]	; c105e44 <sw_delay_init+0xb0>
 c105e28:	e5832000 	str	r2, [r3]
 c105e2c:	e24bd010 	sub	sp, fp, #16
 c105e30:	e89d6810 	ldm	sp, {r4, fp, sp, lr}
 c105e34:	e12fff1e 	bx	lr
 c105e38:	000f4240 	.word	0x000f4240
 c105e3c:	0c11d278 	.word	0x0c11d278
 c105e40:	10624dd3 	.word	0x10624dd3
 c105e44:	0c11d274 	.word	0x0c11d274

0c105e48 <timer3_delay_ms>:
 c105e48:	e1a0c00d 	mov	ip, sp
 c105e4c:	e92dd800 	push	{fp, ip, lr, pc}
 c105e50:	e24cb004 	sub	fp, ip, #4
 c105e54:	e24dd008 	sub	sp, sp, #8
 c105e58:	e1a03000 	mov	r3, r0
 c105e5c:	e14b30be 	strh	r3, [fp, #-14]
 c105e60:	ea000026 	b	c105f00 <timer3_delay_ms+0xb8>
 c105e64:	e59f30ac 	ldr	r3, [pc, #172]	; c105f18 <timer3_delay_ms+0xd0>
 c105e68:	e59f20a8 	ldr	r2, [pc, #168]	; c105f18 <timer3_delay_ms+0xd0>
 c105e6c:	e5922000 	ldr	r2, [r2]
 c105e70:	e3c22cff 	bic	r2, r2, #65280	; 0xff00
 c105e74:	e5832000 	str	r2, [r3]
 c105e78:	e59f309c 	ldr	r3, [pc, #156]	; c105f1c <timer3_delay_ms+0xd4>
 c105e7c:	e59f2098 	ldr	r2, [pc, #152]	; c105f1c <timer3_delay_ms+0xd4>
 c105e80:	e5922000 	ldr	r2, [r2]
 c105e84:	e3c22a0f 	bic	r2, r2, #61440	; 0xf000
 c105e88:	e3822a02 	orr	r2, r2, #8192	; 0x2000
 c105e8c:	e5832000 	str	r2, [r3]
 c105e90:	e59f3088 	ldr	r3, [pc, #136]	; c105f20 <timer3_delay_ms+0xd8>
 c105e94:	e3a02020 	mov	r2, #32
 c105e98:	e5832000 	str	r2, [r3]
 c105e9c:	e59f3080 	ldr	r3, [pc, #128]	; c105f24 <timer3_delay_ms+0xdc>
 c105ea0:	e59f207c 	ldr	r2, [pc, #124]	; c105f24 <timer3_delay_ms+0xdc>
 c105ea4:	e5922000 	ldr	r2, [r2]
 c105ea8:	e3c2280f 	bic	r2, r2, #983040	; 0xf0000
 c105eac:	e3822802 	orr	r2, r2, #131072	; 0x20000
 c105eb0:	e5832000 	str	r2, [r3]
 c105eb4:	e59f3068 	ldr	r3, [pc, #104]	; c105f24 <timer3_delay_ms+0xdc>
 c105eb8:	e59f2064 	ldr	r2, [pc, #100]	; c105f24 <timer3_delay_ms+0xdc>
 c105ebc:	e5922000 	ldr	r2, [r2]
 c105ec0:	e3c2280f 	bic	r2, r2, #983040	; 0xf0000
 c105ec4:	e3822801 	orr	r2, r2, #65536	; 0x10000
 c105ec8:	e5832000 	str	r2, [r3]
 c105ecc:	e1a00000 	nop			; (mov r0, r0)
 c105ed0:	e59f3050 	ldr	r3, [pc, #80]	; c105f28 <timer3_delay_ms+0xe0>
 c105ed4:	e5933000 	ldr	r3, [r3]
 c105ed8:	e3530000 	cmp	r3, #0
 c105edc:	0afffffb 	beq	c105ed0 <timer3_delay_ms+0x88>
 c105ee0:	e1a00000 	nop			; (mov r0, r0)
 c105ee4:	e59f303c 	ldr	r3, [pc, #60]	; c105f28 <timer3_delay_ms+0xe0>
 c105ee8:	e5933000 	ldr	r3, [r3]
 c105eec:	e3530000 	cmp	r3, #0
 c105ef0:	1afffffb 	bne	c105ee4 <timer3_delay_ms+0x9c>
 c105ef4:	e15b30be 	ldrh	r3, [fp, #-14]
 c105ef8:	e2433001 	sub	r3, r3, #1
 c105efc:	e14b30be 	strh	r3, [fp, #-14]
 c105f00:	e15b30be 	ldrh	r3, [fp, #-14]
 c105f04:	e3530000 	cmp	r3, #0
 c105f08:	1affffd5 	bne	c105e64 <timer3_delay_ms+0x1c>
 c105f0c:	e24bd00c 	sub	sp, fp, #12
 c105f10:	e89d6800 	ldm	sp, {fp, sp, lr}
 c105f14:	e12fff1e 	bx	lr
 c105f18:	01d50000 	.word	0x01d50000
 c105f1c:	01d50004 	.word	0x01d50004
 c105f20:	01d50030 	.word	0x01d50030
 c105f24:	01d50008 	.word	0x01d50008
 c105f28:	01d50038 	.word	0x01d50038

0c105f2c <sw_delay_ms>:
 c105f2c:	e1a0c00d 	mov	ip, sp
 c105f30:	e92dd800 	push	{fp, ip, lr, pc}
 c105f34:	e24cb004 	sub	fp, ip, #4
 c105f38:	e24dd010 	sub	sp, sp, #16
 c105f3c:	e1a03000 	mov	r3, r0
 c105f40:	e14b31b6 	strh	r3, [fp, #-22]	; 0xffffffea
 c105f44:	e15b31b6 	ldrh	r3, [fp, #-22]	; 0xffffffea
 c105f48:	e59f2030 	ldr	r2, [pc, #48]	; c105f80 <sw_delay_ms+0x54>
 c105f4c:	e5922000 	ldr	r2, [r2]
 c105f50:	e0030392 	mul	r3, r2, r3
 c105f54:	e50b3010 	str	r3, [fp, #-16]
 c105f58:	ea000002 	b	c105f68 <sw_delay_ms+0x3c>
 c105f5c:	e51b3010 	ldr	r3, [fp, #-16]
 c105f60:	e2433001 	sub	r3, r3, #1
 c105f64:	e50b3010 	str	r3, [fp, #-16]
 c105f68:	e51b3010 	ldr	r3, [fp, #-16]
 c105f6c:	e3530000 	cmp	r3, #0
 c105f70:	1afffff9 	bne	c105f5c <sw_delay_ms+0x30>
 c105f74:	e24bd00c 	sub	sp, fp, #12
 c105f78:	e89d6800 	ldm	sp, {fp, sp, lr}
 c105f7c:	e12fff1e 	bx	lr
 c105f80:	0c11d274 	.word	0x0c11d274

0c105f84 <timer3_delay_s>:
 c105f84:	e1a0c00d 	mov	ip, sp
 c105f88:	e92dd800 	push	{fp, ip, lr, pc}
 c105f8c:	e24cb004 	sub	fp, ip, #4
 c105f90:	e24dd008 	sub	sp, sp, #8
 c105f94:	e1a03000 	mov	r3, r0
 c105f98:	e14b30be 	strh	r3, [fp, #-14]
 c105f9c:	ea000027 	b	c106040 <timer3_delay_s+0xbc>
 c105fa0:	e59f30b0 	ldr	r3, [pc, #176]	; c106058 <timer3_delay_s+0xd4>
 c105fa4:	e59f20ac 	ldr	r2, [pc, #172]	; c106058 <timer3_delay_s+0xd4>
 c105fa8:	e5922000 	ldr	r2, [r2]
 c105fac:	e3c22cff 	bic	r2, r2, #65280	; 0xff00
 c105fb0:	e3822c3f 	orr	r2, r2, #16128	; 0x3f00
 c105fb4:	e5832000 	str	r2, [r3]
 c105fb8:	e59f309c 	ldr	r3, [pc, #156]	; c10605c <timer3_delay_s+0xd8>
 c105fbc:	e59f2098 	ldr	r2, [pc, #152]	; c10605c <timer3_delay_s+0xd8>
 c105fc0:	e5922000 	ldr	r2, [r2]
 c105fc4:	e3c22a0f 	bic	r2, r2, #61440	; 0xf000
 c105fc8:	e3822901 	orr	r2, r2, #16384	; 0x4000
 c105fcc:	e5832000 	str	r2, [r3]
 c105fd0:	e59f3088 	ldr	r3, [pc, #136]	; c106060 <timer3_delay_s+0xdc>
 c105fd4:	e59f2088 	ldr	r2, [pc, #136]	; c106064 <timer3_delay_s+0xe0>
 c105fd8:	e5832000 	str	r2, [r3]
 c105fdc:	e59f3084 	ldr	r3, [pc, #132]	; c106068 <timer3_delay_s+0xe4>
 c105fe0:	e59f2080 	ldr	r2, [pc, #128]	; c106068 <timer3_delay_s+0xe4>
 c105fe4:	e5922000 	ldr	r2, [r2]
 c105fe8:	e3c2280f 	bic	r2, r2, #983040	; 0xf0000
 c105fec:	e3822802 	orr	r2, r2, #131072	; 0x20000
 c105ff0:	e5832000 	str	r2, [r3]
 c105ff4:	e59f306c 	ldr	r3, [pc, #108]	; c106068 <timer3_delay_s+0xe4>
 c105ff8:	e59f2068 	ldr	r2, [pc, #104]	; c106068 <timer3_delay_s+0xe4>
 c105ffc:	e5922000 	ldr	r2, [r2]
 c106000:	e3c2280f 	bic	r2, r2, #983040	; 0xf0000
 c106004:	e3822801 	orr	r2, r2, #65536	; 0x10000
 c106008:	e5832000 	str	r2, [r3]
 c10600c:	e1a00000 	nop			; (mov r0, r0)
 c106010:	e59f3054 	ldr	r3, [pc, #84]	; c10606c <timer3_delay_s+0xe8>
 c106014:	e5933000 	ldr	r3, [r3]
 c106018:	e3530000 	cmp	r3, #0
 c10601c:	0afffffb 	beq	c106010 <timer3_delay_s+0x8c>
 c106020:	e1a00000 	nop			; (mov r0, r0)
 c106024:	e59f3040 	ldr	r3, [pc, #64]	; c10606c <timer3_delay_s+0xe8>
 c106028:	e5933000 	ldr	r3, [r3]
 c10602c:	e3530000 	cmp	r3, #0
 c106030:	1afffffb 	bne	c106024 <timer3_delay_s+0xa0>
 c106034:	e15b30be 	ldrh	r3, [fp, #-14]
 c106038:	e2433001 	sub	r3, r3, #1
 c10603c:	e14b30be 	strh	r3, [fp, #-14]
 c106040:	e15b30be 	ldrh	r3, [fp, #-14]
 c106044:	e3530000 	cmp	r3, #0
 c106048:	1affffd4 	bne	c105fa0 <timer3_delay_s+0x1c>
 c10604c:	e24bd00c 	sub	sp, fp, #12
 c106050:	e89d6800 	ldm	sp, {fp, sp, lr}
 c106054:	e12fff1e 	bx	lr
 c106058:	01d50000 	.word	0x01d50000
 c10605c:	01d50004 	.word	0x01d50004
 c106060:	01d50030 	.word	0x01d50030
 c106064:	00007a12 	.word	0x00007a12
 c106068:	01d50008 	.word	0x01d50008
 c10606c:	01d50038 	.word	0x01d50038

0c106070 <sw_delay_s>:
 c106070:	e1a0c00d 	mov	ip, sp
 c106074:	e92dd800 	push	{fp, ip, lr, pc}
 c106078:	e24cb004 	sub	fp, ip, #4
 c10607c:	e24dd010 	sub	sp, sp, #16
 c106080:	e1a03000 	mov	r3, r0
 c106084:	e14b31b6 	strh	r3, [fp, #-22]	; 0xffffffea
 c106088:	e15b31b6 	ldrh	r3, [fp, #-22]	; 0xffffffea
 c10608c:	e59f2030 	ldr	r2, [pc, #48]	; c1060c4 <sw_delay_s+0x54>
 c106090:	e5922000 	ldr	r2, [r2]
 c106094:	e0030392 	mul	r3, r2, r3
 c106098:	e50b3010 	str	r3, [fp, #-16]
 c10609c:	ea000002 	b	c1060ac <sw_delay_s+0x3c>
 c1060a0:	e51b3010 	ldr	r3, [fp, #-16]
 c1060a4:	e2433001 	sub	r3, r3, #1
 c1060a8:	e50b3010 	str	r3, [fp, #-16]
 c1060ac:	e51b3010 	ldr	r3, [fp, #-16]
 c1060b0:	e3530000 	cmp	r3, #0
 c1060b4:	1afffff9 	bne	c1060a0 <sw_delay_s+0x30>
 c1060b8:	e24bd00c 	sub	sp, fp, #12
 c1060bc:	e89d6800 	ldm	sp, {fp, sp, lr}
 c1060c0:	e12fff1e 	bx	lr
 c1060c4:	0c11d278 	.word	0x0c11d278

0c1060c8 <timer3_start>:
 c1060c8:	e1a0c00d 	mov	ip, sp
 c1060cc:	e92dd800 	push	{fp, ip, lr, pc}
 c1060d0:	e24cb004 	sub	fp, ip, #4
 c1060d4:	e59f3084 	ldr	r3, [pc, #132]	; c106160 <timer3_start+0x98>
 c1060d8:	e59f2080 	ldr	r2, [pc, #128]	; c106160 <timer3_start+0x98>
 c1060dc:	e5922000 	ldr	r2, [r2]
 c1060e0:	e3c22cff 	bic	r2, r2, #65280	; 0xff00
 c1060e4:	e3822cc7 	orr	r2, r2, #50944	; 0xc700
 c1060e8:	e5832000 	str	r2, [r3]
 c1060ec:	e59f3070 	ldr	r3, [pc, #112]	; c106164 <timer3_start+0x9c>
 c1060f0:	e59f206c 	ldr	r2, [pc, #108]	; c106164 <timer3_start+0x9c>
 c1060f4:	e5922000 	ldr	r2, [r2]
 c1060f8:	e3c22a0f 	bic	r2, r2, #61440	; 0xf000
 c1060fc:	e3822901 	orr	r2, r2, #16384	; 0x4000
 c106100:	e5832000 	str	r2, [r3]
 c106104:	e59f305c 	ldr	r3, [pc, #92]	; c106168 <timer3_start+0xa0>
 c106108:	e59f205c 	ldr	r2, [pc, #92]	; c10616c <timer3_start+0xa4>
 c10610c:	e5832000 	str	r2, [r3]
 c106110:	e59f3058 	ldr	r3, [pc, #88]	; c106170 <timer3_start+0xa8>
 c106114:	e59f2054 	ldr	r2, [pc, #84]	; c106170 <timer3_start+0xa8>
 c106118:	e5922000 	ldr	r2, [r2]
 c10611c:	e3c2280f 	bic	r2, r2, #983040	; 0xf0000
 c106120:	e3822802 	orr	r2, r2, #131072	; 0x20000
 c106124:	e5832000 	str	r2, [r3]
 c106128:	e59f3040 	ldr	r3, [pc, #64]	; c106170 <timer3_start+0xa8>
 c10612c:	e59f203c 	ldr	r2, [pc, #60]	; c106170 <timer3_start+0xa8>
 c106130:	e5922000 	ldr	r2, [r2]
 c106134:	e3c2280f 	bic	r2, r2, #983040	; 0xf0000
 c106138:	e3822801 	orr	r2, r2, #65536	; 0x10000
 c10613c:	e5832000 	str	r2, [r3]
 c106140:	e1a00000 	nop			; (mov r0, r0)
 c106144:	e59f3028 	ldr	r3, [pc, #40]	; c106174 <timer3_start+0xac>
 c106148:	e5933000 	ldr	r3, [r3]
 c10614c:	e3530000 	cmp	r3, #0
 c106150:	0afffffb 	beq	c106144 <timer3_start+0x7c>
 c106154:	e24bd00c 	sub	sp, fp, #12
 c106158:	e89d6800 	ldm	sp, {fp, sp, lr}
 c10615c:	e12fff1e 	bx	lr
 c106160:	01d50000 	.word	0x01d50000
 c106164:	01d50004 	.word	0x01d50004
 c106168:	01d50030 	.word	0x01d50030
 c10616c:	0000ffff 	.word	0x0000ffff
 c106170:	01d50008 	.word	0x01d50008
 c106174:	01d50038 	.word	0x01d50038

0c106178 <timer3_stop>:
 c106178:	e1a0c00d 	mov	ip, sp
 c10617c:	e92dd800 	push	{fp, ip, lr, pc}
 c106180:	e24cb004 	sub	fp, ip, #4
 c106184:	e59f3038 	ldr	r3, [pc, #56]	; c1061c4 <timer3_stop+0x4c>
 c106188:	e59f2034 	ldr	r2, [pc, #52]	; c1061c4 <timer3_stop+0x4c>
 c10618c:	e5922000 	ldr	r2, [r2]
 c106190:	e3c22801 	bic	r2, r2, #65536	; 0x10000
 c106194:	e5832000 	str	r2, [r3]
 c106198:	e59f3028 	ldr	r3, [pc, #40]	; c1061c8 <timer3_stop+0x50>
 c10619c:	e5933000 	ldr	r3, [r3]
 c1061a0:	e1a03803 	lsl	r3, r3, #16
 c1061a4:	e1a03823 	lsr	r3, r3, #16
 c1061a8:	e1e03003 	mvn	r3, r3
 c1061ac:	e1a03803 	lsl	r3, r3, #16
 c1061b0:	e1a03823 	lsr	r3, r3, #16
 c1061b4:	e1a00003 	mov	r0, r3
 c1061b8:	e24bd00c 	sub	sp, fp, #12
 c1061bc:	e89d6800 	ldm	sp, {fp, sp, lr}
 c1061c0:	e12fff1e 	bx	lr
 c1061c4:	01d50008 	.word	0x01d50008
 c1061c8:	01d50038 	.word	0x01d50038

0c1061cc <timer3_start_timeout>:
 c1061cc:	e1a0c00d 	mov	ip, sp
 c1061d0:	e92dd800 	push	{fp, ip, lr, pc}
 c1061d4:	e24cb004 	sub	fp, ip, #4
 c1061d8:	e24dd008 	sub	sp, sp, #8
 c1061dc:	e1a03000 	mov	r3, r0
 c1061e0:	e14b30be 	strh	r3, [fp, #-14]
 c1061e4:	e59f3084 	ldr	r3, [pc, #132]	; c106270 <timer3_start_timeout+0xa4>
 c1061e8:	e59f2080 	ldr	r2, [pc, #128]	; c106270 <timer3_start_timeout+0xa4>
 c1061ec:	e5922000 	ldr	r2, [r2]
 c1061f0:	e3c22cff 	bic	r2, r2, #65280	; 0xff00
 c1061f4:	e3822cc7 	orr	r2, r2, #50944	; 0xc700
 c1061f8:	e5832000 	str	r2, [r3]
 c1061fc:	e59f3070 	ldr	r3, [pc, #112]	; c106274 <timer3_start_timeout+0xa8>
 c106200:	e59f206c 	ldr	r2, [pc, #108]	; c106274 <timer3_start_timeout+0xa8>
 c106204:	e5922000 	ldr	r2, [r2]
 c106208:	e3c22a0f 	bic	r2, r2, #61440	; 0xf000
 c10620c:	e3822901 	orr	r2, r2, #16384	; 0x4000
 c106210:	e5832000 	str	r2, [r3]
 c106214:	e59f305c 	ldr	r3, [pc, #92]	; c106278 <timer3_start_timeout+0xac>
 c106218:	e15b20be 	ldrh	r2, [fp, #-14]
 c10621c:	e5832000 	str	r2, [r3]
 c106220:	e59f3054 	ldr	r3, [pc, #84]	; c10627c <timer3_start_timeout+0xb0>
 c106224:	e59f2050 	ldr	r2, [pc, #80]	; c10627c <timer3_start_timeout+0xb0>
 c106228:	e5922000 	ldr	r2, [r2]
 c10622c:	e3c2280f 	bic	r2, r2, #983040	; 0xf0000
 c106230:	e3822802 	orr	r2, r2, #131072	; 0x20000
 c106234:	e5832000 	str	r2, [r3]
 c106238:	e59f303c 	ldr	r3, [pc, #60]	; c10627c <timer3_start_timeout+0xb0>
 c10623c:	e59f2038 	ldr	r2, [pc, #56]	; c10627c <timer3_start_timeout+0xb0>
 c106240:	e5922000 	ldr	r2, [r2]
 c106244:	e3c2280f 	bic	r2, r2, #983040	; 0xf0000
 c106248:	e3822801 	orr	r2, r2, #65536	; 0x10000
 c10624c:	e5832000 	str	r2, [r3]
 c106250:	e1a00000 	nop			; (mov r0, r0)
 c106254:	e59f3024 	ldr	r3, [pc, #36]	; c106280 <timer3_start_timeout+0xb4>
 c106258:	e5933000 	ldr	r3, [r3]
 c10625c:	e3530000 	cmp	r3, #0
 c106260:	0afffffb 	beq	c106254 <timer3_start_timeout+0x88>
 c106264:	e24bd00c 	sub	sp, fp, #12
 c106268:	e89d6800 	ldm	sp, {fp, sp, lr}
 c10626c:	e12fff1e 	bx	lr
 c106270:	01d50000 	.word	0x01d50000
 c106274:	01d50004 	.word	0x01d50004
 c106278:	01d50030 	.word	0x01d50030
 c10627c:	01d50008 	.word	0x01d50008
 c106280:	01d50038 	.word	0x01d50038

0c106284 <timer3_timeout>:
 c106284:	e1a0c00d 	mov	ip, sp
 c106288:	e92dd800 	push	{fp, ip, lr, pc}
 c10628c:	e24cb004 	sub	fp, ip, #4
 c106290:	e59f3024 	ldr	r3, [pc, #36]	; c1062bc <timer3_timeout+0x38>
 c106294:	e5933000 	ldr	r3, [r3]
 c106298:	e3530000 	cmp	r3, #0
 c10629c:	13a03000 	movne	r3, #0
 c1062a0:	03a03001 	moveq	r3, #1
 c1062a4:	e1a03803 	lsl	r3, r3, #16
 c1062a8:	e1a03823 	lsr	r3, r3, #16
 c1062ac:	e1a00003 	mov	r0, r3
 c1062b0:	e24bd00c 	sub	sp, fp, #12
 c1062b4:	e89d6800 	ldm	sp, {fp, sp, lr}
 c1062b8:	e12fff1e 	bx	lr
 c1062bc:	01d50038 	.word	0x01d50038

0c1062c0 <timer0_open_tick>:
 c1062c0:	e1a0c00d 	mov	ip, sp
 c1062c4:	e92dd810 	push	{r4, fp, ip, lr, pc}
 c1062c8:	e24cb004 	sub	fp, ip, #4
 c1062cc:	e24dd00c 	sub	sp, sp, #12
 c1062d0:	e50b0018 	str	r0, [fp, #-24]	; 0xffffffe8
 c1062d4:	e1a03001 	mov	r3, r1
 c1062d8:	e14b31ba 	strh	r3, [fp, #-26]	; 0xffffffe6
 c1062dc:	e59f31dc 	ldr	r3, [pc, #476]	; c1064c0 <timer0_open_tick+0x200>
 c1062e0:	e51b2018 	ldr	r2, [fp, #-24]	; 0xffffffe8
 c1062e4:	e5832000 	str	r2, [r3]
 c1062e8:	e59f31d4 	ldr	r3, [pc, #468]	; c1064c4 <timer0_open_tick+0x204>
 c1062ec:	e3a02a02 	mov	r2, #8192	; 0x2000
 c1062f0:	e5832000 	str	r2, [r3]
 c1062f4:	e59f21cc 	ldr	r2, [pc, #460]	; c1064c8 <timer0_open_tick+0x208>
 c1062f8:	e59f31c8 	ldr	r3, [pc, #456]	; c1064c8 <timer0_open_tick+0x208>
 c1062fc:	e5933000 	ldr	r3, [r3]
 c106300:	e3c33301 	bic	r3, r3, #67108864	; 0x4000000
 c106304:	e3c33a02 	bic	r3, r3, #8192	; 0x2000
 c106308:	e5823000 	str	r3, [r2]
 c10630c:	e15b31ba 	ldrh	r3, [fp, #-26]	; 0xffffffe6
 c106310:	e3530000 	cmp	r3, #0
 c106314:	0a000018 	beq	c10637c <timer0_open_tick+0xbc>
 c106318:	e15b31ba 	ldrh	r3, [fp, #-26]	; 0xffffffe6
 c10631c:	e353000a 	cmp	r3, #10
 c106320:	8a000015 	bhi	c10637c <timer0_open_tick+0xbc>
 c106324:	e59f31a0 	ldr	r3, [pc, #416]	; c1064cc <timer0_open_tick+0x20c>
 c106328:	e59f219c 	ldr	r2, [pc, #412]	; c1064cc <timer0_open_tick+0x20c>
 c10632c:	e5922000 	ldr	r2, [r2]
 c106330:	e3c220ff 	bic	r2, r2, #255	; 0xff
 c106334:	e3822031 	orr	r2, r2, #49	; 0x31
 c106338:	e5832000 	str	r2, [r3]
 c10633c:	e59f318c 	ldr	r3, [pc, #396]	; c1064d0 <timer0_open_tick+0x210>
 c106340:	e59f2188 	ldr	r2, [pc, #392]	; c1064d0 <timer0_open_tick+0x210>
 c106344:	e5922000 	ldr	r2, [r2]
 c106348:	e3c2200f 	bic	r2, r2, #15
 c10634c:	e3822004 	orr	r2, r2, #4
 c106350:	e5832000 	str	r2, [r3]
 c106354:	e59f4178 	ldr	r4, [pc, #376]	; c1064d4 <timer0_open_tick+0x214>
 c106358:	e15b31ba 	ldrh	r3, [fp, #-26]	; 0xffffffe6
 c10635c:	e59f0174 	ldr	r0, [pc, #372]	; c1064d8 <timer0_open_tick+0x218>
 c106360:	e1a01003 	mov	r1, r3
 c106364:	eb000226 	bl	c106c04 <__aeabi_uidiv>
 c106368:	e1a03000 	mov	r3, r0
 c10636c:	e1a03803 	lsl	r3, r3, #16
 c106370:	e1a03823 	lsr	r3, r3, #16
 c106374:	e5843000 	str	r3, [r4]
 c106378:	ea000047 	b	c10649c <timer0_open_tick+0x1dc>
 c10637c:	e15b31ba 	ldrh	r3, [fp, #-26]	; 0xffffffe6
 c106380:	e353000a 	cmp	r3, #10
 c106384:	9a000016 	bls	c1063e4 <timer0_open_tick+0x124>
 c106388:	e15b31ba 	ldrh	r3, [fp, #-26]	; 0xffffffe6
 c10638c:	e3530064 	cmp	r3, #100	; 0x64
 c106390:	8a000013 	bhi	c1063e4 <timer0_open_tick+0x124>
 c106394:	e59f3130 	ldr	r3, [pc, #304]	; c1064cc <timer0_open_tick+0x20c>
 c106398:	e59f212c 	ldr	r2, [pc, #300]	; c1064cc <timer0_open_tick+0x20c>
 c10639c:	e5922000 	ldr	r2, [r2]
 c1063a0:	e3c220ff 	bic	r2, r2, #255	; 0xff
 c1063a4:	e3822009 	orr	r2, r2, #9
 c1063a8:	e5832000 	str	r2, [r3]
 c1063ac:	e59f311c 	ldr	r3, [pc, #284]	; c1064d0 <timer0_open_tick+0x210>
 c1063b0:	e59f2118 	ldr	r2, [pc, #280]	; c1064d0 <timer0_open_tick+0x210>
 c1063b4:	e5922000 	ldr	r2, [r2]
 c1063b8:	e3c2200f 	bic	r2, r2, #15
 c1063bc:	e3822003 	orr	r2, r2, #3
 c1063c0:	e5832000 	str	r2, [r3]
 c1063c4:	e59f4108 	ldr	r4, [pc, #264]	; c1064d4 <timer0_open_tick+0x214>
 c1063c8:	e15b31ba 	ldrh	r3, [fp, #-26]	; 0xffffffe6
 c1063cc:	e59f0108 	ldr	r0, [pc, #264]	; c1064dc <timer0_open_tick+0x21c>
 c1063d0:	e1a01003 	mov	r1, r3
 c1063d4:	eb00020a 	bl	c106c04 <__aeabi_uidiv>
 c1063d8:	e1a03000 	mov	r3, r0
 c1063dc:	e5843000 	str	r3, [r4]
 c1063e0:	ea00002d 	b	c10649c <timer0_open_tick+0x1dc>
 c1063e4:	e15b31ba 	ldrh	r3, [fp, #-26]	; 0xffffffe6
 c1063e8:	e3530064 	cmp	r3, #100	; 0x64
 c1063ec:	9a000015 	bls	c106448 <timer0_open_tick+0x188>
 c1063f0:	e15b31ba 	ldrh	r3, [fp, #-26]	; 0xffffffe6
 c1063f4:	e3530ffa 	cmp	r3, #1000	; 0x3e8
 c1063f8:	8a000012 	bhi	c106448 <timer0_open_tick+0x188>
 c1063fc:	e59f30c8 	ldr	r3, [pc, #200]	; c1064cc <timer0_open_tick+0x20c>
 c106400:	e59f20c4 	ldr	r2, [pc, #196]	; c1064cc <timer0_open_tick+0x20c>
 c106404:	e5922000 	ldr	r2, [r2]
 c106408:	e3c220ff 	bic	r2, r2, #255	; 0xff
 c10640c:	e5832000 	str	r2, [r3]
 c106410:	e59f30b8 	ldr	r3, [pc, #184]	; c1064d0 <timer0_open_tick+0x210>
 c106414:	e59f20b4 	ldr	r2, [pc, #180]	; c1064d0 <timer0_open_tick+0x210>
 c106418:	e5922000 	ldr	r2, [r2]
 c10641c:	e3c2200f 	bic	r2, r2, #15
 c106420:	e3822003 	orr	r2, r2, #3
 c106424:	e5832000 	str	r2, [r3]
 c106428:	e59f40a4 	ldr	r4, [pc, #164]	; c1064d4 <timer0_open_tick+0x214>
 c10642c:	e15b31ba 	ldrh	r3, [fp, #-26]	; 0xffffffe6
 c106430:	e59f00a8 	ldr	r0, [pc, #168]	; c1064e0 <timer0_open_tick+0x220>
 c106434:	e1a01003 	mov	r1, r3
 c106438:	eb0001f1 	bl	c106c04 <__aeabi_uidiv>
 c10643c:	e1a03000 	mov	r3, r0
 c106440:	e5843000 	str	r3, [r4]
 c106444:	ea000014 	b	c10649c <timer0_open_tick+0x1dc>
 c106448:	e15b31ba 	ldrh	r3, [fp, #-26]	; 0xffffffe6
 c10644c:	e3530ffa 	cmp	r3, #1000	; 0x3e8
 c106450:	9a000011 	bls	c10649c <timer0_open_tick+0x1dc>
 c106454:	e59f3070 	ldr	r3, [pc, #112]	; c1064cc <timer0_open_tick+0x20c>
 c106458:	e59f206c 	ldr	r2, [pc, #108]	; c1064cc <timer0_open_tick+0x20c>
 c10645c:	e5922000 	ldr	r2, [r2]
 c106460:	e3c220ff 	bic	r2, r2, #255	; 0xff
 c106464:	e5832000 	str	r2, [r3]
 c106468:	e59f3060 	ldr	r3, [pc, #96]	; c1064d0 <timer0_open_tick+0x210>
 c10646c:	e59f205c 	ldr	r2, [pc, #92]	; c1064d0 <timer0_open_tick+0x210>
 c106470:	e5922000 	ldr	r2, [r2]
 c106474:	e3c2200f 	bic	r2, r2, #15
 c106478:	e3822002 	orr	r2, r2, #2
 c10647c:	e5832000 	str	r2, [r3]
 c106480:	e59f404c 	ldr	r4, [pc, #76]	; c1064d4 <timer0_open_tick+0x214>
 c106484:	e15b31ba 	ldrh	r3, [fp, #-26]	; 0xffffffe6
 c106488:	e59f0054 	ldr	r0, [pc, #84]	; c1064e4 <timer0_open_tick+0x224>
 c10648c:	e1a01003 	mov	r1, r3
 c106490:	eb0001db 	bl	c106c04 <__aeabi_uidiv>
 c106494:	e1a03000 	mov	r3, r0
 c106498:	e5843000 	str	r3, [r4]
 c10649c:	e59f3044 	ldr	r3, [pc, #68]	; c1064e8 <timer0_open_tick+0x228>
 c1064a0:	e3a02006 	mov	r2, #6
 c1064a4:	e5832000 	str	r2, [r3]
 c1064a8:	e59f3038 	ldr	r3, [pc, #56]	; c1064e8 <timer0_open_tick+0x228>
 c1064ac:	e3a02005 	mov	r2, #5
 c1064b0:	e5832000 	str	r2, [r3]
 c1064b4:	e24bd010 	sub	sp, fp, #16
 c1064b8:	e89d6810 	ldm	sp, {r4, fp, sp, lr}
 c1064bc:	e12fff1e 	bx	lr
 c1064c0:	0c7fff54 	.word	0x0c7fff54
 c1064c4:	01e00024 	.word	0x01e00024
 c1064c8:	01e0000c 	.word	0x01e0000c
 c1064cc:	01d50000 	.word	0x01d50000
 c1064d0:	01d50004 	.word	0x01d50004
 c1064d4:	01d5000c 	.word	0x01d5000c
 c1064d8:	00009c40 	.word	0x00009c40
 c1064dc:	00061a80 	.word	0x00061a80
 c1064e0:	003d0900 	.word	0x003d0900
 c1064e4:	01e84800 	.word	0x01e84800
 c1064e8:	01d50008 	.word	0x01d50008

0c1064ec <timer0_open_ms>:
 c1064ec:	e1a0c00d 	mov	ip, sp
 c1064f0:	e92dd800 	push	{fp, ip, lr, pc}
 c1064f4:	e24cb004 	sub	fp, ip, #4
 c1064f8:	e24dd008 	sub	sp, sp, #8
 c1064fc:	e50b0010 	str	r0, [fp, #-16]
 c106500:	e1a03002 	mov	r3, r2
 c106504:	e14b11b2 	strh	r1, [fp, #-18]	; 0xffffffee
 c106508:	e54b3013 	strb	r3, [fp, #-19]	; 0xffffffed
 c10650c:	e59f3098 	ldr	r3, [pc, #152]	; c1065ac <timer0_open_ms+0xc0>
 c106510:	e51b2010 	ldr	r2, [fp, #-16]
 c106514:	e5832000 	str	r2, [r3]
 c106518:	e59f3090 	ldr	r3, [pc, #144]	; c1065b0 <timer0_open_ms+0xc4>
 c10651c:	e3a02a02 	mov	r2, #8192	; 0x2000
 c106520:	e5832000 	str	r2, [r3]
 c106524:	e59f2088 	ldr	r2, [pc, #136]	; c1065b4 <timer0_open_ms+0xc8>
 c106528:	e59f3084 	ldr	r3, [pc, #132]	; c1065b4 <timer0_open_ms+0xc8>
 c10652c:	e5933000 	ldr	r3, [r3]
 c106530:	e3c33301 	bic	r3, r3, #67108864	; 0x4000000
 c106534:	e3c33a02 	bic	r3, r3, #8192	; 0x2000
 c106538:	e5823000 	str	r3, [r2]
 c10653c:	e59f3074 	ldr	r3, [pc, #116]	; c1065b8 <timer0_open_ms+0xcc>
 c106540:	e59f2070 	ldr	r2, [pc, #112]	; c1065b8 <timer0_open_ms+0xcc>
 c106544:	e5922000 	ldr	r2, [r2]
 c106548:	e3c220ff 	bic	r2, r2, #255	; 0xff
 c10654c:	e38220c7 	orr	r2, r2, #199	; 0xc7
 c106550:	e5832000 	str	r2, [r3]
 c106554:	e59f3060 	ldr	r3, [pc, #96]	; c1065bc <timer0_open_ms+0xd0>
 c106558:	e59f205c 	ldr	r2, [pc, #92]	; c1065bc <timer0_open_ms+0xd0>
 c10655c:	e5922000 	ldr	r2, [r2]
 c106560:	e3c2200f 	bic	r2, r2, #15
 c106564:	e3822004 	orr	r2, r2, #4
 c106568:	e5832000 	str	r2, [r3]
 c10656c:	e59f104c 	ldr	r1, [pc, #76]	; c1065c0 <timer0_open_ms+0xd4>
 c106570:	e15b21b2 	ldrh	r2, [fp, #-18]	; 0xffffffee
 c106574:	e1a03002 	mov	r3, r2
 c106578:	e1a03103 	lsl	r3, r3, #2
 c10657c:	e0833002 	add	r3, r3, r2
 c106580:	e1a03083 	lsl	r3, r3, #1
 c106584:	e5813000 	str	r3, [r1]
 c106588:	e59f3034 	ldr	r3, [pc, #52]	; c1065c4 <timer0_open_ms+0xd8>
 c10658c:	e3a02002 	mov	r2, #2
 c106590:	e5832000 	str	r2, [r3]
 c106594:	e59f3028 	ldr	r3, [pc, #40]	; c1065c4 <timer0_open_ms+0xd8>
 c106598:	e3a02001 	mov	r2, #1
 c10659c:	e5832000 	str	r2, [r3]
 c1065a0:	e24bd00c 	sub	sp, fp, #12
 c1065a4:	e89d6800 	ldm	sp, {fp, sp, lr}
 c1065a8:	e12fff1e 	bx	lr
 c1065ac:	0c7fff54 	.word	0x0c7fff54
 c1065b0:	01e00024 	.word	0x01e00024
 c1065b4:	01e0000c 	.word	0x01e0000c
 c1065b8:	01d50000 	.word	0x01d50000
 c1065bc:	01d50004 	.word	0x01d50004
 c1065c0:	01d5000c 	.word	0x01d5000c
 c1065c4:	01d50008 	.word	0x01d50008

0c1065c8 <timer0_close>:
 c1065c8:	e1a0c00d 	mov	ip, sp
 c1065cc:	e92dd800 	push	{fp, ip, lr, pc}
 c1065d0:	e24cb004 	sub	fp, ip, #4
 c1065d4:	e59f3054 	ldr	r3, [pc, #84]	; c106630 <timer0_close+0x68>
 c1065d8:	e3a02000 	mov	r2, #0
 c1065dc:	e5832000 	str	r2, [r3]
 c1065e0:	e59f304c 	ldr	r3, [pc, #76]	; c106634 <timer0_close+0x6c>
 c1065e4:	e3a02000 	mov	r2, #0
 c1065e8:	e5832000 	str	r2, [r3]
 c1065ec:	e59f3044 	ldr	r3, [pc, #68]	; c106638 <timer0_close+0x70>
 c1065f0:	e3a02002 	mov	r2, #2
 c1065f4:	e5832000 	str	r2, [r3]
 c1065f8:	e59f3038 	ldr	r3, [pc, #56]	; c106638 <timer0_close+0x70>
 c1065fc:	e3a02000 	mov	r2, #0
 c106600:	e5832000 	str	r2, [r3]
 c106604:	e59f3030 	ldr	r3, [pc, #48]	; c10663c <timer0_close+0x74>
 c106608:	e59f202c 	ldr	r2, [pc, #44]	; c10663c <timer0_close+0x74>
 c10660c:	e5922000 	ldr	r2, [r2]
 c106610:	e3822a02 	orr	r2, r2, #8192	; 0x2000
 c106614:	e5832000 	str	r2, [r3]
 c106618:	e59f3020 	ldr	r3, [pc, #32]	; c106640 <timer0_close+0x78>
 c10661c:	e59f2020 	ldr	r2, [pc, #32]	; c106644 <timer0_close+0x7c>
 c106620:	e5832000 	str	r2, [r3]
 c106624:	e24bd00c 	sub	sp, fp, #12
 c106628:	e89d6800 	ldm	sp, {fp, sp, lr}
 c10662c:	e12fff1e 	bx	lr
 c106630:	01d5000c 	.word	0x01d5000c
 c106634:	01d50010 	.word	0x01d50010
 c106638:	01d50008 	.word	0x01d50008
 c10663c:	01e0000c 	.word	0x01e0000c
 c106640:	0c7fff54 	.word	0x0c7fff54
 c106644:	0c1059f8 	.word	0x0c1059f8

0c106648 <uart0_init>:
 c106648:	e1a0c00d 	mov	ip, sp
 c10664c:	e92dd800 	push	{fp, ip, lr, pc}
 c106650:	e24cb004 	sub	fp, ip, #4
 c106654:	e3a0361d 	mov	r3, #30408704	; 0x1d00000
 c106658:	e3a02003 	mov	r2, #3
 c10665c:	e5832000 	str	r2, [r3]
 c106660:	e59f3034 	ldr	r3, [pc, #52]	; c10669c <uart0_init+0x54>
 c106664:	e3a02022 	mov	r2, #34	; 0x22
 c106668:	e5832000 	str	r2, [r3]
 c10666c:	e59f302c 	ldr	r3, [pc, #44]	; c1066a0 <uart0_init+0x58>
 c106670:	e3a02000 	mov	r2, #0
 c106674:	e5832000 	str	r2, [r3]
 c106678:	e59f3024 	ldr	r3, [pc, #36]	; c1066a4 <uart0_init+0x5c>
 c10667c:	e3a02005 	mov	r2, #5
 c106680:	e5832000 	str	r2, [r3]
 c106684:	e59f301c 	ldr	r3, [pc, #28]	; c1066a8 <uart0_init+0x60>
 c106688:	e3a02001 	mov	r2, #1
 c10668c:	e5832000 	str	r2, [r3]
 c106690:	e24bd00c 	sub	sp, fp, #12
 c106694:	e89d6800 	ldm	sp, {fp, sp, lr}
 c106698:	e12fff1e 	bx	lr
 c10669c:	01d00028 	.word	0x01d00028
 c1066a0:	01d0000c 	.word	0x01d0000c
 c1066a4:	01d00004 	.word	0x01d00004
 c1066a8:	01d00008 	.word	0x01d00008

0c1066ac <uart0_putchar>:
 c1066ac:	e1a0c00d 	mov	ip, sp
 c1066b0:	e92dd800 	push	{fp, ip, lr, pc}
 c1066b4:	e24cb004 	sub	fp, ip, #4
 c1066b8:	e24dd008 	sub	sp, sp, #8
 c1066bc:	e1a03000 	mov	r3, r0
 c1066c0:	e54b300d 	strb	r3, [fp, #-13]
 c1066c4:	e1a00000 	nop			; (mov r0, r0)
 c1066c8:	e59f3024 	ldr	r3, [pc, #36]	; c1066f4 <uart0_putchar+0x48>
 c1066cc:	e5933000 	ldr	r3, [r3]
 c1066d0:	e2033c02 	and	r3, r3, #512	; 0x200
 c1066d4:	e3530000 	cmp	r3, #0
 c1066d8:	1afffffa 	bne	c1066c8 <uart0_putchar+0x1c>
 c1066dc:	e59f3014 	ldr	r3, [pc, #20]	; c1066f8 <uart0_putchar+0x4c>
 c1066e0:	e55b200d 	ldrb	r2, [fp, #-13]
 c1066e4:	e5832000 	str	r2, [r3]
 c1066e8:	e24bd00c 	sub	sp, fp, #12
 c1066ec:	e89d6800 	ldm	sp, {fp, sp, lr}
 c1066f0:	e12fff1e 	bx	lr
 c1066f4:	01d00018 	.word	0x01d00018
 c1066f8:	01d00020 	.word	0x01d00020

0c1066fc <uart0_getchar>:
 c1066fc:	e1a0c00d 	mov	ip, sp
 c106700:	e92dd800 	push	{fp, ip, lr, pc}
 c106704:	e24cb004 	sub	fp, ip, #4
 c106708:	e1a00000 	nop			; (mov r0, r0)
 c10670c:	e59f3028 	ldr	r3, [pc, #40]	; c10673c <uart0_getchar+0x40>
 c106710:	e5933000 	ldr	r3, [r3]
 c106714:	e203300f 	and	r3, r3, #15
 c106718:	e3530000 	cmp	r3, #0
 c10671c:	0afffffa 	beq	c10670c <uart0_getchar+0x10>
 c106720:	e59f3018 	ldr	r3, [pc, #24]	; c106740 <uart0_getchar+0x44>
 c106724:	e5933000 	ldr	r3, [r3]
 c106728:	e20330ff 	and	r3, r3, #255	; 0xff
 c10672c:	e1a00003 	mov	r0, r3
 c106730:	e24bd00c 	sub	sp, fp, #12
 c106734:	e89d6800 	ldm	sp, {fp, sp, lr}
 c106738:	e12fff1e 	bx	lr
 c10673c:	01d00018 	.word	0x01d00018
 c106740:	01d00024 	.word	0x01d00024

0c106744 <uart0_puts>:
 c106744:	e1a0c00d 	mov	ip, sp
 c106748:	e92dd800 	push	{fp, ip, lr, pc}
 c10674c:	e24cb004 	sub	fp, ip, #4
 c106750:	e24dd010 	sub	sp, sp, #16
 c106754:	e50b0018 	str	r0, [fp, #-24]	; 0xffffffe8
 c106758:	e3a03000 	mov	r3, #0
 c10675c:	e50b3010 	str	r3, [fp, #-16]
 c106760:	ea000008 	b	c106788 <uart0_puts+0x44>
 c106764:	e51b3010 	ldr	r3, [fp, #-16]
 c106768:	e51b2018 	ldr	r2, [fp, #-24]	; 0xffffffe8
 c10676c:	e0823003 	add	r3, r2, r3
 c106770:	e5d33000 	ldrb	r3, [r3]
 c106774:	e1a00003 	mov	r0, r3
 c106778:	ebffffcb 	bl	c1066ac <uart0_putchar>
 c10677c:	e51b3010 	ldr	r3, [fp, #-16]
 c106780:	e2833001 	add	r3, r3, #1
 c106784:	e50b3010 	str	r3, [fp, #-16]
 c106788:	e51b3010 	ldr	r3, [fp, #-16]
 c10678c:	e51b2018 	ldr	r2, [fp, #-24]	; 0xffffffe8
 c106790:	e0823003 	add	r3, r2, r3
 c106794:	e5d33000 	ldrb	r3, [r3]
 c106798:	e3530000 	cmp	r3, #0
 c10679c:	1afffff0 	bne	c106764 <uart0_puts+0x20>
 c1067a0:	e24bd00c 	sub	sp, fp, #12
 c1067a4:	e89d6800 	ldm	sp, {fp, sp, lr}
 c1067a8:	e12fff1e 	bx	lr

0c1067ac <uart0_gets>:
 c1067ac:	e1a0c00d 	mov	ip, sp
 c1067b0:	e92dd810 	push	{r4, fp, ip, lr, pc}
 c1067b4:	e24cb004 	sub	fp, ip, #4
 c1067b8:	e24dd014 	sub	sp, sp, #20
 c1067bc:	e50b0020 	str	r0, [fp, #-32]	; 0xffffffe0
 c1067c0:	e3a03000 	mov	r3, #0
 c1067c4:	e54b3015 	strb	r3, [fp, #-21]	; 0xffffffeb
 c1067c8:	e55b3015 	ldrb	r3, [fp, #-21]	; 0xffffffeb
 c1067cc:	e51b2020 	ldr	r2, [fp, #-32]	; 0xffffffe0
 c1067d0:	e0824003 	add	r4, r2, r3
 c1067d4:	ebffffc8 	bl	c1066fc <uart0_getchar>
 c1067d8:	e1a03000 	mov	r3, r0
 c1067dc:	e5c43000 	strb	r3, [r4]
 c1067e0:	ea000008 	b	c106808 <uart0_gets+0x5c>
 c1067e4:	e55b3015 	ldrb	r3, [fp, #-21]	; 0xffffffeb
 c1067e8:	e2833001 	add	r3, r3, #1
 c1067ec:	e54b3015 	strb	r3, [fp, #-21]	; 0xffffffeb
 c1067f0:	e55b3015 	ldrb	r3, [fp, #-21]	; 0xffffffeb
 c1067f4:	e51b2020 	ldr	r2, [fp, #-32]	; 0xffffffe0
 c1067f8:	e0824003 	add	r4, r2, r3
 c1067fc:	ebffffbe 	bl	c1066fc <uart0_getchar>
 c106800:	e1a03000 	mov	r3, r0
 c106804:	e5c43000 	strb	r3, [r4]
 c106808:	e55b3015 	ldrb	r3, [fp, #-21]	; 0xffffffeb
 c10680c:	e51b2020 	ldr	r2, [fp, #-32]	; 0xffffffe0
 c106810:	e0823003 	add	r3, r2, r3
 c106814:	e5d33000 	ldrb	r3, [r3]
 c106818:	e353000a 	cmp	r3, #10
 c10681c:	1afffff0 	bne	c1067e4 <uart0_gets+0x38>
 c106820:	e55b3015 	ldrb	r3, [fp, #-21]	; 0xffffffeb
 c106824:	e51b2020 	ldr	r2, [fp, #-32]	; 0xffffffe0
 c106828:	e0823003 	add	r3, r2, r3
 c10682c:	e3a02000 	mov	r2, #0
 c106830:	e5c32000 	strb	r2, [r3]
 c106834:	e24bd010 	sub	sp, fp, #16
 c106838:	e89d6810 	ldm	sp, {r4, fp, sp, lr}
 c10683c:	e12fff1e 	bx	lr

0c106840 <uart0_putint>:
 c106840:	e1a0c00d 	mov	ip, sp
 c106844:	e92dd800 	push	{fp, ip, lr, pc}
 c106848:	e24cb004 	sub	fp, ip, #4
 c10684c:	e24dd028 	sub	sp, sp, #40	; 0x28
 c106850:	e50b0030 	str	r0, [fp, #-48]	; 0xffffffd0
 c106854:	e3a03000 	mov	r3, #0
 c106858:	e50b3010 	str	r3, [fp, #-16]
 c10685c:	e3a03000 	mov	r3, #0
 c106860:	e50b3014 	str	r3, [fp, #-20]	; 0xffffffec
 c106864:	e3a03001 	mov	r3, #1
 c106868:	e50b301c 	str	r3, [fp, #-28]	; 0xffffffe4
 c10686c:	e51b3030 	ldr	r3, [fp, #-48]	; 0xffffffd0
 c106870:	e3530000 	cmp	r3, #0
 c106874:	aa000008 	bge	c10689c <uart0_putint+0x5c>
 c106878:	e3e03000 	mvn	r3, #0
 c10687c:	e50b301c 	str	r3, [fp, #-28]	; 0xffffffe4
 c106880:	e51b3030 	ldr	r3, [fp, #-48]	; 0xffffffd0
 c106884:	e51b201c 	ldr	r2, [fp, #-28]	; 0xffffffe4
 c106888:	e0030392 	mul	r3, r2, r3
 c10688c:	e50b3030 	str	r3, [fp, #-48]	; 0xffffffd0
 c106890:	e51b3014 	ldr	r3, [fp, #-20]	; 0xffffffec
 c106894:	e2833001 	add	r3, r3, #1
 c106898:	e50b3014 	str	r3, [fp, #-20]	; 0xffffffec
 c10689c:	e51b1030 	ldr	r1, [fp, #-48]	; 0xffffffd0
 c1068a0:	e59f30e0 	ldr	r3, [pc, #224]	; c106988 <uart0_putint+0x148>
 c1068a4:	e0c30391 	smull	r0, r3, r1, r3
 c1068a8:	e1a02143 	asr	r2, r3, #2
 c1068ac:	e1a03fc1 	asr	r3, r1, #31
 c1068b0:	e0632002 	rsb	r2, r3, r2
 c1068b4:	e1a03002 	mov	r3, r2
 c1068b8:	e1a03103 	lsl	r3, r3, #2
 c1068bc:	e0833002 	add	r3, r3, r2
 c1068c0:	e1a03083 	lsl	r3, r3, #1
 c1068c4:	e0632001 	rsb	r2, r3, r1
 c1068c8:	e20220ff 	and	r2, r2, #255	; 0xff
 c1068cc:	e3e0301b 	mvn	r3, #27
 c1068d0:	e51b1010 	ldr	r1, [fp, #-16]
 c1068d4:	e24b000c 	sub	r0, fp, #12
 c1068d8:	e0801001 	add	r1, r0, r1
 c1068dc:	e0813003 	add	r3, r1, r3
 c1068e0:	e5c32000 	strb	r2, [r3]
 c1068e4:	e51b3030 	ldr	r3, [fp, #-48]	; 0xffffffd0
 c1068e8:	e59f2098 	ldr	r2, [pc, #152]	; c106988 <uart0_putint+0x148>
 c1068ec:	e0c21293 	smull	r1, r2, r3, r2
 c1068f0:	e1a02142 	asr	r2, r2, #2
 c1068f4:	e1a03fc3 	asr	r3, r3, #31
 c1068f8:	e0633002 	rsb	r3, r3, r2
 c1068fc:	e50b3030 	str	r3, [fp, #-48]	; 0xffffffd0
 c106900:	e51b3010 	ldr	r3, [fp, #-16]
 c106904:	e2833001 	add	r3, r3, #1
 c106908:	e50b3010 	str	r3, [fp, #-16]
 c10690c:	e51b3014 	ldr	r3, [fp, #-20]	; 0xffffffec
 c106910:	e2833001 	add	r3, r3, #1
 c106914:	e50b3014 	str	r3, [fp, #-20]	; 0xffffffec
 c106918:	e51b3030 	ldr	r3, [fp, #-48]	; 0xffffffd0
 c10691c:	e3530000 	cmp	r3, #0
 c106920:	caffffdd 	bgt	c10689c <uart0_putint+0x5c>
 c106924:	e3a03000 	mov	r3, #0
 c106928:	e50b3018 	str	r3, [fp, #-24]	; 0xffffffe8
 c10692c:	e51b3014 	ldr	r3, [fp, #-20]	; 0xffffffec
 c106930:	e2433001 	sub	r3, r3, #1
 c106934:	e50b3018 	str	r3, [fp, #-24]	; 0xffffffe8
 c106938:	ea00000c 	b	c106970 <uart0_putint+0x130>
 c10693c:	e3e0301b 	mvn	r3, #27
 c106940:	e51b2018 	ldr	r2, [fp, #-24]	; 0xffffffe8
 c106944:	e24b000c 	sub	r0, fp, #12
 c106948:	e0802002 	add	r2, r0, r2
 c10694c:	e0823003 	add	r3, r2, r3
 c106950:	e5d33000 	ldrb	r3, [r3]
 c106954:	e2833030 	add	r3, r3, #48	; 0x30
 c106958:	e20330ff 	and	r3, r3, #255	; 0xff
 c10695c:	e1a00003 	mov	r0, r3
 c106960:	ebffff51 	bl	c1066ac <uart0_putchar>
 c106964:	e51b3018 	ldr	r3, [fp, #-24]	; 0xffffffe8
 c106968:	e2433001 	sub	r3, r3, #1
 c10696c:	e50b3018 	str	r3, [fp, #-24]	; 0xffffffe8
 c106970:	e51b3018 	ldr	r3, [fp, #-24]	; 0xffffffe8
 c106974:	e3530000 	cmp	r3, #0
 c106978:	aaffffef 	bge	c10693c <uart0_putint+0xfc>
 c10697c:	e24bd00c 	sub	sp, fp, #12
 c106980:	e89d6800 	ldm	sp, {fp, sp, lr}
 c106984:	e12fff1e 	bx	lr
 c106988:	66666667 	.word	0x66666667

0c10698c <uart0_puthex>:
 c10698c:	e1a0c00d 	mov	ip, sp
 c106990:	e92dd800 	push	{fp, ip, lr, pc}
 c106994:	e24cb004 	sub	fp, ip, #4
 c106998:	e24dd018 	sub	sp, sp, #24
 c10699c:	e50b0020 	str	r0, [fp, #-32]	; 0xffffffe0
 c1069a0:	e24b301c 	sub	r3, fp, #28
 c1069a4:	e2833008 	add	r3, r3, #8
 c1069a8:	e50b3010 	str	r3, [fp, #-16]
 c1069ac:	e51b3010 	ldr	r3, [fp, #-16]
 c1069b0:	e3a02000 	mov	r2, #0
 c1069b4:	e5c32000 	strb	r2, [r3]
 c1069b8:	e51b3020 	ldr	r3, [fp, #-32]	; 0xffffffe0
 c1069bc:	e20330ff 	and	r3, r3, #255	; 0xff
 c1069c0:	e203300f 	and	r3, r3, #15
 c1069c4:	e54b3011 	strb	r3, [fp, #-17]	; 0xffffffef
 c1069c8:	e55b3011 	ldrb	r3, [fp, #-17]	; 0xffffffef
 c1069cc:	e3530009 	cmp	r3, #9
 c1069d0:	8a000008 	bhi	c1069f8 <uart0_puthex+0x6c>
 c1069d4:	e51b3010 	ldr	r3, [fp, #-16]
 c1069d8:	e2433001 	sub	r3, r3, #1
 c1069dc:	e50b3010 	str	r3, [fp, #-16]
 c1069e0:	e55b3011 	ldrb	r3, [fp, #-17]	; 0xffffffef
 c1069e4:	e2833030 	add	r3, r3, #48	; 0x30
 c1069e8:	e20320ff 	and	r2, r3, #255	; 0xff
 c1069ec:	e51b3010 	ldr	r3, [fp, #-16]
 c1069f0:	e5c32000 	strb	r2, [r3]
 c1069f4:	ea000007 	b	c106a18 <uart0_puthex+0x8c>
 c1069f8:	e51b3010 	ldr	r3, [fp, #-16]
 c1069fc:	e2433001 	sub	r3, r3, #1
 c106a00:	e50b3010 	str	r3, [fp, #-16]
 c106a04:	e55b3011 	ldrb	r3, [fp, #-17]	; 0xffffffef
 c106a08:	e2833057 	add	r3, r3, #87	; 0x57
 c106a0c:	e20320ff 	and	r2, r3, #255	; 0xff
 c106a10:	e51b3010 	ldr	r3, [fp, #-16]
 c106a14:	e5c32000 	strb	r2, [r3]
 c106a18:	e51b3020 	ldr	r3, [fp, #-32]	; 0xffffffe0
 c106a1c:	e1a03223 	lsr	r3, r3, #4
 c106a20:	e50b3020 	str	r3, [fp, #-32]	; 0xffffffe0
 c106a24:	e51b3020 	ldr	r3, [fp, #-32]	; 0xffffffe0
 c106a28:	e3530000 	cmp	r3, #0
 c106a2c:	1affffe1 	bne	c1069b8 <uart0_puthex+0x2c>
 c106a30:	e51b0010 	ldr	r0, [fp, #-16]
 c106a34:	ebffff42 	bl	c106744 <uart0_puts>
 c106a38:	e24bd00c 	sub	sp, fp, #12
 c106a3c:	e89d6800 	ldm	sp, {fp, sp, lr}
 c106a40:	e12fff1e 	bx	lr

0c106a44 <uart0_getint>:
 c106a44:	e1a0c00d 	mov	ip, sp
 c106a48:	e92dd800 	push	{fp, ip, lr, pc}
 c106a4c:	e24cb004 	sub	fp, ip, #4
 c106a50:	e24dd010 	sub	sp, sp, #16
 c106a54:	e3a03000 	mov	r3, #0
 c106a58:	e50b3010 	str	r3, [fp, #-16]
 c106a5c:	e3a03001 	mov	r3, #1
 c106a60:	e50b3014 	str	r3, [fp, #-20]	; 0xffffffec
 c106a64:	ebffff24 	bl	c1066fc <uart0_getchar>
 c106a68:	e1a03000 	mov	r3, r0
 c106a6c:	e54b3015 	strb	r3, [fp, #-21]	; 0xffffffeb
 c106a70:	e55b3015 	ldrb	r3, [fp, #-21]	; 0xffffffeb
 c106a74:	e353002d 	cmp	r3, #45	; 0x2d
 c106a78:	1a000013 	bne	c106acc <uart0_getint+0x88>
 c106a7c:	e3e03000 	mvn	r3, #0
 c106a80:	e50b3014 	str	r3, [fp, #-20]	; 0xffffffec
 c106a84:	ebffff1c 	bl	c1066fc <uart0_getchar>
 c106a88:	e1a03000 	mov	r3, r0
 c106a8c:	e54b3015 	strb	r3, [fp, #-21]	; 0xffffffeb
 c106a90:	ea00000d 	b	c106acc <uart0_getint+0x88>
 c106a94:	e51b2010 	ldr	r2, [fp, #-16]
 c106a98:	e1a03002 	mov	r3, r2
 c106a9c:	e1a03103 	lsl	r3, r3, #2
 c106aa0:	e0833002 	add	r3, r3, r2
 c106aa4:	e1a03083 	lsl	r3, r3, #1
 c106aa8:	e50b3010 	str	r3, [fp, #-16]
 c106aac:	e55b3015 	ldrb	r3, [fp, #-21]	; 0xffffffeb
 c106ab0:	e2433030 	sub	r3, r3, #48	; 0x30
 c106ab4:	e51b2010 	ldr	r2, [fp, #-16]
 c106ab8:	e0823003 	add	r3, r2, r3
 c106abc:	e50b3010 	str	r3, [fp, #-16]
 c106ac0:	ebffff0d 	bl	c1066fc <uart0_getchar>
 c106ac4:	e1a03000 	mov	r3, r0
 c106ac8:	e54b3015 	strb	r3, [fp, #-21]	; 0xffffffeb
 c106acc:	e55b3015 	ldrb	r3, [fp, #-21]	; 0xffffffeb
 c106ad0:	e353000a 	cmp	r3, #10
 c106ad4:	1affffee 	bne	c106a94 <uart0_getint+0x50>
 c106ad8:	e51b3010 	ldr	r3, [fp, #-16]
 c106adc:	e51b2014 	ldr	r2, [fp, #-20]	; 0xffffffec
 c106ae0:	e0030392 	mul	r3, r2, r3
 c106ae4:	e1a00003 	mov	r0, r3
 c106ae8:	e24bd00c 	sub	sp, fp, #12
 c106aec:	e89d6800 	ldm	sp, {fp, sp, lr}
 c106af0:	e12fff1e 	bx	lr

0c106af4 <uart0_gethex>:
 c106af4:	e1a0c00d 	mov	ip, sp
 c106af8:	e92dd800 	push	{fp, ip, lr, pc}
 c106afc:	e24cb004 	sub	fp, ip, #4
 c106b00:	e24dd008 	sub	sp, sp, #8
 c106b04:	e3a03000 	mov	r3, #0
 c106b08:	e50b3010 	str	r3, [fp, #-16]
 c106b0c:	ebfffefa 	bl	c1066fc <uart0_getchar>
 c106b10:	e1a03000 	mov	r3, r0
 c106b14:	e54b3011 	strb	r3, [fp, #-17]	; 0xffffffef
 c106b18:	ea000031 	b	c106be4 <uart0_gethex+0xf0>
 c106b1c:	e55b3011 	ldrb	r3, [fp, #-17]	; 0xffffffef
 c106b20:	e353002f 	cmp	r3, #47	; 0x2f
 c106b24:	9a000008 	bls	c106b4c <uart0_gethex+0x58>
 c106b28:	e55b3011 	ldrb	r3, [fp, #-17]	; 0xffffffef
 c106b2c:	e3530039 	cmp	r3, #57	; 0x39
 c106b30:	8a000005 	bhi	c106b4c <uart0_gethex+0x58>
 c106b34:	e55b3011 	ldrb	r3, [fp, #-17]	; 0xffffffef
 c106b38:	e2433030 	sub	r3, r3, #48	; 0x30
 c106b3c:	e51b2010 	ldr	r2, [fp, #-16]
 c106b40:	e0823003 	add	r3, r2, r3
 c106b44:	e50b3010 	str	r3, [fp, #-16]
 c106b48:	ea000016 	b	c106ba8 <uart0_gethex+0xb4>
 c106b4c:	e55b3011 	ldrb	r3, [fp, #-17]	; 0xffffffef
 c106b50:	e3530040 	cmp	r3, #64	; 0x40
 c106b54:	9a000008 	bls	c106b7c <uart0_gethex+0x88>
 c106b58:	e55b3011 	ldrb	r3, [fp, #-17]	; 0xffffffef
 c106b5c:	e3530046 	cmp	r3, #70	; 0x46
 c106b60:	8a000005 	bhi	c106b7c <uart0_gethex+0x88>
 c106b64:	e55b3011 	ldrb	r3, [fp, #-17]	; 0xffffffef
 c106b68:	e2433037 	sub	r3, r3, #55	; 0x37
 c106b6c:	e51b2010 	ldr	r2, [fp, #-16]
 c106b70:	e0823003 	add	r3, r2, r3
 c106b74:	e50b3010 	str	r3, [fp, #-16]
 c106b78:	ea00000a 	b	c106ba8 <uart0_gethex+0xb4>
 c106b7c:	e55b3011 	ldrb	r3, [fp, #-17]	; 0xffffffef
 c106b80:	e3530060 	cmp	r3, #96	; 0x60
 c106b84:	9a000007 	bls	c106ba8 <uart0_gethex+0xb4>
 c106b88:	e55b3011 	ldrb	r3, [fp, #-17]	; 0xffffffef
 c106b8c:	e3530066 	cmp	r3, #102	; 0x66
 c106b90:	8a000004 	bhi	c106ba8 <uart0_gethex+0xb4>
 c106b94:	e55b3011 	ldrb	r3, [fp, #-17]	; 0xffffffef
 c106b98:	e2433057 	sub	r3, r3, #87	; 0x57
 c106b9c:	e51b2010 	ldr	r2, [fp, #-16]
 c106ba0:	e0823003 	add	r3, r2, r3
 c106ba4:	e50b3010 	str	r3, [fp, #-16]
 c106ba8:	e51b3010 	ldr	r3, [fp, #-16]
 c106bac:	e1a03203 	lsl	r3, r3, #4
 c106bb0:	e50b3010 	str	r3, [fp, #-16]
 c106bb4:	ebfffed0 	bl	c1066fc <uart0_getchar>
 c106bb8:	e1a03000 	mov	r3, r0
 c106bbc:	e54b3011 	strb	r3, [fp, #-17]	; 0xffffffef
 c106bc0:	e55b3011 	ldrb	r3, [fp, #-17]	; 0xffffffef
 c106bc4:	e353000a 	cmp	r3, #10
 c106bc8:	1a000005 	bne	c106be4 <uart0_gethex+0xf0>
 c106bcc:	e51b3010 	ldr	r3, [fp, #-16]
 c106bd0:	e283200f 	add	r2, r3, #15
 c106bd4:	e3530000 	cmp	r3, #0
 c106bd8:	b1a03002 	movlt	r3, r2
 c106bdc:	e1a03243 	asr	r3, r3, #4
 c106be0:	e50b3010 	str	r3, [fp, #-16]
 c106be4:	e55b3011 	ldrb	r3, [fp, #-17]	; 0xffffffef
 c106be8:	e353000a 	cmp	r3, #10
 c106bec:	1affffca 	bne	c106b1c <uart0_gethex+0x28>
 c106bf0:	e51b3010 	ldr	r3, [fp, #-16]
 c106bf4:	e1a00003 	mov	r0, r3
 c106bf8:	e24bd00c 	sub	sp, fp, #12
 c106bfc:	e89d6800 	ldm	sp, {fp, sp, lr}
 c106c00:	e12fff1e 	bx	lr

0c106c04 <__aeabi_uidiv>:
 c106c04:	e2512001 	subs	r2, r1, #1
 c106c08:	012fff1e 	bxeq	lr
 c106c0c:	3a000036 	bcc	c106cec <__aeabi_uidiv+0xe8>
 c106c10:	e1500001 	cmp	r0, r1
 c106c14:	9a000022 	bls	c106ca4 <__aeabi_uidiv+0xa0>
 c106c18:	e1110002 	tst	r1, r2
 c106c1c:	0a000023 	beq	c106cb0 <__aeabi_uidiv+0xac>
 c106c20:	e311020e 	tst	r1, #-536870912	; 0xe0000000
 c106c24:	01a01181 	lsleq	r1, r1, #3
 c106c28:	03a03008 	moveq	r3, #8
 c106c2c:	13a03001 	movne	r3, #1
 c106c30:	e3510201 	cmp	r1, #268435456	; 0x10000000
 c106c34:	31510000 	cmpcc	r1, r0
 c106c38:	31a01201 	lslcc	r1, r1, #4
 c106c3c:	31a03203 	lslcc	r3, r3, #4
 c106c40:	3afffffa 	bcc	c106c30 <__aeabi_uidiv+0x2c>
 c106c44:	e3510102 	cmp	r1, #-2147483648	; 0x80000000
 c106c48:	31510000 	cmpcc	r1, r0
 c106c4c:	31a01081 	lslcc	r1, r1, #1
 c106c50:	31a03083 	lslcc	r3, r3, #1
 c106c54:	3afffffa 	bcc	c106c44 <__aeabi_uidiv+0x40>
 c106c58:	e3a02000 	mov	r2, #0
 c106c5c:	e1500001 	cmp	r0, r1
 c106c60:	20400001 	subcs	r0, r0, r1
 c106c64:	21822003 	orrcs	r2, r2, r3
 c106c68:	e15000a1 	cmp	r0, r1, lsr #1
 c106c6c:	204000a1 	subcs	r0, r0, r1, lsr #1
 c106c70:	218220a3 	orrcs	r2, r2, r3, lsr #1
 c106c74:	e1500121 	cmp	r0, r1, lsr #2
 c106c78:	20400121 	subcs	r0, r0, r1, lsr #2
 c106c7c:	21822123 	orrcs	r2, r2, r3, lsr #2
 c106c80:	e15001a1 	cmp	r0, r1, lsr #3
 c106c84:	204001a1 	subcs	r0, r0, r1, lsr #3
 c106c88:	218221a3 	orrcs	r2, r2, r3, lsr #3
 c106c8c:	e3500000 	cmp	r0, #0
 c106c90:	11b03223 	lsrsne	r3, r3, #4
 c106c94:	11a01221 	lsrne	r1, r1, #4
 c106c98:	1affffef 	bne	c106c5c <__aeabi_uidiv+0x58>
 c106c9c:	e1a00002 	mov	r0, r2
 c106ca0:	e12fff1e 	bx	lr
 c106ca4:	03a00001 	moveq	r0, #1
 c106ca8:	13a00000 	movne	r0, #0
 c106cac:	e12fff1e 	bx	lr
 c106cb0:	e3510801 	cmp	r1, #65536	; 0x10000
 c106cb4:	21a01821 	lsrcs	r1, r1, #16
 c106cb8:	23a02010 	movcs	r2, #16
 c106cbc:	33a02000 	movcc	r2, #0
 c106cc0:	e3510c01 	cmp	r1, #256	; 0x100
 c106cc4:	21a01421 	lsrcs	r1, r1, #8
 c106cc8:	22822008 	addcs	r2, r2, #8
 c106ccc:	e3510010 	cmp	r1, #16
 c106cd0:	21a01221 	lsrcs	r1, r1, #4
 c106cd4:	22822004 	addcs	r2, r2, #4
 c106cd8:	e3510004 	cmp	r1, #4
 c106cdc:	82822003 	addhi	r2, r2, #3
 c106ce0:	908220a1 	addls	r2, r2, r1, lsr #1
 c106ce4:	e1a00230 	lsr	r0, r0, r2
 c106ce8:	e12fff1e 	bx	lr
 c106cec:	e3500000 	cmp	r0, #0
 c106cf0:	13e00000 	mvnne	r0, #0
 c106cf4:	ea000007 	b	c106d18 <__aeabi_idiv0>

0c106cf8 <__aeabi_uidivmod>:
 c106cf8:	e3510000 	cmp	r1, #0
 c106cfc:	0afffffa 	beq	c106cec <__aeabi_uidiv+0xe8>
 c106d00:	e92d4003 	push	{r0, r1, lr}
 c106d04:	ebffffbe 	bl	c106c04 <__aeabi_uidiv>
 c106d08:	e8bd4006 	pop	{r1, r2, lr}
 c106d0c:	e0030092 	mul	r3, r2, r0
 c106d10:	e0411003 	sub	r1, r1, r3
 c106d14:	e12fff1e 	bx	lr

0c106d18 <__aeabi_idiv0>:
 c106d18:	e12fff1e 	bx	lr

0c106d1c <__aeabi_drsub>:
 c106d1c:	e2211102 	eor	r1, r1, #-2147483648	; 0x80000000
 c106d20:	ea000000 	b	c106d28 <__adddf3>

0c106d24 <__aeabi_dsub>:
 c106d24:	e2233102 	eor	r3, r3, #-2147483648	; 0x80000000

0c106d28 <__adddf3>:
 c106d28:	e92d4030 	push	{r4, r5, lr}
 c106d2c:	e1a04081 	lsl	r4, r1, #1
 c106d30:	e1a05083 	lsl	r5, r3, #1
 c106d34:	e1340005 	teq	r4, r5
 c106d38:	01300002 	teqeq	r0, r2
 c106d3c:	1194c000 	orrsne	ip, r4, r0
 c106d40:	1195c002 	orrsne	ip, r5, r2
 c106d44:	11f0cac4 	mvnsne	ip, r4, asr #21
 c106d48:	11f0cac5 	mvnsne	ip, r5, asr #21
 c106d4c:	0a00008c 	beq	c106f84 <__adddf3+0x25c>
 c106d50:	e1a04aa4 	lsr	r4, r4, #21
 c106d54:	e0745aa5 	rsbs	r5, r4, r5, lsr #21
 c106d58:	b2655000 	rsblt	r5, r5, #0
 c106d5c:	da000006 	ble	c106d7c <__adddf3+0x54>
 c106d60:	e0844005 	add	r4, r4, r5
 c106d64:	e0202002 	eor	r2, r0, r2
 c106d68:	e0213003 	eor	r3, r1, r3
 c106d6c:	e0220000 	eor	r0, r2, r0
 c106d70:	e0231001 	eor	r1, r3, r1
 c106d74:	e0202002 	eor	r2, r0, r2
 c106d78:	e0213003 	eor	r3, r1, r3
 c106d7c:	e3550036 	cmp	r5, #54	; 0x36
 c106d80:	88bd4030 	pophi	{r4, r5, lr}
 c106d84:	812fff1e 	bxhi	lr
 c106d88:	e3110102 	tst	r1, #-2147483648	; 0x80000000
 c106d8c:	e1a01601 	lsl	r1, r1, #12
 c106d90:	e3a0c601 	mov	ip, #1048576	; 0x100000
 c106d94:	e18c1621 	orr	r1, ip, r1, lsr #12
 c106d98:	0a000001 	beq	c106da4 <__adddf3+0x7c>
 c106d9c:	e2700000 	rsbs	r0, r0, #0
 c106da0:	e2e11000 	rsc	r1, r1, #0
 c106da4:	e3130102 	tst	r3, #-2147483648	; 0x80000000
 c106da8:	e1a03603 	lsl	r3, r3, #12
 c106dac:	e18c3623 	orr	r3, ip, r3, lsr #12
 c106db0:	0a000001 	beq	c106dbc <__adddf3+0x94>
 c106db4:	e2722000 	rsbs	r2, r2, #0
 c106db8:	e2e33000 	rsc	r3, r3, #0
 c106dbc:	e1340005 	teq	r4, r5
 c106dc0:	0a000069 	beq	c106f6c <__adddf3+0x244>
 c106dc4:	e2444001 	sub	r4, r4, #1
 c106dc8:	e275e020 	rsbs	lr, r5, #32
 c106dcc:	ba000005 	blt	c106de8 <__adddf3+0xc0>
 c106dd0:	e1a0ce12 	lsl	ip, r2, lr
 c106dd4:	e0900532 	adds	r0, r0, r2, lsr r5
 c106dd8:	e2a11000 	adc	r1, r1, #0
 c106ddc:	e0900e13 	adds	r0, r0, r3, lsl lr
 c106de0:	e0b11553 	adcs	r1, r1, r3, asr r5
 c106de4:	ea000006 	b	c106e04 <__adddf3+0xdc>
 c106de8:	e2455020 	sub	r5, r5, #32
 c106dec:	e28ee020 	add	lr, lr, #32
 c106df0:	e3520001 	cmp	r2, #1
 c106df4:	e1a0ce13 	lsl	ip, r3, lr
 c106df8:	238cc002 	orrcs	ip, ip, #2
 c106dfc:	e0900553 	adds	r0, r0, r3, asr r5
 c106e00:	e0b11fc3 	adcs	r1, r1, r3, asr #31
 c106e04:	e2015102 	and	r5, r1, #-2147483648	; 0x80000000
 c106e08:	5a000002 	bpl	c106e18 <__adddf3+0xf0>
 c106e0c:	e27cc000 	rsbs	ip, ip, #0
 c106e10:	e2f00000 	rscs	r0, r0, #0
 c106e14:	e2e11000 	rsc	r1, r1, #0
 c106e18:	e3510601 	cmp	r1, #1048576	; 0x100000
 c106e1c:	3a00000f 	bcc	c106e60 <__adddf3+0x138>
 c106e20:	e3510602 	cmp	r1, #2097152	; 0x200000
 c106e24:	3a000006 	bcc	c106e44 <__adddf3+0x11c>
 c106e28:	e1b010a1 	lsrs	r1, r1, #1
 c106e2c:	e1b00060 	rrxs	r0, r0
 c106e30:	e1a0c06c 	rrx	ip, ip
 c106e34:	e2844001 	add	r4, r4, #1
 c106e38:	e1a02a84 	lsl	r2, r4, #21
 c106e3c:	e3720501 	cmn	r2, #4194304	; 0x400000
 c106e40:	2a00006b 	bcs	c106ff4 <__adddf3+0x2cc>
 c106e44:	e35c0102 	cmp	ip, #-2147483648	; 0x80000000
 c106e48:	01b0c0a0 	lsrseq	ip, r0, #1
 c106e4c:	e2b00000 	adcs	r0, r0, #0
 c106e50:	e0a11a04 	adc	r1, r1, r4, lsl #20
 c106e54:	e1811005 	orr	r1, r1, r5
 c106e58:	e8bd4030 	pop	{r4, r5, lr}
 c106e5c:	e12fff1e 	bx	lr
 c106e60:	e1b0c08c 	lsls	ip, ip, #1
 c106e64:	e0b00000 	adcs	r0, r0, r0
 c106e68:	e0a11001 	adc	r1, r1, r1
 c106e6c:	e3110601 	tst	r1, #1048576	; 0x100000
 c106e70:	e2444001 	sub	r4, r4, #1
 c106e74:	1afffff2 	bne	c106e44 <__adddf3+0x11c>
 c106e78:	e3310000 	teq	r1, #0
 c106e7c:	13a03014 	movne	r3, #20
 c106e80:	03a03034 	moveq	r3, #52	; 0x34
 c106e84:	01a01000 	moveq	r1, r0
 c106e88:	03a00000 	moveq	r0, #0
 c106e8c:	e1a02001 	mov	r2, r1
 c106e90:	e3520801 	cmp	r2, #65536	; 0x10000
 c106e94:	21a02822 	lsrcs	r2, r2, #16
 c106e98:	22433010 	subcs	r3, r3, #16
 c106e9c:	e3520c01 	cmp	r2, #256	; 0x100
 c106ea0:	21a02422 	lsrcs	r2, r2, #8
 c106ea4:	22433008 	subcs	r3, r3, #8
 c106ea8:	e3520010 	cmp	r2, #16
 c106eac:	21a02222 	lsrcs	r2, r2, #4
 c106eb0:	22433004 	subcs	r3, r3, #4
 c106eb4:	e3520004 	cmp	r2, #4
 c106eb8:	22433002 	subcs	r3, r3, #2
 c106ebc:	304330a2 	subcc	r3, r3, r2, lsr #1
 c106ec0:	e04331a2 	sub	r3, r3, r2, lsr #3
 c106ec4:	e2532020 	subs	r2, r3, #32
 c106ec8:	aa000007 	bge	c106eec <__adddf3+0x1c4>
 c106ecc:	e292200c 	adds	r2, r2, #12
 c106ed0:	da000004 	ble	c106ee8 <__adddf3+0x1c0>
 c106ed4:	e282c014 	add	ip, r2, #20
 c106ed8:	e262200c 	rsb	r2, r2, #12
 c106edc:	e1a00c11 	lsl	r0, r1, ip
 c106ee0:	e1a01231 	lsr	r1, r1, r2
 c106ee4:	ea000004 	b	c106efc <__adddf3+0x1d4>
 c106ee8:	e2822014 	add	r2, r2, #20
 c106eec:	d262c020 	rsble	ip, r2, #32
 c106ef0:	e1a01211 	lsl	r1, r1, r2
 c106ef4:	d1811c30 	orrle	r1, r1, r0, lsr ip
 c106ef8:	d1a00210 	lslle	r0, r0, r2
 c106efc:	e0544003 	subs	r4, r4, r3
 c106f00:	a0811a04 	addge	r1, r1, r4, lsl #20
 c106f04:	a1811005 	orrge	r1, r1, r5
 c106f08:	a8bd4030 	popge	{r4, r5, lr}
 c106f0c:	a12fff1e 	bxge	lr
 c106f10:	e1e04004 	mvn	r4, r4
 c106f14:	e254401f 	subs	r4, r4, #31
 c106f18:	aa00000f 	bge	c106f5c <__adddf3+0x234>
 c106f1c:	e294400c 	adds	r4, r4, #12
 c106f20:	ca000006 	bgt	c106f40 <__adddf3+0x218>
 c106f24:	e2844014 	add	r4, r4, #20
 c106f28:	e2642020 	rsb	r2, r4, #32
 c106f2c:	e1a00430 	lsr	r0, r0, r4
 c106f30:	e1800211 	orr	r0, r0, r1, lsl r2
 c106f34:	e1851431 	orr	r1, r5, r1, lsr r4
 c106f38:	e8bd4030 	pop	{r4, r5, lr}
 c106f3c:	e12fff1e 	bx	lr
 c106f40:	e264400c 	rsb	r4, r4, #12
 c106f44:	e2642020 	rsb	r2, r4, #32
 c106f48:	e1a00230 	lsr	r0, r0, r2
 c106f4c:	e1800411 	orr	r0, r0, r1, lsl r4
 c106f50:	e1a01005 	mov	r1, r5
 c106f54:	e8bd4030 	pop	{r4, r5, lr}
 c106f58:	e12fff1e 	bx	lr
 c106f5c:	e1a00431 	lsr	r0, r1, r4
 c106f60:	e1a01005 	mov	r1, r5
 c106f64:	e8bd4030 	pop	{r4, r5, lr}
 c106f68:	e12fff1e 	bx	lr
 c106f6c:	e3340000 	teq	r4, #0
 c106f70:	e2233601 	eor	r3, r3, #1048576	; 0x100000
 c106f74:	02211601 	eoreq	r1, r1, #1048576	; 0x100000
 c106f78:	02844001 	addeq	r4, r4, #1
 c106f7c:	12455001 	subne	r5, r5, #1
 c106f80:	eaffff8f 	b	c106dc4 <__adddf3+0x9c>
 c106f84:	e1f0cac4 	mvns	ip, r4, asr #21
 c106f88:	11f0cac5 	mvnsne	ip, r5, asr #21
 c106f8c:	0a00001d 	beq	c107008 <__adddf3+0x2e0>
 c106f90:	e1340005 	teq	r4, r5
 c106f94:	01300002 	teqeq	r0, r2
 c106f98:	0a000004 	beq	c106fb0 <__adddf3+0x288>
 c106f9c:	e194c000 	orrs	ip, r4, r0
 c106fa0:	01a01003 	moveq	r1, r3
 c106fa4:	01a00002 	moveq	r0, r2
 c106fa8:	e8bd4030 	pop	{r4, r5, lr}
 c106fac:	e12fff1e 	bx	lr
 c106fb0:	e1310003 	teq	r1, r3
 c106fb4:	13a01000 	movne	r1, #0
 c106fb8:	13a00000 	movne	r0, #0
 c106fbc:	18bd4030 	popne	{r4, r5, lr}
 c106fc0:	112fff1e 	bxne	lr
 c106fc4:	e1b0caa4 	lsrs	ip, r4, #21
 c106fc8:	1a000004 	bne	c106fe0 <__adddf3+0x2b8>
 c106fcc:	e1b00080 	lsls	r0, r0, #1
 c106fd0:	e0b11001 	adcs	r1, r1, r1
 c106fd4:	23811102 	orrcs	r1, r1, #-2147483648	; 0x80000000
 c106fd8:	e8bd4030 	pop	{r4, r5, lr}
 c106fdc:	e12fff1e 	bx	lr
 c106fe0:	e2944501 	adds	r4, r4, #4194304	; 0x400000
 c106fe4:	32811601 	addcc	r1, r1, #1048576	; 0x100000
 c106fe8:	38bd4030 	popcc	{r4, r5, lr}
 c106fec:	312fff1e 	bxcc	lr
 c106ff0:	e2015102 	and	r5, r1, #-2147483648	; 0x80000000
 c106ff4:	e385147f 	orr	r1, r5, #2130706432	; 0x7f000000
 c106ff8:	e381160f 	orr	r1, r1, #15728640	; 0xf00000
 c106ffc:	e3a00000 	mov	r0, #0
 c107000:	e8bd4030 	pop	{r4, r5, lr}
 c107004:	e12fff1e 	bx	lr
 c107008:	e1f0cac4 	mvns	ip, r4, asr #21
 c10700c:	11a01003 	movne	r1, r3
 c107010:	11a00002 	movne	r0, r2
 c107014:	01f0cac5 	mvnseq	ip, r5, asr #21
 c107018:	11a03001 	movne	r3, r1
 c10701c:	11a02000 	movne	r2, r0
 c107020:	e1904601 	orrs	r4, r0, r1, lsl #12
 c107024:	01925603 	orrseq	r5, r2, r3, lsl #12
 c107028:	01310003 	teqeq	r1, r3
 c10702c:	13811702 	orrne	r1, r1, #524288	; 0x80000
 c107030:	e8bd4030 	pop	{r4, r5, lr}
 c107034:	e12fff1e 	bx	lr

0c107038 <__aeabi_ui2d>:
 c107038:	e3300000 	teq	r0, #0
 c10703c:	03a01000 	moveq	r1, #0
 c107040:	012fff1e 	bxeq	lr
 c107044:	e92d4030 	push	{r4, r5, lr}
 c107048:	e3a04b01 	mov	r4, #1024	; 0x400
 c10704c:	e2844032 	add	r4, r4, #50	; 0x32
 c107050:	e3a05000 	mov	r5, #0
 c107054:	e3a01000 	mov	r1, #0
 c107058:	eaffff86 	b	c106e78 <__adddf3+0x150>

0c10705c <__aeabi_i2d>:
 c10705c:	e3300000 	teq	r0, #0
 c107060:	03a01000 	moveq	r1, #0
 c107064:	012fff1e 	bxeq	lr
 c107068:	e92d4030 	push	{r4, r5, lr}
 c10706c:	e3a04b01 	mov	r4, #1024	; 0x400
 c107070:	e2844032 	add	r4, r4, #50	; 0x32
 c107074:	e2105102 	ands	r5, r0, #-2147483648	; 0x80000000
 c107078:	42600000 	rsbmi	r0, r0, #0
 c10707c:	e3a01000 	mov	r1, #0
 c107080:	eaffff7c 	b	c106e78 <__adddf3+0x150>

0c107084 <__aeabi_f2d>:
 c107084:	e1b02080 	lsls	r2, r0, #1
 c107088:	e1a011c2 	asr	r1, r2, #3
 c10708c:	e1a01061 	rrx	r1, r1
 c107090:	e1a00e02 	lsl	r0, r2, #28
 c107094:	121234ff 	andsne	r3, r2, #-16777216	; 0xff000000
 c107098:	133304ff 	teqne	r3, #-16777216	; 0xff000000
 c10709c:	1221130e 	eorne	r1, r1, #939524096	; 0x38000000
 c1070a0:	112fff1e 	bxne	lr
 c1070a4:	e3320000 	teq	r2, #0
 c1070a8:	133304ff 	teqne	r3, #-16777216	; 0xff000000
 c1070ac:	012fff1e 	bxeq	lr
 c1070b0:	e92d4030 	push	{r4, r5, lr}
 c1070b4:	e3a04d0e 	mov	r4, #896	; 0x380
 c1070b8:	e2015102 	and	r5, r1, #-2147483648	; 0x80000000
 c1070bc:	e3c11102 	bic	r1, r1, #-2147483648	; 0x80000000
 c1070c0:	eaffff6c 	b	c106e78 <__adddf3+0x150>

0c1070c4 <__aeabi_ul2d>:
 c1070c4:	e1902001 	orrs	r2, r0, r1
 c1070c8:	012fff1e 	bxeq	lr
 c1070cc:	e92d4030 	push	{r4, r5, lr}
 c1070d0:	e3a05000 	mov	r5, #0
 c1070d4:	ea000006 	b	c1070f4 <__aeabi_l2d+0x1c>

0c1070d8 <__aeabi_l2d>:
 c1070d8:	e1902001 	orrs	r2, r0, r1
 c1070dc:	012fff1e 	bxeq	lr
 c1070e0:	e92d4030 	push	{r4, r5, lr}
 c1070e4:	e2115102 	ands	r5, r1, #-2147483648	; 0x80000000
 c1070e8:	5a000001 	bpl	c1070f4 <__aeabi_l2d+0x1c>
 c1070ec:	e2700000 	rsbs	r0, r0, #0
 c1070f0:	e2e11000 	rsc	r1, r1, #0
 c1070f4:	e3a04b01 	mov	r4, #1024	; 0x400
 c1070f8:	e2844032 	add	r4, r4, #50	; 0x32
 c1070fc:	e1b0cb21 	lsrs	ip, r1, #22
 c107100:	0affff44 	beq	c106e18 <__adddf3+0xf0>
 c107104:	e3a02003 	mov	r2, #3
 c107108:	e1b0c1ac 	lsrs	ip, ip, #3
 c10710c:	12822003 	addne	r2, r2, #3
 c107110:	e1b0c1ac 	lsrs	ip, ip, #3
 c107114:	12822003 	addne	r2, r2, #3
 c107118:	e08221ac 	add	r2, r2, ip, lsr #3
 c10711c:	e2623020 	rsb	r3, r2, #32
 c107120:	e1a0c310 	lsl	ip, r0, r3
 c107124:	e1a00230 	lsr	r0, r0, r2
 c107128:	e1800311 	orr	r0, r0, r1, lsl r3
 c10712c:	e1a01231 	lsr	r1, r1, r2
 c107130:	e0844002 	add	r4, r4, r2
 c107134:	eaffff37 	b	c106e18 <__adddf3+0xf0>

0c107138 <__aeabi_dmul>:
 c107138:	e92d4070 	push	{r4, r5, r6, lr}
 c10713c:	e3a0c0ff 	mov	ip, #255	; 0xff
 c107140:	e38ccc07 	orr	ip, ip, #1792	; 0x700
 c107144:	e01c4a21 	ands	r4, ip, r1, lsr #20
 c107148:	101c5a23 	andsne	r5, ip, r3, lsr #20
 c10714c:	1134000c 	teqne	r4, ip
 c107150:	1135000c 	teqne	r5, ip
 c107154:	0b000075 	bleq	c107330 <__aeabi_dmul+0x1f8>
 c107158:	e0844005 	add	r4, r4, r5
 c10715c:	e0216003 	eor	r6, r1, r3
 c107160:	e1c11a8c 	bic	r1, r1, ip, lsl #21
 c107164:	e1c33a8c 	bic	r3, r3, ip, lsl #21
 c107168:	e1905601 	orrs	r5, r0, r1, lsl #12
 c10716c:	11925603 	orrsne	r5, r2, r3, lsl #12
 c107170:	e3811601 	orr	r1, r1, #1048576	; 0x100000
 c107174:	e3833601 	orr	r3, r3, #1048576	; 0x100000
 c107178:	0a00001d 	beq	c1071f4 <__aeabi_dmul+0xbc>
 c10717c:	e08ec290 	umull	ip, lr, r0, r2
 c107180:	e3a05000 	mov	r5, #0
 c107184:	e0a5e291 	umlal	lr, r5, r1, r2
 c107188:	e2062102 	and	r2, r6, #-2147483648	; 0x80000000
 c10718c:	e0a5e390 	umlal	lr, r5, r0, r3
 c107190:	e3a06000 	mov	r6, #0
 c107194:	e0a65391 	umlal	r5, r6, r1, r3
 c107198:	e33c0000 	teq	ip, #0
 c10719c:	138ee001 	orrne	lr, lr, #1
 c1071a0:	e24440ff 	sub	r4, r4, #255	; 0xff
 c1071a4:	e3560c02 	cmp	r6, #512	; 0x200
 c1071a8:	e2c44c03 	sbc	r4, r4, #768	; 0x300
 c1071ac:	2a000002 	bcs	c1071bc <__aeabi_dmul+0x84>
 c1071b0:	e1b0e08e 	lsls	lr, lr, #1
 c1071b4:	e0b55005 	adcs	r5, r5, r5
 c1071b8:	e0a66006 	adc	r6, r6, r6
 c1071bc:	e1821586 	orr	r1, r2, r6, lsl #11
 c1071c0:	e1811aa5 	orr	r1, r1, r5, lsr #21
 c1071c4:	e1a00585 	lsl	r0, r5, #11
 c1071c8:	e1800aae 	orr	r0, r0, lr, lsr #21
 c1071cc:	e1a0e58e 	lsl	lr, lr, #11
 c1071d0:	e254c0fd 	subs	ip, r4, #253	; 0xfd
 c1071d4:	835c0c07 	cmphi	ip, #1792	; 0x700
 c1071d8:	8a000011 	bhi	c107224 <__aeabi_dmul+0xec>
 c1071dc:	e35e0102 	cmp	lr, #-2147483648	; 0x80000000
 c1071e0:	01b0e0a0 	lsrseq	lr, r0, #1
 c1071e4:	e2b00000 	adcs	r0, r0, #0
 c1071e8:	e0a11a04 	adc	r1, r1, r4, lsl #20
 c1071ec:	e8bd4070 	pop	{r4, r5, r6, lr}
 c1071f0:	e12fff1e 	bx	lr
 c1071f4:	e2066102 	and	r6, r6, #-2147483648	; 0x80000000
 c1071f8:	e1861001 	orr	r1, r6, r1
 c1071fc:	e1800002 	orr	r0, r0, r2
 c107200:	e0211003 	eor	r1, r1, r3
 c107204:	e05440ac 	subs	r4, r4, ip, lsr #1
 c107208:	c074500c 	rsbsgt	r5, r4, ip
 c10720c:	c1811a04 	orrgt	r1, r1, r4, lsl #20
 c107210:	c8bd4070 	popgt	{r4, r5, r6, lr}
 c107214:	c12fff1e 	bxgt	lr
 c107218:	e3811601 	orr	r1, r1, #1048576	; 0x100000
 c10721c:	e3a0e000 	mov	lr, #0
 c107220:	e2544001 	subs	r4, r4, #1
 c107224:	ca00005d 	bgt	c1073a0 <__aeabi_dmul+0x268>
 c107228:	e3740036 	cmn	r4, #54	; 0x36
 c10722c:	d3a00000 	movle	r0, #0
 c107230:	d2011102 	andle	r1, r1, #-2147483648	; 0x80000000
 c107234:	d8bd4070 	pople	{r4, r5, r6, lr}
 c107238:	d12fff1e 	bxle	lr
 c10723c:	e2644000 	rsb	r4, r4, #0
 c107240:	e2544020 	subs	r4, r4, #32
 c107244:	aa00001a 	bge	c1072b4 <__aeabi_dmul+0x17c>
 c107248:	e294400c 	adds	r4, r4, #12
 c10724c:	ca00000c 	bgt	c107284 <__aeabi_dmul+0x14c>
 c107250:	e2844014 	add	r4, r4, #20
 c107254:	e2645020 	rsb	r5, r4, #32
 c107258:	e1a03510 	lsl	r3, r0, r5
 c10725c:	e1a00430 	lsr	r0, r0, r4
 c107260:	e1800511 	orr	r0, r0, r1, lsl r5
 c107264:	e2012102 	and	r2, r1, #-2147483648	; 0x80000000
 c107268:	e3c11102 	bic	r1, r1, #-2147483648	; 0x80000000
 c10726c:	e0900fa3 	adds	r0, r0, r3, lsr #31
 c107270:	e0a21431 	adc	r1, r2, r1, lsr r4
 c107274:	e19ee083 	orrs	lr, lr, r3, lsl #1
 c107278:	01c00fa3 	biceq	r0, r0, r3, lsr #31
 c10727c:	e8bd4070 	pop	{r4, r5, r6, lr}
 c107280:	e12fff1e 	bx	lr
 c107284:	e264400c 	rsb	r4, r4, #12
 c107288:	e2645020 	rsb	r5, r4, #32
 c10728c:	e1a03410 	lsl	r3, r0, r4
 c107290:	e1a00530 	lsr	r0, r0, r5
 c107294:	e1800411 	orr	r0, r0, r1, lsl r4
 c107298:	e2011102 	and	r1, r1, #-2147483648	; 0x80000000
 c10729c:	e0900fa3 	adds	r0, r0, r3, lsr #31
 c1072a0:	e2a11000 	adc	r1, r1, #0
 c1072a4:	e19ee083 	orrs	lr, lr, r3, lsl #1
 c1072a8:	01c00fa3 	biceq	r0, r0, r3, lsr #31
 c1072ac:	e8bd4070 	pop	{r4, r5, r6, lr}
 c1072b0:	e12fff1e 	bx	lr
 c1072b4:	e2645020 	rsb	r5, r4, #32
 c1072b8:	e18ee510 	orr	lr, lr, r0, lsl r5
 c1072bc:	e1a03430 	lsr	r3, r0, r4
 c1072c0:	e1833511 	orr	r3, r3, r1, lsl r5
 c1072c4:	e1a00431 	lsr	r0, r1, r4
 c1072c8:	e2011102 	and	r1, r1, #-2147483648	; 0x80000000
 c1072cc:	e1c00431 	bic	r0, r0, r1, lsr r4
 c1072d0:	e0800fa3 	add	r0, r0, r3, lsr #31
 c1072d4:	e19ee083 	orrs	lr, lr, r3, lsl #1
 c1072d8:	01c00fa3 	biceq	r0, r0, r3, lsr #31
 c1072dc:	e8bd4070 	pop	{r4, r5, r6, lr}
 c1072e0:	e12fff1e 	bx	lr
 c1072e4:	e3340000 	teq	r4, #0
 c1072e8:	1a000008 	bne	c107310 <__aeabi_dmul+0x1d8>
 c1072ec:	e2016102 	and	r6, r1, #-2147483648	; 0x80000000
 c1072f0:	e1b00080 	lsls	r0, r0, #1
 c1072f4:	e0a11001 	adc	r1, r1, r1
 c1072f8:	e3110601 	tst	r1, #1048576	; 0x100000
 c1072fc:	02444001 	subeq	r4, r4, #1
 c107300:	0afffffa 	beq	c1072f0 <__aeabi_dmul+0x1b8>
 c107304:	e1811006 	orr	r1, r1, r6
 c107308:	e3350000 	teq	r5, #0
 c10730c:	112fff1e 	bxne	lr
 c107310:	e2036102 	and	r6, r3, #-2147483648	; 0x80000000
 c107314:	e1b02082 	lsls	r2, r2, #1
 c107318:	e0a33003 	adc	r3, r3, r3
 c10731c:	e3130601 	tst	r3, #1048576	; 0x100000
 c107320:	02455001 	subeq	r5, r5, #1
 c107324:	0afffffa 	beq	c107314 <__aeabi_dmul+0x1dc>
 c107328:	e1833006 	orr	r3, r3, r6
 c10732c:	e12fff1e 	bx	lr
 c107330:	e134000c 	teq	r4, ip
 c107334:	e00c5a23 	and	r5, ip, r3, lsr #20
 c107338:	1135000c 	teqne	r5, ip
 c10733c:	0a000007 	beq	c107360 <__aeabi_dmul+0x228>
 c107340:	e1906081 	orrs	r6, r0, r1, lsl #1
 c107344:	11926083 	orrsne	r6, r2, r3, lsl #1
 c107348:	1affffe5 	bne	c1072e4 <__aeabi_dmul+0x1ac>
 c10734c:	e0211003 	eor	r1, r1, r3
 c107350:	e2011102 	and	r1, r1, #-2147483648	; 0x80000000
 c107354:	e3a00000 	mov	r0, #0
 c107358:	e8bd4070 	pop	{r4, r5, r6, lr}
 c10735c:	e12fff1e 	bx	lr
 c107360:	e1906081 	orrs	r6, r0, r1, lsl #1
 c107364:	01a00002 	moveq	r0, r2
 c107368:	01a01003 	moveq	r1, r3
 c10736c:	11926083 	orrsne	r6, r2, r3, lsl #1
 c107370:	0a000010 	beq	c1073b8 <__aeabi_dmul+0x280>
 c107374:	e134000c 	teq	r4, ip
 c107378:	1a000001 	bne	c107384 <__aeabi_dmul+0x24c>
 c10737c:	e1906601 	orrs	r6, r0, r1, lsl #12
 c107380:	1a00000c 	bne	c1073b8 <__aeabi_dmul+0x280>
 c107384:	e135000c 	teq	r5, ip
 c107388:	1a000003 	bne	c10739c <__aeabi_dmul+0x264>
 c10738c:	e1926603 	orrs	r6, r2, r3, lsl #12
 c107390:	11a00002 	movne	r0, r2
 c107394:	11a01003 	movne	r1, r3
 c107398:	1a000006 	bne	c1073b8 <__aeabi_dmul+0x280>
 c10739c:	e0211003 	eor	r1, r1, r3
 c1073a0:	e2011102 	and	r1, r1, #-2147483648	; 0x80000000
 c1073a4:	e381147f 	orr	r1, r1, #2130706432	; 0x7f000000
 c1073a8:	e381160f 	orr	r1, r1, #15728640	; 0xf00000
 c1073ac:	e3a00000 	mov	r0, #0
 c1073b0:	e8bd4070 	pop	{r4, r5, r6, lr}
 c1073b4:	e12fff1e 	bx	lr
 c1073b8:	e381147f 	orr	r1, r1, #2130706432	; 0x7f000000
 c1073bc:	e381173e 	orr	r1, r1, #16252928	; 0xf80000
 c1073c0:	e8bd4070 	pop	{r4, r5, r6, lr}
 c1073c4:	e12fff1e 	bx	lr

0c1073c8 <__aeabi_ddiv>:
 c1073c8:	e92d4070 	push	{r4, r5, r6, lr}
 c1073cc:	e3a0c0ff 	mov	ip, #255	; 0xff
 c1073d0:	e38ccc07 	orr	ip, ip, #1792	; 0x700
 c1073d4:	e01c4a21 	ands	r4, ip, r1, lsr #20
 c1073d8:	101c5a23 	andsne	r5, ip, r3, lsr #20
 c1073dc:	1134000c 	teqne	r4, ip
 c1073e0:	1135000c 	teqne	r5, ip
 c1073e4:	0b00005e 	bleq	c107564 <__aeabi_ddiv+0x19c>
 c1073e8:	e0444005 	sub	r4, r4, r5
 c1073ec:	e021e003 	eor	lr, r1, r3
 c1073f0:	e1925603 	orrs	r5, r2, r3, lsl #12
 c1073f4:	e1a01601 	lsl	r1, r1, #12
 c1073f8:	0a00004c 	beq	c107530 <__aeabi_ddiv+0x168>
 c1073fc:	e1a03603 	lsl	r3, r3, #12
 c107400:	e3a05201 	mov	r5, #268435456	; 0x10000000
 c107404:	e1853223 	orr	r3, r5, r3, lsr #4
 c107408:	e1833c22 	orr	r3, r3, r2, lsr #24
 c10740c:	e1a02402 	lsl	r2, r2, #8
 c107410:	e1855221 	orr	r5, r5, r1, lsr #4
 c107414:	e1855c20 	orr	r5, r5, r0, lsr #24
 c107418:	e1a06400 	lsl	r6, r0, #8
 c10741c:	e20e1102 	and	r1, lr, #-2147483648	; 0x80000000
 c107420:	e1550003 	cmp	r5, r3
 c107424:	01560002 	cmpeq	r6, r2
 c107428:	e2a440fd 	adc	r4, r4, #253	; 0xfd
 c10742c:	e2844c03 	add	r4, r4, #768	; 0x300
 c107430:	2a000001 	bcs	c10743c <__aeabi_ddiv+0x74>
 c107434:	e1b030a3 	lsrs	r3, r3, #1
 c107438:	e1a02062 	rrx	r2, r2
 c10743c:	e0566002 	subs	r6, r6, r2
 c107440:	e0c55003 	sbc	r5, r5, r3
 c107444:	e1b030a3 	lsrs	r3, r3, #1
 c107448:	e1a02062 	rrx	r2, r2
 c10744c:	e3a00601 	mov	r0, #1048576	; 0x100000
 c107450:	e3a0c702 	mov	ip, #524288	; 0x80000
 c107454:	e056e002 	subs	lr, r6, r2
 c107458:	e0d5e003 	sbcs	lr, r5, r3
 c10745c:	20466002 	subcs	r6, r6, r2
 c107460:	21a0500e 	movcs	r5, lr
 c107464:	2180000c 	orrcs	r0, r0, ip
 c107468:	e1b030a3 	lsrs	r3, r3, #1
 c10746c:	e1a02062 	rrx	r2, r2
 c107470:	e056e002 	subs	lr, r6, r2
 c107474:	e0d5e003 	sbcs	lr, r5, r3
 c107478:	20466002 	subcs	r6, r6, r2
 c10747c:	21a0500e 	movcs	r5, lr
 c107480:	218000ac 	orrcs	r0, r0, ip, lsr #1
 c107484:	e1b030a3 	lsrs	r3, r3, #1
 c107488:	e1a02062 	rrx	r2, r2
 c10748c:	e056e002 	subs	lr, r6, r2
 c107490:	e0d5e003 	sbcs	lr, r5, r3
 c107494:	20466002 	subcs	r6, r6, r2
 c107498:	21a0500e 	movcs	r5, lr
 c10749c:	2180012c 	orrcs	r0, r0, ip, lsr #2
 c1074a0:	e1b030a3 	lsrs	r3, r3, #1
 c1074a4:	e1a02062 	rrx	r2, r2
 c1074a8:	e056e002 	subs	lr, r6, r2
 c1074ac:	e0d5e003 	sbcs	lr, r5, r3
 c1074b0:	20466002 	subcs	r6, r6, r2
 c1074b4:	21a0500e 	movcs	r5, lr
 c1074b8:	218001ac 	orrcs	r0, r0, ip, lsr #3
 c1074bc:	e195e006 	orrs	lr, r5, r6
 c1074c0:	0a00000d 	beq	c1074fc <__aeabi_ddiv+0x134>
 c1074c4:	e1a05205 	lsl	r5, r5, #4
 c1074c8:	e1855e26 	orr	r5, r5, r6, lsr #28
 c1074cc:	e1a06206 	lsl	r6, r6, #4
 c1074d0:	e1a03183 	lsl	r3, r3, #3
 c1074d4:	e1833ea2 	orr	r3, r3, r2, lsr #29
 c1074d8:	e1a02182 	lsl	r2, r2, #3
 c1074dc:	e1b0c22c 	lsrs	ip, ip, #4
 c1074e0:	1affffdb 	bne	c107454 <__aeabi_ddiv+0x8c>
 c1074e4:	e3110601 	tst	r1, #1048576	; 0x100000
 c1074e8:	1a000006 	bne	c107508 <__aeabi_ddiv+0x140>
 c1074ec:	e1811000 	orr	r1, r1, r0
 c1074f0:	e3a00000 	mov	r0, #0
 c1074f4:	e3a0c102 	mov	ip, #-2147483648	; 0x80000000
 c1074f8:	eaffffd5 	b	c107454 <__aeabi_ddiv+0x8c>
 c1074fc:	e3110601 	tst	r1, #1048576	; 0x100000
 c107500:	01811000 	orreq	r1, r1, r0
 c107504:	03a00000 	moveq	r0, #0
 c107508:	e254c0fd 	subs	ip, r4, #253	; 0xfd
 c10750c:	835c0c07 	cmphi	ip, #1792	; 0x700
 c107510:	8affff43 	bhi	c107224 <__aeabi_dmul+0xec>
 c107514:	e055c003 	subs	ip, r5, r3
 c107518:	0056c002 	subseq	ip, r6, r2
 c10751c:	01b0c0a0 	lsrseq	ip, r0, #1
 c107520:	e2b00000 	adcs	r0, r0, #0
 c107524:	e0a11a04 	adc	r1, r1, r4, lsl #20
 c107528:	e8bd4070 	pop	{r4, r5, r6, lr}
 c10752c:	e12fff1e 	bx	lr
 c107530:	e20ee102 	and	lr, lr, #-2147483648	; 0x80000000
 c107534:	e18e1621 	orr	r1, lr, r1, lsr #12
 c107538:	e09440ac 	adds	r4, r4, ip, lsr #1
 c10753c:	c074500c 	rsbsgt	r5, r4, ip
 c107540:	c1811a04 	orrgt	r1, r1, r4, lsl #20
 c107544:	c8bd4070 	popgt	{r4, r5, r6, lr}
 c107548:	c12fff1e 	bxgt	lr
 c10754c:	e3811601 	orr	r1, r1, #1048576	; 0x100000
 c107550:	e3a0e000 	mov	lr, #0
 c107554:	e2544001 	subs	r4, r4, #1
 c107558:	eaffff31 	b	c107224 <__aeabi_dmul+0xec>
 c10755c:	e185e006 	orr	lr, r5, r6
 c107560:	eaffff2f 	b	c107224 <__aeabi_dmul+0xec>
 c107564:	e00c5a23 	and	r5, ip, r3, lsr #20
 c107568:	e134000c 	teq	r4, ip
 c10756c:	0135000c 	teqeq	r5, ip
 c107570:	0affff90 	beq	c1073b8 <__aeabi_dmul+0x280>
 c107574:	e134000c 	teq	r4, ip
 c107578:	1a000006 	bne	c107598 <__aeabi_ddiv+0x1d0>
 c10757c:	e1904601 	orrs	r4, r0, r1, lsl #12
 c107580:	1affff8c 	bne	c1073b8 <__aeabi_dmul+0x280>
 c107584:	e135000c 	teq	r5, ip
 c107588:	1affff83 	bne	c10739c <__aeabi_dmul+0x264>
 c10758c:	e1a00002 	mov	r0, r2
 c107590:	e1a01003 	mov	r1, r3
 c107594:	eaffff87 	b	c1073b8 <__aeabi_dmul+0x280>
 c107598:	e135000c 	teq	r5, ip
 c10759c:	1a000004 	bne	c1075b4 <__aeabi_ddiv+0x1ec>
 c1075a0:	e1925603 	orrs	r5, r2, r3, lsl #12
 c1075a4:	0affff68 	beq	c10734c <__aeabi_dmul+0x214>
 c1075a8:	e1a00002 	mov	r0, r2
 c1075ac:	e1a01003 	mov	r1, r3
 c1075b0:	eaffff80 	b	c1073b8 <__aeabi_dmul+0x280>
 c1075b4:	e1906081 	orrs	r6, r0, r1, lsl #1
 c1075b8:	11926083 	orrsne	r6, r2, r3, lsl #1
 c1075bc:	1affff48 	bne	c1072e4 <__aeabi_dmul+0x1ac>
 c1075c0:	e1904081 	orrs	r4, r0, r1, lsl #1
 c1075c4:	1affff74 	bne	c10739c <__aeabi_dmul+0x264>
 c1075c8:	e1925083 	orrs	r5, r2, r3, lsl #1
 c1075cc:	1affff5e 	bne	c10734c <__aeabi_dmul+0x214>
 c1075d0:	eaffff78 	b	c1073b8 <__aeabi_dmul+0x280>

0c1075d4 <__aeabi_d2iz>:
 c1075d4:	e1a02081 	lsl	r2, r1, #1
 c1075d8:	e2922602 	adds	r2, r2, #2097152	; 0x200000
 c1075dc:	2a00000c 	bcs	c107614 <__aeabi_d2iz+0x40>
 c1075e0:	5a000009 	bpl	c10760c <__aeabi_d2iz+0x38>
 c1075e4:	e3e03e3e 	mvn	r3, #992	; 0x3e0
 c1075e8:	e0532ac2 	subs	r2, r3, r2, asr #21
 c1075ec:	9a00000a 	bls	c10761c <__aeabi_d2iz+0x48>
 c1075f0:	e1a03581 	lsl	r3, r1, #11
 c1075f4:	e3833102 	orr	r3, r3, #-2147483648	; 0x80000000
 c1075f8:	e1833aa0 	orr	r3, r3, r0, lsr #21
 c1075fc:	e3110102 	tst	r1, #-2147483648	; 0x80000000
 c107600:	e1a00233 	lsr	r0, r3, r2
 c107604:	12600000 	rsbne	r0, r0, #0
 c107608:	e12fff1e 	bx	lr
 c10760c:	e3a00000 	mov	r0, #0
 c107610:	e12fff1e 	bx	lr
 c107614:	e1900601 	orrs	r0, r0, r1, lsl #12
 c107618:	1a000002 	bne	c107628 <__aeabi_d2iz+0x54>
 c10761c:	e2110102 	ands	r0, r1, #-2147483648	; 0x80000000
 c107620:	03e00102 	mvneq	r0, #-2147483648	; 0x80000000
 c107624:	e12fff1e 	bx	lr
 c107628:	e3a00000 	mov	r0, #0
 c10762c:	e12fff1e 	bx	lr

0c107630 <__aeabi_frsub>:
 c107630:	e2200102 	eor	r0, r0, #-2147483648	; 0x80000000
 c107634:	ea000000 	b	c10763c <__addsf3>

0c107638 <__aeabi_fsub>:
 c107638:	e2211102 	eor	r1, r1, #-2147483648	; 0x80000000

0c10763c <__addsf3>:
 c10763c:	e1b02080 	lsls	r2, r0, #1
 c107640:	11b03081 	lslsne	r3, r1, #1
 c107644:	11320003 	teqne	r2, r3
 c107648:	11f0cc42 	mvnsne	ip, r2, asr #24
 c10764c:	11f0cc43 	mvnsne	ip, r3, asr #24
 c107650:	0a000047 	beq	c107774 <__addsf3+0x138>
 c107654:	e1a02c22 	lsr	r2, r2, #24
 c107658:	e0723c23 	rsbs	r3, r2, r3, lsr #24
 c10765c:	c0822003 	addgt	r2, r2, r3
 c107660:	c0201001 	eorgt	r1, r0, r1
 c107664:	c0210000 	eorgt	r0, r1, r0
 c107668:	c0201001 	eorgt	r1, r0, r1
 c10766c:	b2633000 	rsblt	r3, r3, #0
 c107670:	e3530019 	cmp	r3, #25
 c107674:	812fff1e 	bxhi	lr
 c107678:	e3100102 	tst	r0, #-2147483648	; 0x80000000
 c10767c:	e3800502 	orr	r0, r0, #8388608	; 0x800000
 c107680:	e3c004ff 	bic	r0, r0, #-16777216	; 0xff000000
 c107684:	12600000 	rsbne	r0, r0, #0
 c107688:	e3110102 	tst	r1, #-2147483648	; 0x80000000
 c10768c:	e3811502 	orr	r1, r1, #8388608	; 0x800000
 c107690:	e3c114ff 	bic	r1, r1, #-16777216	; 0xff000000
 c107694:	12611000 	rsbne	r1, r1, #0
 c107698:	e1320003 	teq	r2, r3
 c10769c:	0a00002e 	beq	c10775c <__addsf3+0x120>
 c1076a0:	e2422001 	sub	r2, r2, #1
 c1076a4:	e0900351 	adds	r0, r0, r1, asr r3
 c1076a8:	e2633020 	rsb	r3, r3, #32
 c1076ac:	e1a01311 	lsl	r1, r1, r3
 c1076b0:	e2003102 	and	r3, r0, #-2147483648	; 0x80000000
 c1076b4:	5a000001 	bpl	c1076c0 <__addsf3+0x84>
 c1076b8:	e2711000 	rsbs	r1, r1, #0
 c1076bc:	e2e00000 	rsc	r0, r0, #0
 c1076c0:	e3500502 	cmp	r0, #8388608	; 0x800000
 c1076c4:	3a00000b 	bcc	c1076f8 <__addsf3+0xbc>
 c1076c8:	e3500401 	cmp	r0, #16777216	; 0x1000000
 c1076cc:	3a000004 	bcc	c1076e4 <__addsf3+0xa8>
 c1076d0:	e1b000a0 	lsrs	r0, r0, #1
 c1076d4:	e1a01061 	rrx	r1, r1
 c1076d8:	e2822001 	add	r2, r2, #1
 c1076dc:	e35200fe 	cmp	r2, #254	; 0xfe
 c1076e0:	2a000038 	bcs	c1077c8 <__addsf3+0x18c>
 c1076e4:	e3510102 	cmp	r1, #-2147483648	; 0x80000000
 c1076e8:	e0a00b82 	adc	r0, r0, r2, lsl #23
 c1076ec:	03c00001 	biceq	r0, r0, #1
 c1076f0:	e1800003 	orr	r0, r0, r3
 c1076f4:	e12fff1e 	bx	lr
 c1076f8:	e1b01081 	lsls	r1, r1, #1
 c1076fc:	e0a00000 	adc	r0, r0, r0
 c107700:	e3100502 	tst	r0, #8388608	; 0x800000
 c107704:	e2422001 	sub	r2, r2, #1
 c107708:	1afffff5 	bne	c1076e4 <__addsf3+0xa8>
 c10770c:	e1b0c620 	lsrs	ip, r0, #12
 c107710:	01a00600 	lsleq	r0, r0, #12
 c107714:	0242200c 	subeq	r2, r2, #12
 c107718:	e31008ff 	tst	r0, #16711680	; 0xff0000
 c10771c:	01a00400 	lsleq	r0, r0, #8
 c107720:	02422008 	subeq	r2, r2, #8
 c107724:	e310060f 	tst	r0, #15728640	; 0xf00000
 c107728:	01a00200 	lsleq	r0, r0, #4
 c10772c:	02422004 	subeq	r2, r2, #4
 c107730:	e3100503 	tst	r0, #12582912	; 0xc00000
 c107734:	01a00100 	lsleq	r0, r0, #2
 c107738:	02422002 	subeq	r2, r2, #2
 c10773c:	e3500502 	cmp	r0, #8388608	; 0x800000
 c107740:	31a00080 	lslcc	r0, r0, #1
 c107744:	e2d22000 	sbcs	r2, r2, #0
 c107748:	a0800b82 	addge	r0, r0, r2, lsl #23
 c10774c:	b2622000 	rsblt	r2, r2, #0
 c107750:	a1800003 	orrge	r0, r0, r3
 c107754:	b1830230 	orrlt	r0, r3, r0, lsr r2
 c107758:	e12fff1e 	bx	lr
 c10775c:	e3320000 	teq	r2, #0
 c107760:	e2211502 	eor	r1, r1, #8388608	; 0x800000
 c107764:	02200502 	eoreq	r0, r0, #8388608	; 0x800000
 c107768:	02822001 	addeq	r2, r2, #1
 c10776c:	12433001 	subne	r3, r3, #1
 c107770:	eaffffca 	b	c1076a0 <__addsf3+0x64>
 c107774:	e1a03081 	lsl	r3, r1, #1
 c107778:	e1f0cc42 	mvns	ip, r2, asr #24
 c10777c:	11f0cc43 	mvnsne	ip, r3, asr #24
 c107780:	0a000013 	beq	c1077d4 <__addsf3+0x198>
 c107784:	e1320003 	teq	r2, r3
 c107788:	0a000002 	beq	c107798 <__addsf3+0x15c>
 c10778c:	e3320000 	teq	r2, #0
 c107790:	01a00001 	moveq	r0, r1
 c107794:	e12fff1e 	bx	lr
 c107798:	e1300001 	teq	r0, r1
 c10779c:	13a00000 	movne	r0, #0
 c1077a0:	112fff1e 	bxne	lr
 c1077a4:	e31204ff 	tst	r2, #-16777216	; 0xff000000
 c1077a8:	1a000002 	bne	c1077b8 <__addsf3+0x17c>
 c1077ac:	e1b00080 	lsls	r0, r0, #1
 c1077b0:	23800102 	orrcs	r0, r0, #-2147483648	; 0x80000000
 c1077b4:	e12fff1e 	bx	lr
 c1077b8:	e2922402 	adds	r2, r2, #33554432	; 0x2000000
 c1077bc:	32800502 	addcc	r0, r0, #8388608	; 0x800000
 c1077c0:	312fff1e 	bxcc	lr
 c1077c4:	e2003102 	and	r3, r0, #-2147483648	; 0x80000000
 c1077c8:	e383047f 	orr	r0, r3, #2130706432	; 0x7f000000
 c1077cc:	e3800502 	orr	r0, r0, #8388608	; 0x800000
 c1077d0:	e12fff1e 	bx	lr
 c1077d4:	e1f02c42 	mvns	r2, r2, asr #24
 c1077d8:	11a00001 	movne	r0, r1
 c1077dc:	01f03c43 	mvnseq	r3, r3, asr #24
 c1077e0:	11a01000 	movne	r1, r0
 c1077e4:	e1b02480 	lsls	r2, r0, #9
 c1077e8:	01b03481 	lslseq	r3, r1, #9
 c1077ec:	01300001 	teqeq	r0, r1
 c1077f0:	13800501 	orrne	r0, r0, #4194304	; 0x400000
 c1077f4:	e12fff1e 	bx	lr

0c1077f8 <__aeabi_ui2f>:
 c1077f8:	e3a03000 	mov	r3, #0
 c1077fc:	ea000001 	b	c107808 <__aeabi_i2f+0x8>

0c107800 <__aeabi_i2f>:
 c107800:	e2103102 	ands	r3, r0, #-2147483648	; 0x80000000
 c107804:	42600000 	rsbmi	r0, r0, #0
 c107808:	e1b0c000 	movs	ip, r0
 c10780c:	012fff1e 	bxeq	lr
 c107810:	e383344b 	orr	r3, r3, #1258291200	; 0x4b000000
 c107814:	e1a01000 	mov	r1, r0
 c107818:	e3a00000 	mov	r0, #0
 c10781c:	ea00000f 	b	c107860 <__aeabi_l2f+0x30>

0c107820 <__aeabi_ul2f>:
 c107820:	e1902001 	orrs	r2, r0, r1
 c107824:	012fff1e 	bxeq	lr
 c107828:	e3a03000 	mov	r3, #0
 c10782c:	ea000005 	b	c107848 <__aeabi_l2f+0x18>

0c107830 <__aeabi_l2f>:
 c107830:	e1902001 	orrs	r2, r0, r1
 c107834:	012fff1e 	bxeq	lr
 c107838:	e2113102 	ands	r3, r1, #-2147483648	; 0x80000000
 c10783c:	5a000001 	bpl	c107848 <__aeabi_l2f+0x18>
 c107840:	e2700000 	rsbs	r0, r0, #0
 c107844:	e2e11000 	rsc	r1, r1, #0
 c107848:	e1b0c001 	movs	ip, r1
 c10784c:	01a0c000 	moveq	ip, r0
 c107850:	01a01000 	moveq	r1, r0
 c107854:	03a00000 	moveq	r0, #0
 c107858:	e383345b 	orr	r3, r3, #1526726656	; 0x5b000000
 c10785c:	02433201 	subeq	r3, r3, #268435456	; 0x10000000
 c107860:	e2433502 	sub	r3, r3, #8388608	; 0x800000
 c107864:	e3a02017 	mov	r2, #23
 c107868:	e35c0801 	cmp	ip, #65536	; 0x10000
 c10786c:	21a0c82c 	lsrcs	ip, ip, #16
 c107870:	22422010 	subcs	r2, r2, #16
 c107874:	e35c0c01 	cmp	ip, #256	; 0x100
 c107878:	21a0c42c 	lsrcs	ip, ip, #8
 c10787c:	22422008 	subcs	r2, r2, #8
 c107880:	e35c0010 	cmp	ip, #16
 c107884:	21a0c22c 	lsrcs	ip, ip, #4
 c107888:	22422004 	subcs	r2, r2, #4
 c10788c:	e35c0004 	cmp	ip, #4
 c107890:	22422002 	subcs	r2, r2, #2
 c107894:	304220ac 	subcc	r2, r2, ip, lsr #1
 c107898:	e05221ac 	subs	r2, r2, ip, lsr #3
 c10789c:	e0433b82 	sub	r3, r3, r2, lsl #23
 c1078a0:	ba000006 	blt	c1078c0 <__aeabi_l2f+0x90>
 c1078a4:	e0833211 	add	r3, r3, r1, lsl r2
 c1078a8:	e1a0c210 	lsl	ip, r0, r2
 c1078ac:	e2622020 	rsb	r2, r2, #32
 c1078b0:	e35c0102 	cmp	ip, #-2147483648	; 0x80000000
 c1078b4:	e0a30230 	adc	r0, r3, r0, lsr r2
 c1078b8:	03c00001 	biceq	r0, r0, #1
 c1078bc:	e12fff1e 	bx	lr
 c1078c0:	e2822020 	add	r2, r2, #32
 c1078c4:	e1a0c211 	lsl	ip, r1, r2
 c1078c8:	e2622020 	rsb	r2, r2, #32
 c1078cc:	e190008c 	orrs	r0, r0, ip, lsl #1
 c1078d0:	e0a30231 	adc	r0, r3, r1, lsr r2
 c1078d4:	01c00fac 	biceq	r0, r0, ip, lsr #31
 c1078d8:	e12fff1e 	bx	lr

0c1078dc <__aeabi_fmul>:
 c1078dc:	e3a0c0ff 	mov	ip, #255	; 0xff
 c1078e0:	e01c2ba0 	ands	r2, ip, r0, lsr #23
 c1078e4:	101c3ba1 	andsne	r3, ip, r1, lsr #23
 c1078e8:	1132000c 	teqne	r2, ip
 c1078ec:	1133000c 	teqne	r3, ip
 c1078f0:	0a00003e 	beq	c1079f0 <__aeabi_fmul+0x114>
 c1078f4:	e0822003 	add	r2, r2, r3
 c1078f8:	e020c001 	eor	ip, r0, r1
 c1078fc:	e1b00480 	lsls	r0, r0, #9
 c107900:	11b01481 	lslsne	r1, r1, #9
 c107904:	0a000010 	beq	c10794c <__aeabi_fmul+0x70>
 c107908:	e3a03302 	mov	r3, #134217728	; 0x8000000
 c10790c:	e18302a0 	orr	r0, r3, r0, lsr #5
 c107910:	e18312a1 	orr	r1, r3, r1, lsr #5
 c107914:	e0813190 	umull	r3, r1, r0, r1
 c107918:	e20c0102 	and	r0, ip, #-2147483648	; 0x80000000
 c10791c:	e3510502 	cmp	r1, #8388608	; 0x800000
 c107920:	31a01081 	lslcc	r1, r1, #1
 c107924:	31811fa3 	orrcc	r1, r1, r3, lsr #31
 c107928:	31a03083 	lslcc	r3, r3, #1
 c10792c:	e1800001 	orr	r0, r0, r1
 c107930:	e2c2207f 	sbc	r2, r2, #127	; 0x7f
 c107934:	e35200fd 	cmp	r2, #253	; 0xfd
 c107938:	8a00000f 	bhi	c10797c <__aeabi_fmul+0xa0>
 c10793c:	e3530102 	cmp	r3, #-2147483648	; 0x80000000
 c107940:	e0a00b82 	adc	r0, r0, r2, lsl #23
 c107944:	03c00001 	biceq	r0, r0, #1
 c107948:	e12fff1e 	bx	lr
 c10794c:	e3300000 	teq	r0, #0
 c107950:	e20cc102 	and	ip, ip, #-2147483648	; 0x80000000
 c107954:	01a01481 	lsleq	r1, r1, #9
 c107958:	e18c04a0 	orr	r0, ip, r0, lsr #9
 c10795c:	e18004a1 	orr	r0, r0, r1, lsr #9
 c107960:	e252207f 	subs	r2, r2, #127	; 0x7f
 c107964:	c27230ff 	rsbsgt	r3, r2, #255	; 0xff
 c107968:	c1800b82 	orrgt	r0, r0, r2, lsl #23
 c10796c:	c12fff1e 	bxgt	lr
 c107970:	e3800502 	orr	r0, r0, #8388608	; 0x800000
 c107974:	e3a03000 	mov	r3, #0
 c107978:	e2522001 	subs	r2, r2, #1
 c10797c:	ca000035 	bgt	c107a58 <__aeabi_fmul+0x17c>
 c107980:	e3720019 	cmn	r2, #25
 c107984:	d2000102 	andle	r0, r0, #-2147483648	; 0x80000000
 c107988:	d12fff1e 	bxle	lr
 c10798c:	e2622000 	rsb	r2, r2, #0
 c107990:	e1b01080 	lsls	r1, r0, #1
 c107994:	e1a01231 	lsr	r1, r1, r2
 c107998:	e2622020 	rsb	r2, r2, #32
 c10799c:	e1a0c210 	lsl	ip, r0, r2
 c1079a0:	e1b00061 	rrxs	r0, r1
 c1079a4:	e2a00000 	adc	r0, r0, #0
 c1079a8:	e193308c 	orrs	r3, r3, ip, lsl #1
 c1079ac:	01c00fac 	biceq	r0, r0, ip, lsr #31
 c1079b0:	e12fff1e 	bx	lr
 c1079b4:	e3320000 	teq	r2, #0
 c1079b8:	e200c102 	and	ip, r0, #-2147483648	; 0x80000000
 c1079bc:	01a00080 	lsleq	r0, r0, #1
 c1079c0:	03100502 	tsteq	r0, #8388608	; 0x800000
 c1079c4:	02422001 	subeq	r2, r2, #1
 c1079c8:	0afffffb 	beq	c1079bc <__aeabi_fmul+0xe0>
 c1079cc:	e180000c 	orr	r0, r0, ip
 c1079d0:	e3330000 	teq	r3, #0
 c1079d4:	e201c102 	and	ip, r1, #-2147483648	; 0x80000000
 c1079d8:	01a01081 	lsleq	r1, r1, #1
 c1079dc:	03110502 	tsteq	r1, #8388608	; 0x800000
 c1079e0:	02433001 	subeq	r3, r3, #1
 c1079e4:	0afffffb 	beq	c1079d8 <__aeabi_fmul+0xfc>
 c1079e8:	e181100c 	orr	r1, r1, ip
 c1079ec:	eaffffc0 	b	c1078f4 <__aeabi_fmul+0x18>
 c1079f0:	e00c3ba1 	and	r3, ip, r1, lsr #23
 c1079f4:	e132000c 	teq	r2, ip
 c1079f8:	1133000c 	teqne	r3, ip
 c1079fc:	0a000005 	beq	c107a18 <__aeabi_fmul+0x13c>
 c107a00:	e3d0c102 	bics	ip, r0, #-2147483648	; 0x80000000
 c107a04:	13d1c102 	bicsne	ip, r1, #-2147483648	; 0x80000000
 c107a08:	1affffe9 	bne	c1079b4 <__aeabi_fmul+0xd8>
 c107a0c:	e0200001 	eor	r0, r0, r1
 c107a10:	e2000102 	and	r0, r0, #-2147483648	; 0x80000000
 c107a14:	e12fff1e 	bx	lr
 c107a18:	e3300000 	teq	r0, #0
 c107a1c:	13300102 	teqne	r0, #-2147483648	; 0x80000000
 c107a20:	01a00001 	moveq	r0, r1
 c107a24:	13310000 	teqne	r1, #0
 c107a28:	13310102 	teqne	r1, #-2147483648	; 0x80000000
 c107a2c:	0a00000d 	beq	c107a68 <__aeabi_fmul+0x18c>
 c107a30:	e132000c 	teq	r2, ip
 c107a34:	1a000001 	bne	c107a40 <__aeabi_fmul+0x164>
 c107a38:	e1b02480 	lsls	r2, r0, #9
 c107a3c:	1a000009 	bne	c107a68 <__aeabi_fmul+0x18c>
 c107a40:	e133000c 	teq	r3, ip
 c107a44:	1a000002 	bne	c107a54 <__aeabi_fmul+0x178>
 c107a48:	e1b03481 	lsls	r3, r1, #9
 c107a4c:	11a00001 	movne	r0, r1
 c107a50:	1a000004 	bne	c107a68 <__aeabi_fmul+0x18c>
 c107a54:	e0200001 	eor	r0, r0, r1
 c107a58:	e2000102 	and	r0, r0, #-2147483648	; 0x80000000
 c107a5c:	e380047f 	orr	r0, r0, #2130706432	; 0x7f000000
 c107a60:	e3800502 	orr	r0, r0, #8388608	; 0x800000
 c107a64:	e12fff1e 	bx	lr
 c107a68:	e380047f 	orr	r0, r0, #2130706432	; 0x7f000000
 c107a6c:	e3800503 	orr	r0, r0, #12582912	; 0xc00000
 c107a70:	e12fff1e 	bx	lr

0c107a74 <__aeabi_fdiv>:
 c107a74:	e3a0c0ff 	mov	ip, #255	; 0xff
 c107a78:	e01c2ba0 	ands	r2, ip, r0, lsr #23
 c107a7c:	101c3ba1 	andsne	r3, ip, r1, lsr #23
 c107a80:	1132000c 	teqne	r2, ip
 c107a84:	1133000c 	teqne	r3, ip
 c107a88:	0a00003a 	beq	c107b78 <__aeabi_fdiv+0x104>
 c107a8c:	e0422003 	sub	r2, r2, r3
 c107a90:	e020c001 	eor	ip, r0, r1
 c107a94:	e1b01481 	lsls	r1, r1, #9
 c107a98:	e1a00480 	lsl	r0, r0, #9
 c107a9c:	0a00001c 	beq	c107b14 <__aeabi_fdiv+0xa0>
 c107aa0:	e3a03201 	mov	r3, #268435456	; 0x10000000
 c107aa4:	e1831221 	orr	r1, r3, r1, lsr #4
 c107aa8:	e1833220 	orr	r3, r3, r0, lsr #4
 c107aac:	e20c0102 	and	r0, ip, #-2147483648	; 0x80000000
 c107ab0:	e1530001 	cmp	r3, r1
 c107ab4:	31a03083 	lslcc	r3, r3, #1
 c107ab8:	e2a2207d 	adc	r2, r2, #125	; 0x7d
 c107abc:	e3a0c502 	mov	ip, #8388608	; 0x800000
 c107ac0:	e1530001 	cmp	r3, r1
 c107ac4:	20433001 	subcs	r3, r3, r1
 c107ac8:	2180000c 	orrcs	r0, r0, ip
 c107acc:	e15300a1 	cmp	r3, r1, lsr #1
 c107ad0:	204330a1 	subcs	r3, r3, r1, lsr #1
 c107ad4:	218000ac 	orrcs	r0, r0, ip, lsr #1
 c107ad8:	e1530121 	cmp	r3, r1, lsr #2
 c107adc:	20433121 	subcs	r3, r3, r1, lsr #2
 c107ae0:	2180012c 	orrcs	r0, r0, ip, lsr #2
 c107ae4:	e15301a1 	cmp	r3, r1, lsr #3
 c107ae8:	204331a1 	subcs	r3, r3, r1, lsr #3
 c107aec:	218001ac 	orrcs	r0, r0, ip, lsr #3
 c107af0:	e1b03203 	lsls	r3, r3, #4
 c107af4:	11b0c22c 	lsrsne	ip, ip, #4
 c107af8:	1afffff0 	bne	c107ac0 <__aeabi_fdiv+0x4c>
 c107afc:	e35200fd 	cmp	r2, #253	; 0xfd
 c107b00:	8affff9d 	bhi	c10797c <__aeabi_fmul+0xa0>
 c107b04:	e1530001 	cmp	r3, r1
 c107b08:	e0a00b82 	adc	r0, r0, r2, lsl #23
 c107b0c:	03c00001 	biceq	r0, r0, #1
 c107b10:	e12fff1e 	bx	lr
 c107b14:	e20cc102 	and	ip, ip, #-2147483648	; 0x80000000
 c107b18:	e18c04a0 	orr	r0, ip, r0, lsr #9
 c107b1c:	e292207f 	adds	r2, r2, #127	; 0x7f
 c107b20:	c27230ff 	rsbsgt	r3, r2, #255	; 0xff
 c107b24:	c1800b82 	orrgt	r0, r0, r2, lsl #23
 c107b28:	c12fff1e 	bxgt	lr
 c107b2c:	e3800502 	orr	r0, r0, #8388608	; 0x800000
 c107b30:	e3a03000 	mov	r3, #0
 c107b34:	e2522001 	subs	r2, r2, #1
 c107b38:	eaffff8f 	b	c10797c <__aeabi_fmul+0xa0>
 c107b3c:	e3320000 	teq	r2, #0
 c107b40:	e200c102 	and	ip, r0, #-2147483648	; 0x80000000
 c107b44:	01a00080 	lsleq	r0, r0, #1
 c107b48:	03100502 	tsteq	r0, #8388608	; 0x800000
 c107b4c:	02422001 	subeq	r2, r2, #1
 c107b50:	0afffffb 	beq	c107b44 <__aeabi_fdiv+0xd0>
 c107b54:	e180000c 	orr	r0, r0, ip
 c107b58:	e3330000 	teq	r3, #0
 c107b5c:	e201c102 	and	ip, r1, #-2147483648	; 0x80000000
 c107b60:	01a01081 	lsleq	r1, r1, #1
 c107b64:	03110502 	tsteq	r1, #8388608	; 0x800000
 c107b68:	02433001 	subeq	r3, r3, #1
 c107b6c:	0afffffb 	beq	c107b60 <__aeabi_fdiv+0xec>
 c107b70:	e181100c 	orr	r1, r1, ip
 c107b74:	eaffffc4 	b	c107a8c <__aeabi_fdiv+0x18>
 c107b78:	e00c3ba1 	and	r3, ip, r1, lsr #23
 c107b7c:	e132000c 	teq	r2, ip
 c107b80:	1a000005 	bne	c107b9c <__aeabi_fdiv+0x128>
 c107b84:	e1b02480 	lsls	r2, r0, #9
 c107b88:	1affffb6 	bne	c107a68 <__aeabi_fmul+0x18c>
 c107b8c:	e133000c 	teq	r3, ip
 c107b90:	1affffaf 	bne	c107a54 <__aeabi_fmul+0x178>
 c107b94:	e1a00001 	mov	r0, r1
 c107b98:	eaffffb2 	b	c107a68 <__aeabi_fmul+0x18c>
 c107b9c:	e133000c 	teq	r3, ip
 c107ba0:	1a000003 	bne	c107bb4 <__aeabi_fdiv+0x140>
 c107ba4:	e1b03481 	lsls	r3, r1, #9
 c107ba8:	0affff97 	beq	c107a0c <__aeabi_fmul+0x130>
 c107bac:	e1a00001 	mov	r0, r1
 c107bb0:	eaffffac 	b	c107a68 <__aeabi_fmul+0x18c>
 c107bb4:	e3d0c102 	bics	ip, r0, #-2147483648	; 0x80000000
 c107bb8:	13d1c102 	bicsne	ip, r1, #-2147483648	; 0x80000000
 c107bbc:	1affffde 	bne	c107b3c <__aeabi_fdiv+0xc8>
 c107bc0:	e3d02102 	bics	r2, r0, #-2147483648	; 0x80000000
 c107bc4:	1affffa2 	bne	c107a54 <__aeabi_fmul+0x178>
 c107bc8:	e3d13102 	bics	r3, r1, #-2147483648	; 0x80000000
 c107bcc:	1affff8e 	bne	c107a0c <__aeabi_fmul+0x130>
 c107bd0:	eaffffa4 	b	c107a68 <__aeabi_fmul+0x18c>

0c107bd4 <__aeabi_uldivmod>:
 c107bd4:	e3530000 	cmp	r3, #0
 c107bd8:	03520000 	cmpeq	r2, #0
 c107bdc:	1a000004 	bne	c107bf4 <__aeabi_uldivmod+0x20>
 c107be0:	e3510000 	cmp	r1, #0
 c107be4:	03500000 	cmpeq	r0, #0
 c107be8:	13e01000 	mvnne	r1, #0
 c107bec:	13e00000 	mvnne	r0, #0
 c107bf0:	eafffc48 	b	c106d18 <__aeabi_idiv0>
 c107bf4:	e24dd008 	sub	sp, sp, #8
 c107bf8:	e92d6000 	push	{sp, lr}
 c107bfc:	eb000013 	bl	c107c50 <__gnu_uldivmod_helper>
 c107c00:	e59de004 	ldr	lr, [sp, #4]
 c107c04:	e28dd008 	add	sp, sp, #8
 c107c08:	e8bd000c 	pop	{r2, r3}
 c107c0c:	e12fff1e 	bx	lr

0c107c10 <__gnu_ldivmod_helper>:
 c107c10:	e92d40f8 	push	{r3, r4, r5, r6, r7, lr}
 c107c14:	e1a04002 	mov	r4, r2
 c107c18:	e1a07003 	mov	r7, r3
 c107c1c:	e1a05000 	mov	r5, r0
 c107c20:	e1a06001 	mov	r6, r1
 c107c24:	eb000019 	bl	c107c90 <__divdi3>
 c107c28:	e0070790 	mul	r7, r0, r7
 c107c2c:	e0832490 	umull	r2, r3, r0, r4
 c107c30:	e0247491 	mla	r4, r1, r4, r7
 c107c34:	e0843003 	add	r3, r4, r3
 c107c38:	e0555002 	subs	r5, r5, r2
 c107c3c:	e0c66003 	sbc	r6, r6, r3
 c107c40:	e59d3018 	ldr	r3, [sp, #24]
 c107c44:	e8830060 	stm	r3, {r5, r6}
 c107c48:	e8bd40f8 	pop	{r3, r4, r5, r6, r7, lr}
 c107c4c:	e12fff1e 	bx	lr

0c107c50 <__gnu_uldivmod_helper>:
 c107c50:	e92d40f8 	push	{r3, r4, r5, r6, r7, lr}
 c107c54:	e1a04002 	mov	r4, r2
 c107c58:	e1a07003 	mov	r7, r3
 c107c5c:	e1a05000 	mov	r5, r0
 c107c60:	e1a06001 	mov	r6, r1
 c107c64:	eb000133 	bl	c108138 <__udivdi3>
 c107c68:	e0070790 	mul	r7, r0, r7
 c107c6c:	e0832490 	umull	r2, r3, r0, r4
 c107c70:	e0247491 	mla	r4, r1, r4, r7
 c107c74:	e0843003 	add	r3, r4, r3
 c107c78:	e0555002 	subs	r5, r5, r2
 c107c7c:	e0c66003 	sbc	r6, r6, r3
 c107c80:	e59d3018 	ldr	r3, [sp, #24]
 c107c84:	e8830060 	stm	r3, {r5, r6}
 c107c88:	e8bd40f8 	pop	{r3, r4, r5, r6, r7, lr}
 c107c8c:	e12fff1e 	bx	lr

0c107c90 <__divdi3>:
 c107c90:	e92d4ff0 	push	{r4, r5, r6, r7, r8, r9, sl, fp, lr}
 c107c94:	e3510000 	cmp	r1, #0
 c107c98:	e24dd014 	sub	sp, sp, #20
 c107c9c:	e1a0c003 	mov	ip, r3
 c107ca0:	a3a07000 	movge	r7, #0
 c107ca4:	ba000094 	blt	c107efc <__divdi3+0x26c>
 c107ca8:	e35c0000 	cmp	ip, #0
 c107cac:	ba00008e 	blt	c107eec <__divdi3+0x25c>
 c107cb0:	e253a000 	subs	sl, r3, #0
 c107cb4:	e1a0b000 	mov	fp, r0
 c107cb8:	e1a08001 	mov	r8, r1
 c107cbc:	e1a09002 	mov	r9, r2
 c107cc0:	e1a04002 	mov	r4, r2
 c107cc4:	e1a05000 	mov	r5, r0
 c107cc8:	e1a06001 	mov	r6, r1
 c107ccc:	1a00003e 	bne	c107dcc <__divdi3+0x13c>
 c107cd0:	e1520001 	cmp	r2, r1
 c107cd4:	9a00004c 	bls	c107e0c <__divdi3+0x17c>
 c107cd8:	e1a00002 	mov	r0, r2
 c107cdc:	eb000222 	bl	c10856c <__clzsi2>
 c107ce0:	e3500000 	cmp	r0, #0
 c107ce4:	12603020 	rsbne	r3, r0, #32
 c107ce8:	11a0333b 	lsrne	r3, fp, r3
 c107cec:	11a04019 	lslne	r4, r9, r0
 c107cf0:	11836018 	orrne	r6, r3, r8, lsl r0
 c107cf4:	e1a09824 	lsr	r9, r4, #16
 c107cf8:	11a0501b 	lslne	r5, fp, r0
 c107cfc:	e1a01009 	mov	r1, r9
 c107d00:	e1a00006 	mov	r0, r6
 c107d04:	ebfffbbe 	bl	c106c04 <__aeabi_uidiv>
 c107d08:	e1a01009 	mov	r1, r9
 c107d0c:	e1a0a000 	mov	sl, r0
 c107d10:	e1a00006 	mov	r0, r6
 c107d14:	ebfffbf7 	bl	c106cf8 <__aeabi_uidivmod>
 c107d18:	e1a08804 	lsl	r8, r4, #16
 c107d1c:	e1a08828 	lsr	r8, r8, #16
 c107d20:	e0030a98 	mul	r3, r8, sl
 c107d24:	e1a0b825 	lsr	fp, r5, #16
 c107d28:	e18bb801 	orr	fp, fp, r1, lsl #16
 c107d2c:	e153000b 	cmp	r3, fp
 c107d30:	9a000005 	bls	c107d4c <__divdi3+0xbc>
 c107d34:	e09bb004 	adds	fp, fp, r4
 c107d38:	e24aa001 	sub	sl, sl, #1
 c107d3c:	2a000002 	bcs	c107d4c <__divdi3+0xbc>
 c107d40:	e153000b 	cmp	r3, fp
 c107d44:	824aa001 	subhi	sl, sl, #1
 c107d48:	808bb004 	addhi	fp, fp, r4
 c107d4c:	e063b00b 	rsb	fp, r3, fp
 c107d50:	e1a01009 	mov	r1, r9
 c107d54:	e1a0000b 	mov	r0, fp
 c107d58:	ebfffba9 	bl	c106c04 <__aeabi_uidiv>
 c107d5c:	e1a01009 	mov	r1, r9
 c107d60:	e1a06000 	mov	r6, r0
 c107d64:	e1a0000b 	mov	r0, fp
 c107d68:	ebfffbe2 	bl	c106cf8 <__aeabi_uidivmod>
 c107d6c:	e0080896 	mul	r8, r6, r8
 c107d70:	e1a00805 	lsl	r0, r5, #16
 c107d74:	e1a05820 	lsr	r5, r0, #16
 c107d78:	e1855801 	orr	r5, r5, r1, lsl #16
 c107d7c:	e1580005 	cmp	r8, r5
 c107d80:	9a000004 	bls	c107d98 <__divdi3+0x108>
 c107d84:	e0955004 	adds	r5, r5, r4
 c107d88:	e2466001 	sub	r6, r6, #1
 c107d8c:	2a000001 	bcs	c107d98 <__divdi3+0x108>
 c107d90:	e1580005 	cmp	r8, r5
 c107d94:	82466001 	subhi	r6, r6, #1
 c107d98:	e186680a 	orr	r6, r6, sl, lsl #16
 c107d9c:	e3a09000 	mov	r9, #0
 c107da0:	e3570000 	cmp	r7, #0
 c107da4:	e1a03006 	mov	r3, r6
 c107da8:	e1a04009 	mov	r4, r9
 c107dac:	0a000001 	beq	c107db8 <__divdi3+0x128>
 c107db0:	e2733000 	rsbs	r3, r3, #0
 c107db4:	e2e44000 	rsc	r4, r4, #0
 c107db8:	e1a00003 	mov	r0, r3
 c107dbc:	e1a01004 	mov	r1, r4
 c107dc0:	e28dd014 	add	sp, sp, #20
 c107dc4:	e8bd4ff0 	pop	{r4, r5, r6, r7, r8, r9, sl, fp, lr}
 c107dc8:	e12fff1e 	bx	lr
 c107dcc:	e15a0001 	cmp	sl, r1
 c107dd0:	83a09000 	movhi	r9, #0
 c107dd4:	81a06009 	movhi	r6, r9
 c107dd8:	8afffff0 	bhi	c107da0 <__divdi3+0x110>
 c107ddc:	e1a00003 	mov	r0, r3
 c107de0:	eb0001e1 	bl	c10856c <__clzsi2>
 c107de4:	e2504000 	subs	r4, r0, #0
 c107de8:	1a00007a 	bne	c107fd8 <__divdi3+0x348>
 c107dec:	e15a0008 	cmp	sl, r8
 c107df0:	2159000b 	cmpcs	r9, fp
 c107df4:	83a09000 	movhi	r9, #0
 c107df8:	93a09001 	movls	r9, #1
 c107dfc:	93a06001 	movls	r6, #1
 c107e00:	91a09004 	movls	r9, r4
 c107e04:	81a06009 	movhi	r6, r9
 c107e08:	eaffffe4 	b	c107da0 <__divdi3+0x110>
 c107e0c:	e3520000 	cmp	r2, #0
 c107e10:	1a000003 	bne	c107e24 <__divdi3+0x194>
 c107e14:	e3a00001 	mov	r0, #1
 c107e18:	e1a01002 	mov	r1, r2
 c107e1c:	ebfffb78 	bl	c106c04 <__aeabi_uidiv>
 c107e20:	e1a04000 	mov	r4, r0
 c107e24:	e1a00004 	mov	r0, r4
 c107e28:	eb0001cf 	bl	c10856c <__clzsi2>
 c107e2c:	e2503000 	subs	r3, r0, #0
 c107e30:	1a000035 	bne	c107f0c <__divdi3+0x27c>
 c107e34:	e3a01001 	mov	r1, #1
 c107e38:	e1a09804 	lsl	r9, r4, #16
 c107e3c:	e58d1008 	str	r1, [sp, #8]
 c107e40:	e0646006 	rsb	r6, r4, r6
 c107e44:	e1a08824 	lsr	r8, r4, #16
 c107e48:	e1a09829 	lsr	r9, r9, #16
 c107e4c:	e1a01008 	mov	r1, r8
 c107e50:	e1a00006 	mov	r0, r6
 c107e54:	ebfffb6a 	bl	c106c04 <__aeabi_uidiv>
 c107e58:	e1a01008 	mov	r1, r8
 c107e5c:	e1a0a000 	mov	sl, r0
 c107e60:	e1a00006 	mov	r0, r6
 c107e64:	ebfffba3 	bl	c106cf8 <__aeabi_uidivmod>
 c107e68:	e0030a99 	mul	r3, r9, sl
 c107e6c:	e1a0c825 	lsr	ip, r5, #16
 c107e70:	e18cb801 	orr	fp, ip, r1, lsl #16
 c107e74:	e153000b 	cmp	r3, fp
 c107e78:	9a000005 	bls	c107e94 <__divdi3+0x204>
 c107e7c:	e09bb004 	adds	fp, fp, r4
 c107e80:	e24aa001 	sub	sl, sl, #1
 c107e84:	2a000002 	bcs	c107e94 <__divdi3+0x204>
 c107e88:	e153000b 	cmp	r3, fp
 c107e8c:	824aa001 	subhi	sl, sl, #1
 c107e90:	808bb004 	addhi	fp, fp, r4
 c107e94:	e063b00b 	rsb	fp, r3, fp
 c107e98:	e1a01008 	mov	r1, r8
 c107e9c:	e1a0000b 	mov	r0, fp
 c107ea0:	ebfffb57 	bl	c106c04 <__aeabi_uidiv>
 c107ea4:	e1a01008 	mov	r1, r8
 c107ea8:	e1a06000 	mov	r6, r0
 c107eac:	e1a0000b 	mov	r0, fp
 c107eb0:	ebfffb90 	bl	c106cf8 <__aeabi_uidivmod>
 c107eb4:	e0090996 	mul	r9, r6, r9
 c107eb8:	e1a00805 	lsl	r0, r5, #16
 c107ebc:	e1a05820 	lsr	r5, r0, #16
 c107ec0:	e1855801 	orr	r5, r5, r1, lsl #16
 c107ec4:	e1590005 	cmp	r9, r5
 c107ec8:	9a000004 	bls	c107ee0 <__divdi3+0x250>
 c107ecc:	e0955004 	adds	r5, r5, r4
 c107ed0:	e2466001 	sub	r6, r6, #1
 c107ed4:	2a000001 	bcs	c107ee0 <__divdi3+0x250>
 c107ed8:	e1590005 	cmp	r9, r5
 c107edc:	82466001 	subhi	r6, r6, #1
 c107ee0:	e186680a 	orr	r6, r6, sl, lsl #16
 c107ee4:	e59d9008 	ldr	r9, [sp, #8]
 c107ee8:	eaffffac 	b	c107da0 <__divdi3+0x110>
 c107eec:	e1e07007 	mvn	r7, r7
 c107ef0:	e2722000 	rsbs	r2, r2, #0
 c107ef4:	e2e33000 	rsc	r3, r3, #0
 c107ef8:	eaffff6c 	b	c107cb0 <__divdi3+0x20>
 c107efc:	e2700000 	rsbs	r0, r0, #0
 c107f00:	e2e11000 	rsc	r1, r1, #0
 c107f04:	e3e07000 	mvn	r7, #0
 c107f08:	eaffff66 	b	c107ca8 <__divdi3+0x18>
 c107f0c:	e2638020 	rsb	r8, r3, #32
 c107f10:	e1a0b835 	lsr	fp, r5, r8
 c107f14:	e1a04314 	lsl	r4, r4, r3
 c107f18:	e1a0a836 	lsr	sl, r6, r8
 c107f1c:	e18be316 	orr	lr, fp, r6, lsl r3
 c107f20:	e1a08824 	lsr	r8, r4, #16
 c107f24:	e1a0c804 	lsl	ip, r4, #16
 c107f28:	e1a01008 	mov	r1, r8
 c107f2c:	e1a0000a 	mov	r0, sl
 c107f30:	e1a0982c 	lsr	r9, ip, #16
 c107f34:	e1a05315 	lsl	r5, r5, r3
 c107f38:	e58de008 	str	lr, [sp, #8]
 c107f3c:	ebfffb30 	bl	c106c04 <__aeabi_uidiv>
 c107f40:	e1a01008 	mov	r1, r8
 c107f44:	e1a0b000 	mov	fp, r0
 c107f48:	e1a0000a 	mov	r0, sl
 c107f4c:	ebfffb69 	bl	c106cf8 <__aeabi_uidivmod>
 c107f50:	e0030b99 	mul	r3, r9, fp
 c107f54:	e59d2008 	ldr	r2, [sp, #8]
 c107f58:	e1a06822 	lsr	r6, r2, #16
 c107f5c:	e1866801 	orr	r6, r6, r1, lsl #16
 c107f60:	e1530006 	cmp	r3, r6
 c107f64:	9a000002 	bls	c107f74 <__divdi3+0x2e4>
 c107f68:	e0966004 	adds	r6, r6, r4
 c107f6c:	e24bb001 	sub	fp, fp, #1
 c107f70:	3a00006c 	bcc	c108128 <__divdi3+0x498>
 c107f74:	e0636006 	rsb	r6, r3, r6
 c107f78:	e1a01008 	mov	r1, r8
 c107f7c:	e1a00006 	mov	r0, r6
 c107f80:	ebfffb1f 	bl	c106c04 <__aeabi_uidiv>
 c107f84:	e1a01008 	mov	r1, r8
 c107f88:	e1a0a000 	mov	sl, r0
 c107f8c:	e1a00006 	mov	r0, r6
 c107f90:	ebfffb58 	bl	c106cf8 <__aeabi_uidivmod>
 c107f94:	e0030a99 	mul	r3, r9, sl
 c107f98:	e59d2008 	ldr	r2, [sp, #8]
 c107f9c:	e1a06802 	lsl	r6, r2, #16
 c107fa0:	e1a00826 	lsr	r0, r6, #16
 c107fa4:	e1806801 	orr	r6, r0, r1, lsl #16
 c107fa8:	e1530006 	cmp	r3, r6
 c107fac:	9a000005 	bls	c107fc8 <__divdi3+0x338>
 c107fb0:	e0966004 	adds	r6, r6, r4
 c107fb4:	e24aa001 	sub	sl, sl, #1
 c107fb8:	2a000002 	bcs	c107fc8 <__divdi3+0x338>
 c107fbc:	e1530006 	cmp	r3, r6
 c107fc0:	824aa001 	subhi	sl, sl, #1
 c107fc4:	80866004 	addhi	r6, r6, r4
 c107fc8:	e0636006 	rsb	r6, r3, r6
 c107fcc:	e18a380b 	orr	r3, sl, fp, lsl #16
 c107fd0:	e58d3008 	str	r3, [sp, #8]
 c107fd4:	eaffff9c 	b	c107e4c <__divdi3+0x1bc>
 c107fd8:	e2641020 	rsb	r1, r4, #32
 c107fdc:	e1a00139 	lsr	r0, r9, r1
 c107fe0:	e1a0213b 	lsr	r2, fp, r1
 c107fe4:	e180a41a 	orr	sl, r0, sl, lsl r4
 c107fe8:	e1a06138 	lsr	r6, r8, r1
 c107fec:	e1828418 	orr	r8, r2, r8, lsl r4
 c107ff0:	e1a0380a 	lsl	r3, sl, #16
 c107ff4:	e1a0b82a 	lsr	fp, sl, #16
 c107ff8:	e1a0e823 	lsr	lr, r3, #16
 c107ffc:	e1a0100b 	mov	r1, fp
 c108000:	e1a00006 	mov	r0, r6
 c108004:	e58d8008 	str	r8, [sp, #8]
 c108008:	e58de00c 	str	lr, [sp, #12]
 c10800c:	ebfffafc 	bl	c106c04 <__aeabi_uidiv>
 c108010:	e1a0100b 	mov	r1, fp
 c108014:	e1a08000 	mov	r8, r0
 c108018:	e1a00006 	mov	r0, r6
 c10801c:	ebfffb35 	bl	c106cf8 <__aeabi_uidivmod>
 c108020:	e59dc00c 	ldr	ip, [sp, #12]
 c108024:	e002089c 	mul	r2, ip, r8
 c108028:	e59d3008 	ldr	r3, [sp, #8]
 c10802c:	e1a06823 	lsr	r6, r3, #16
 c108030:	e1861801 	orr	r1, r6, r1, lsl #16
 c108034:	e1520001 	cmp	r2, r1
 c108038:	e1a03419 	lsl	r3, r9, r4
 c10803c:	9a000002 	bls	c10804c <__divdi3+0x3bc>
 c108040:	e091100a 	adds	r1, r1, sl
 c108044:	e2488001 	sub	r8, r8, #1
 c108048:	3a000032 	bcc	c108118 <__divdi3+0x488>
 c10804c:	e0629001 	rsb	r9, r2, r1
 c108050:	e1a00009 	mov	r0, r9
 c108054:	e1a0100b 	mov	r1, fp
 c108058:	e58d3004 	str	r3, [sp, #4]
 c10805c:	ebfffae8 	bl	c106c04 <__aeabi_uidiv>
 c108060:	e1a0100b 	mov	r1, fp
 c108064:	e1a06000 	mov	r6, r0
 c108068:	e1a00009 	mov	r0, r9
 c10806c:	ebfffb21 	bl	c106cf8 <__aeabi_uidivmod>
 c108070:	e59d000c 	ldr	r0, [sp, #12]
 c108074:	e0020690 	mul	r2, r0, r6
 c108078:	e59d3008 	ldr	r3, [sp, #8]
 c10807c:	e1a0c803 	lsl	ip, r3, #16
 c108080:	e1a0982c 	lsr	r9, ip, #16
 c108084:	e1890801 	orr	r0, r9, r1, lsl #16
 c108088:	e1520000 	cmp	r2, r0
 c10808c:	e59d3004 	ldr	r3, [sp, #4]
 c108090:	9a000002 	bls	c1080a0 <__divdi3+0x410>
 c108094:	e090000a 	adds	r0, r0, sl
 c108098:	e2466001 	sub	r6, r6, #1
 c10809c:	3a000019 	bcc	c108108 <__divdi3+0x478>
 c1080a0:	e062e000 	rsb	lr, r2, r0
 c1080a4:	e1866808 	orr	r6, r6, r8, lsl #16
 c1080a8:	e1a02826 	lsr	r2, r6, #16
 c1080ac:	e1a01823 	lsr	r1, r3, #16
 c1080b0:	e1c6c802 	bic	ip, r6, r2, lsl #16
 c1080b4:	e1c39801 	bic	r9, r3, r1, lsl #16
 c1080b8:	e003099c 	mul	r3, ip, r9
 c1080bc:	e0090992 	mul	r9, r2, r9
 c1080c0:	e00c0c91 	mul	ip, r1, ip
 c1080c4:	e0010192 	mul	r1, r2, r1
 c1080c8:	e099c00c 	adds	ip, r9, ip
 c1080cc:	22811801 	addcs	r1, r1, #65536	; 0x10000
 c1080d0:	e093380c 	adds	r3, r3, ip, lsl #16
 c1080d4:	e0a1182c 	adc	r1, r1, ip, lsr #16
 c1080d8:	e15e0001 	cmp	lr, r1
 c1080dc:	3a000006 	bcc	c1080fc <__divdi3+0x46c>
 c1080e0:	13a02000 	movne	r2, #0
 c1080e4:	03a02001 	moveq	r2, #1
 c1080e8:	e1530415 	cmp	r3, r5, lsl r4
 c1080ec:	93a09000 	movls	r9, #0
 c1080f0:	82029001 	andhi	r9, r2, #1
 c1080f4:	e3590000 	cmp	r9, #0
 c1080f8:	0affff28 	beq	c107da0 <__divdi3+0x110>
 c1080fc:	e2466001 	sub	r6, r6, #1
 c108100:	e3a09000 	mov	r9, #0
 c108104:	eaffff25 	b	c107da0 <__divdi3+0x110>
 c108108:	e1520000 	cmp	r2, r0
 c10810c:	82466001 	subhi	r6, r6, #1
 c108110:	8080000a 	addhi	r0, r0, sl
 c108114:	eaffffe1 	b	c1080a0 <__divdi3+0x410>
 c108118:	e1520001 	cmp	r2, r1
 c10811c:	82488001 	subhi	r8, r8, #1
 c108120:	8081100a 	addhi	r1, r1, sl
 c108124:	eaffffc8 	b	c10804c <__divdi3+0x3bc>
 c108128:	e1530006 	cmp	r3, r6
 c10812c:	824bb001 	subhi	fp, fp, #1
 c108130:	80866004 	addhi	r6, r6, r4
 c108134:	eaffff8e 	b	c107f74 <__divdi3+0x2e4>

0c108138 <__udivdi3>:
 c108138:	e92d4ff0 	push	{r4, r5, r6, r7, r8, r9, sl, fp, lr}
 c10813c:	e2538000 	subs	r8, r3, #0
 c108140:	e24dd00c 	sub	sp, sp, #12
 c108144:	e1a05000 	mov	r5, r0
 c108148:	e1a04001 	mov	r4, r1
 c10814c:	e1a06002 	mov	r6, r2
 c108150:	e1a0a002 	mov	sl, r2
 c108154:	e1a0b000 	mov	fp, r0
 c108158:	e1a07001 	mov	r7, r1
 c10815c:	1a000037 	bne	c108240 <__udivdi3+0x108>
 c108160:	e1520001 	cmp	r2, r1
 c108164:	9a000045 	bls	c108280 <__udivdi3+0x148>
 c108168:	e1a00002 	mov	r0, r2
 c10816c:	eb0000fe 	bl	c10856c <__clzsi2>
 c108170:	e3500000 	cmp	r0, #0
 c108174:	12603020 	rsbne	r3, r0, #32
 c108178:	11a03335 	lsrne	r3, r5, r3
 c10817c:	11a0a016 	lslne	sl, r6, r0
 c108180:	11837014 	orrne	r7, r3, r4, lsl r0
 c108184:	e1a0482a 	lsr	r4, sl, #16
 c108188:	11a0b015 	lslne	fp, r5, r0
 c10818c:	e1a01004 	mov	r1, r4
 c108190:	e1a00007 	mov	r0, r7
 c108194:	ebfffa9a 	bl	c106c04 <__aeabi_uidiv>
 c108198:	e1a01004 	mov	r1, r4
 c10819c:	e1a08000 	mov	r8, r0
 c1081a0:	e1a00007 	mov	r0, r7
 c1081a4:	ebfffad3 	bl	c106cf8 <__aeabi_uidivmod>
 c1081a8:	e1a0680a 	lsl	r6, sl, #16
 c1081ac:	e1a06826 	lsr	r6, r6, #16
 c1081b0:	e0030896 	mul	r3, r6, r8
 c1081b4:	e1a0782b 	lsr	r7, fp, #16
 c1081b8:	e1877801 	orr	r7, r7, r1, lsl #16
 c1081bc:	e1530007 	cmp	r3, r7
 c1081c0:	9a000005 	bls	c1081dc <__udivdi3+0xa4>
 c1081c4:	e097700a 	adds	r7, r7, sl
 c1081c8:	e2488001 	sub	r8, r8, #1
 c1081cc:	2a000002 	bcs	c1081dc <__udivdi3+0xa4>
 c1081d0:	e1530007 	cmp	r3, r7
 c1081d4:	82488001 	subhi	r8, r8, #1
 c1081d8:	8087700a 	addhi	r7, r7, sl
 c1081dc:	e0637007 	rsb	r7, r3, r7
 c1081e0:	e1a01004 	mov	r1, r4
 c1081e4:	e1a00007 	mov	r0, r7
 c1081e8:	ebfffa85 	bl	c106c04 <__aeabi_uidiv>
 c1081ec:	e1a01004 	mov	r1, r4
 c1081f0:	e1a05000 	mov	r5, r0
 c1081f4:	e1a00007 	mov	r0, r7
 c1081f8:	ebfffabe 	bl	c106cf8 <__aeabi_uidivmod>
 c1081fc:	e0060695 	mul	r6, r5, r6
 c108200:	e1a0080b 	lsl	r0, fp, #16
 c108204:	e1a0b820 	lsr	fp, r0, #16
 c108208:	e18bb801 	orr	fp, fp, r1, lsl #16
 c10820c:	e156000b 	cmp	r6, fp
 c108210:	9a000004 	bls	c108228 <__udivdi3+0xf0>
 c108214:	e09bb00a 	adds	fp, fp, sl
 c108218:	e2455001 	sub	r5, r5, #1
 c10821c:	2a000001 	bcs	c108228 <__udivdi3+0xf0>
 c108220:	e156000b 	cmp	r6, fp
 c108224:	82455001 	subhi	r5, r5, #1
 c108228:	e1858808 	orr	r8, r5, r8, lsl #16
 c10822c:	e3a01000 	mov	r1, #0
 c108230:	e1a00008 	mov	r0, r8
 c108234:	e28dd00c 	add	sp, sp, #12
 c108238:	e8bd4ff0 	pop	{r4, r5, r6, r7, r8, r9, sl, fp, lr}
 c10823c:	e12fff1e 	bx	lr
 c108240:	e1580001 	cmp	r8, r1
 c108244:	83a01000 	movhi	r1, #0
 c108248:	81a08001 	movhi	r8, r1
 c10824c:	8afffff7 	bhi	c108230 <__udivdi3+0xf8>
 c108250:	e1a00008 	mov	r0, r8
 c108254:	eb0000c4 	bl	c10856c <__clzsi2>
 c108258:	e2507000 	subs	r7, r0, #0
 c10825c:	1a00003e 	bne	c10835c <__udivdi3+0x224>
 c108260:	e1580004 	cmp	r8, r4
 c108264:	21560005 	cmpcs	r6, r5
 c108268:	83a01000 	movhi	r1, #0
 c10826c:	93a01001 	movls	r1, #1
 c108270:	93a08001 	movls	r8, #1
 c108274:	91a01007 	movls	r1, r7
 c108278:	81a08001 	movhi	r8, r1
 c10827c:	eaffffeb 	b	c108230 <__udivdi3+0xf8>
 c108280:	e3520000 	cmp	r2, #0
 c108284:	1a000003 	bne	c108298 <__udivdi3+0x160>
 c108288:	e3a00001 	mov	r0, #1
 c10828c:	e1a01002 	mov	r1, r2
 c108290:	ebfffa5b 	bl	c106c04 <__aeabi_uidiv>
 c108294:	e1a0a000 	mov	sl, r0
 c108298:	e1a0000a 	mov	r0, sl
 c10829c:	eb0000b2 	bl	c10856c <__clzsi2>
 c1082a0:	e2503000 	subs	r3, r0, #0
 c1082a4:	1a000075 	bne	c108480 <__udivdi3+0x348>
 c1082a8:	e1a0180a 	lsl	r1, sl, #16
 c1082ac:	e06a4004 	rsb	r4, sl, r4
 c1082b0:	e1a0982a 	lsr	r9, sl, #16
 c1082b4:	e1a06821 	lsr	r6, r1, #16
 c1082b8:	e3a07001 	mov	r7, #1
 c1082bc:	e1a01009 	mov	r1, r9
 c1082c0:	e1a00004 	mov	r0, r4
 c1082c4:	ebfffa4e 	bl	c106c04 <__aeabi_uidiv>
 c1082c8:	e1a01009 	mov	r1, r9
 c1082cc:	e1a05000 	mov	r5, r0
 c1082d0:	e1a00004 	mov	r0, r4
 c1082d4:	ebfffa87 	bl	c106cf8 <__aeabi_uidivmod>
 c1082d8:	e0030596 	mul	r3, r6, r5
 c1082dc:	e1a0282b 	lsr	r2, fp, #16
 c1082e0:	e1824801 	orr	r4, r2, r1, lsl #16
 c1082e4:	e1530004 	cmp	r3, r4
 c1082e8:	9a000005 	bls	c108304 <__udivdi3+0x1cc>
 c1082ec:	e094400a 	adds	r4, r4, sl
 c1082f0:	e2455001 	sub	r5, r5, #1
 c1082f4:	2a000002 	bcs	c108304 <__udivdi3+0x1cc>
 c1082f8:	e1530004 	cmp	r3, r4
 c1082fc:	82455001 	subhi	r5, r5, #1
 c108300:	8084400a 	addhi	r4, r4, sl
 c108304:	e0634004 	rsb	r4, r3, r4
 c108308:	e1a01009 	mov	r1, r9
 c10830c:	e1a00004 	mov	r0, r4
 c108310:	ebfffa3b 	bl	c106c04 <__aeabi_uidiv>
 c108314:	e1a01009 	mov	r1, r9
 c108318:	e1a08000 	mov	r8, r0
 c10831c:	e1a00004 	mov	r0, r4
 c108320:	ebfffa74 	bl	c106cf8 <__aeabi_uidivmod>
 c108324:	e0060698 	mul	r6, r8, r6
 c108328:	e1a0b80b 	lsl	fp, fp, #16
 c10832c:	e1a0382b 	lsr	r3, fp, #16
 c108330:	e183b801 	orr	fp, r3, r1, lsl #16
 c108334:	e156000b 	cmp	r6, fp
 c108338:	9a000004 	bls	c108350 <__udivdi3+0x218>
 c10833c:	e09bb00a 	adds	fp, fp, sl
 c108340:	e2488001 	sub	r8, r8, #1
 c108344:	2a000001 	bcs	c108350 <__udivdi3+0x218>
 c108348:	e156000b 	cmp	r6, fp
 c10834c:	82488001 	subhi	r8, r8, #1
 c108350:	e1888805 	orr	r8, r8, r5, lsl #16
 c108354:	e1a01007 	mov	r1, r7
 c108358:	eaffffb4 	b	c108230 <__udivdi3+0xf8>
 c10835c:	e267a020 	rsb	sl, r7, #32
 c108360:	e1a01a36 	lsr	r1, r6, sl
 c108364:	e1a02a35 	lsr	r2, r5, sl
 c108368:	e1818718 	orr	r8, r1, r8, lsl r7
 c10836c:	e1a0ba34 	lsr	fp, r4, sl
 c108370:	e1829714 	orr	r9, r2, r4, lsl r7
 c108374:	e1a0a828 	lsr	sl, r8, #16
 c108378:	e1a0e808 	lsl	lr, r8, #16
 c10837c:	e1a0100a 	mov	r1, sl
 c108380:	e1a0000b 	mov	r0, fp
 c108384:	e1a0482e 	lsr	r4, lr, #16
 c108388:	e58d9004 	str	r9, [sp, #4]
 c10838c:	ebfffa1c 	bl	c106c04 <__aeabi_uidiv>
 c108390:	e1a0100a 	mov	r1, sl
 c108394:	e1a09000 	mov	r9, r0
 c108398:	e1a0000b 	mov	r0, fp
 c10839c:	ebfffa55 	bl	c106cf8 <__aeabi_uidivmod>
 c1083a0:	e0020994 	mul	r2, r4, r9
 c1083a4:	e59d0004 	ldr	r0, [sp, #4]
 c1083a8:	e1a0c820 	lsr	ip, r0, #16
 c1083ac:	e18cb801 	orr	fp, ip, r1, lsl #16
 c1083b0:	e152000b 	cmp	r2, fp
 c1083b4:	e1a03716 	lsl	r3, r6, r7
 c1083b8:	9a000002 	bls	c1083c8 <__udivdi3+0x290>
 c1083bc:	e09bb008 	adds	fp, fp, r8
 c1083c0:	e2499001 	sub	r9, r9, #1
 c1083c4:	3a000060 	bcc	c10854c <__udivdi3+0x414>
 c1083c8:	e062b00b 	rsb	fp, r2, fp
 c1083cc:	e1a0100a 	mov	r1, sl
 c1083d0:	e1a0000b 	mov	r0, fp
 c1083d4:	e58d3000 	str	r3, [sp]
 c1083d8:	ebfffa09 	bl	c106c04 <__aeabi_uidiv>
 c1083dc:	e1a0100a 	mov	r1, sl
 c1083e0:	e1a06000 	mov	r6, r0
 c1083e4:	e1a0000b 	mov	r0, fp
 c1083e8:	ebfffa42 	bl	c106cf8 <__aeabi_uidivmod>
 c1083ec:	e0040496 	mul	r4, r6, r4
 c1083f0:	e59d0004 	ldr	r0, [sp, #4]
 c1083f4:	e1a0c800 	lsl	ip, r0, #16
 c1083f8:	e1a0382c 	lsr	r3, ip, #16
 c1083fc:	e1832801 	orr	r2, r3, r1, lsl #16
 c108400:	e1540002 	cmp	r4, r2
 c108404:	e59d3000 	ldr	r3, [sp]
 c108408:	9a000002 	bls	c108418 <__udivdi3+0x2e0>
 c10840c:	e0922008 	adds	r2, r2, r8
 c108410:	e2466001 	sub	r6, r6, #1
 c108414:	3a000048 	bcc	c10853c <__udivdi3+0x404>
 c108418:	e0644002 	rsb	r4, r4, r2
 c10841c:	e1868809 	orr	r8, r6, r9, lsl #16
 c108420:	e1a02828 	lsr	r2, r8, #16
 c108424:	e1a0e823 	lsr	lr, r3, #16
 c108428:	e1c80802 	bic	r0, r8, r2, lsl #16
 c10842c:	e1c3680e 	bic	r6, r3, lr, lsl #16
 c108430:	e0030690 	mul	r3, r0, r6
 c108434:	e0060692 	mul	r6, r2, r6
 c108438:	e000009e 	mul	r0, lr, r0
 c10843c:	e00e0e92 	mul	lr, r2, lr
 c108440:	e0960000 	adds	r0, r6, r0
 c108444:	228ee801 	addcs	lr, lr, #65536	; 0x10000
 c108448:	e0933800 	adds	r3, r3, r0, lsl #16
 c10844c:	e0aee820 	adc	lr, lr, r0, lsr #16
 c108450:	e154000e 	cmp	r4, lr
 c108454:	3a000006 	bcc	c108474 <__udivdi3+0x33c>
 c108458:	13a02000 	movne	r2, #0
 c10845c:	03a02001 	moveq	r2, #1
 c108460:	e1530715 	cmp	r3, r5, lsl r7
 c108464:	93a01000 	movls	r1, #0
 c108468:	82021001 	andhi	r1, r2, #1
 c10846c:	e3510000 	cmp	r1, #0
 c108470:	0affff6e 	beq	c108230 <__udivdi3+0xf8>
 c108474:	e2488001 	sub	r8, r8, #1
 c108478:	e3a01000 	mov	r1, #0
 c10847c:	eaffff6b 	b	c108230 <__udivdi3+0xf8>
 c108480:	e2639020 	rsb	r9, r3, #32
 c108484:	e1a0a31a 	lsl	sl, sl, r3
 c108488:	e1a07934 	lsr	r7, r4, r9
 c10848c:	e1a08935 	lsr	r8, r5, r9
 c108490:	e1a0982a 	lsr	r9, sl, #16
 c108494:	e1a0280a 	lsl	r2, sl, #16
 c108498:	e1a01009 	mov	r1, r9
 c10849c:	e1a00007 	mov	r0, r7
 c1084a0:	e1888314 	orr	r8, r8, r4, lsl r3
 c1084a4:	e1a0b315 	lsl	fp, r5, r3
 c1084a8:	e1a06822 	lsr	r6, r2, #16
 c1084ac:	ebfff9d4 	bl	c106c04 <__aeabi_uidiv>
 c1084b0:	e1a01009 	mov	r1, r9
 c1084b4:	e1a05000 	mov	r5, r0
 c1084b8:	e1a00007 	mov	r0, r7
 c1084bc:	ebfffa0d 	bl	c106cf8 <__aeabi_uidivmod>
 c1084c0:	e0030596 	mul	r3, r6, r5
 c1084c4:	e1a04828 	lsr	r4, r8, #16
 c1084c8:	e1844801 	orr	r4, r4, r1, lsl #16
 c1084cc:	e1530004 	cmp	r3, r4
 c1084d0:	9a000002 	bls	c1084e0 <__udivdi3+0x3a8>
 c1084d4:	e094400a 	adds	r4, r4, sl
 c1084d8:	e2455001 	sub	r5, r5, #1
 c1084dc:	3a00001e 	bcc	c10855c <__udivdi3+0x424>
 c1084e0:	e0634004 	rsb	r4, r3, r4
 c1084e4:	e1a01009 	mov	r1, r9
 c1084e8:	e1a00004 	mov	r0, r4
 c1084ec:	ebfff9c4 	bl	c106c04 <__aeabi_uidiv>
 c1084f0:	e1a01009 	mov	r1, r9
 c1084f4:	e1a07000 	mov	r7, r0
 c1084f8:	e1a00004 	mov	r0, r4
 c1084fc:	ebfff9fd 	bl	c106cf8 <__aeabi_uidivmod>
 c108500:	e0030796 	mul	r3, r6, r7
 c108504:	e1a00808 	lsl	r0, r8, #16
 c108508:	e1a0c820 	lsr	ip, r0, #16
 c10850c:	e18c4801 	orr	r4, ip, r1, lsl #16
 c108510:	e1530004 	cmp	r3, r4
 c108514:	9a000005 	bls	c108530 <__udivdi3+0x3f8>
 c108518:	e094400a 	adds	r4, r4, sl
 c10851c:	e2477001 	sub	r7, r7, #1
 c108520:	2a000002 	bcs	c108530 <__udivdi3+0x3f8>
 c108524:	e1530004 	cmp	r3, r4
 c108528:	82477001 	subhi	r7, r7, #1
 c10852c:	8084400a 	addhi	r4, r4, sl
 c108530:	e0634004 	rsb	r4, r3, r4
 c108534:	e1877805 	orr	r7, r7, r5, lsl #16
 c108538:	eaffff5f 	b	c1082bc <__udivdi3+0x184>
 c10853c:	e1540002 	cmp	r4, r2
 c108540:	82466001 	subhi	r6, r6, #1
 c108544:	80822008 	addhi	r2, r2, r8
 c108548:	eaffffb2 	b	c108418 <__udivdi3+0x2e0>
 c10854c:	e152000b 	cmp	r2, fp
 c108550:	82499001 	subhi	r9, r9, #1
 c108554:	808bb008 	addhi	fp, fp, r8
 c108558:	eaffff9a 	b	c1083c8 <__udivdi3+0x290>
 c10855c:	e1530004 	cmp	r3, r4
 c108560:	82455001 	subhi	r5, r5, #1
 c108564:	8084400a 	addhi	r4, r4, sl
 c108568:	eaffffdc 	b	c1084e0 <__udivdi3+0x3a8>

0c10856c <__clzsi2>:
 c10856c:	e3a0101c 	mov	r1, #28
 c108570:	e3500801 	cmp	r0, #65536	; 0x10000
 c108574:	21a00820 	lsrcs	r0, r0, #16
 c108578:	22411010 	subcs	r1, r1, #16
 c10857c:	e3500c01 	cmp	r0, #256	; 0x100
 c108580:	21a00420 	lsrcs	r0, r0, #8
 c108584:	22411008 	subcs	r1, r1, #8
 c108588:	e3500010 	cmp	r0, #16
 c10858c:	21a00220 	lsrcs	r0, r0, #4
 c108590:	22411004 	subcs	r1, r1, #4
 c108594:	e28f2008 	add	r2, pc, #8
 c108598:	e7d20000 	ldrb	r0, [r2, r0]
 c10859c:	e0800001 	add	r0, r0, r1
 c1085a0:	e12fff1e 	bx	lr
 c1085a4:	02020304 	.word	0x02020304
 c1085a8:	01010101 	.word	0x01010101
	...

0c1085b4 <memcpy>:
 c1085b4:	e3520003 	cmp	r2, #3
 c1085b8:	e92d01f0 	push	{r4, r5, r6, r7, r8}
 c1085bc:	8a000009 	bhi	c1085e8 <memcpy+0x34>
 c1085c0:	e3520000 	cmp	r2, #0
 c1085c4:	0a000005 	beq	c1085e0 <memcpy+0x2c>
 c1085c8:	e3a03000 	mov	r3, #0
 c1085cc:	e7d1c003 	ldrb	ip, [r1, r3]
 c1085d0:	e7c0c003 	strb	ip, [r0, r3]
 c1085d4:	e2833001 	add	r3, r3, #1
 c1085d8:	e1530002 	cmp	r3, r2
 c1085dc:	1afffffa 	bne	c1085cc <memcpy+0x18>
 c1085e0:	e8bd01f0 	pop	{r4, r5, r6, r7, r8}
 c1085e4:	e12fff1e 	bx	lr
 c1085e8:	e1a03001 	mov	r3, r1
 c1085ec:	e0802002 	add	r2, r0, r2
 c1085f0:	e1a01000 	mov	r1, r0
 c1085f4:	ea000002 	b	c108604 <memcpy+0x50>
 c1085f8:	e5dcc000 	ldrb	ip, [ip]
 c1085fc:	e4c1c001 	strb	ip, [r1], #1
 c108600:	e2833001 	add	r3, r3, #1
 c108604:	e3110003 	tst	r1, #3
 c108608:	e1a0c003 	mov	ip, r3
 c10860c:	1afffff9 	bne	c1085f8 <memcpy+0x44>
 c108610:	e2134003 	ands	r4, r3, #3
 c108614:	0a000034 	beq	c1086ec <memcpy+0x138>
 c108618:	e2645000 	rsb	r5, r4, #0
 c10861c:	e2647004 	rsb	r7, r4, #4
 c108620:	e7933005 	ldr	r3, [r3, r5]
 c108624:	e1a04184 	lsl	r4, r4, #3
 c108628:	e1a07187 	lsl	r7, r7, #3
 c10862c:	ea000005 	b	c108648 <memcpy+0x94>
 c108630:	e28cc004 	add	ip, ip, #4
 c108634:	e79c6005 	ldr	r6, [ip, r5]
 c108638:	e1a08716 	lsl	r8, r6, r7
 c10863c:	e1883433 	orr	r3, r8, r3, lsr r4
 c108640:	e4813004 	str	r3, [r1], #4
 c108644:	e1a03006 	mov	r3, r6
 c108648:	e0616002 	rsb	r6, r1, r2
 c10864c:	e3560003 	cmp	r6, #3
 c108650:	cafffff6 	bgt	c108630 <memcpy+0x7c>
 c108654:	ea000001 	b	c108660 <memcpy+0xac>
 c108658:	e4dc3001 	ldrb	r3, [ip], #1
 c10865c:	e4c13001 	strb	r3, [r1], #1
 c108660:	e1520001 	cmp	r2, r1
 c108664:	8afffffb 	bhi	c108658 <memcpy+0xa4>
 c108668:	eaffffdc 	b	c1085e0 <memcpy+0x2c>
 c10866c:	e513c040 	ldr	ip, [r3, #-64]	; 0xffffffc0
 c108670:	e501c040 	str	ip, [r1, #-64]	; 0xffffffc0
 c108674:	e513c03c 	ldr	ip, [r3, #-60]	; 0xffffffc4
 c108678:	e501c03c 	str	ip, [r1, #-60]	; 0xffffffc4
 c10867c:	e513c038 	ldr	ip, [r3, #-56]	; 0xffffffc8
 c108680:	e501c038 	str	ip, [r1, #-56]	; 0xffffffc8
 c108684:	e513c034 	ldr	ip, [r3, #-52]	; 0xffffffcc
 c108688:	e501c034 	str	ip, [r1, #-52]	; 0xffffffcc
 c10868c:	e513c030 	ldr	ip, [r3, #-48]	; 0xffffffd0
 c108690:	e501c030 	str	ip, [r1, #-48]	; 0xffffffd0
 c108694:	e513c02c 	ldr	ip, [r3, #-44]	; 0xffffffd4
 c108698:	e501c02c 	str	ip, [r1, #-44]	; 0xffffffd4
 c10869c:	e513c028 	ldr	ip, [r3, #-40]	; 0xffffffd8
 c1086a0:	e501c028 	str	ip, [r1, #-40]	; 0xffffffd8
 c1086a4:	e513c024 	ldr	ip, [r3, #-36]	; 0xffffffdc
 c1086a8:	e501c024 	str	ip, [r1, #-36]	; 0xffffffdc
 c1086ac:	e513c020 	ldr	ip, [r3, #-32]	; 0xffffffe0
 c1086b0:	e501c020 	str	ip, [r1, #-32]	; 0xffffffe0
 c1086b4:	e513c01c 	ldr	ip, [r3, #-28]	; 0xffffffe4
 c1086b8:	e501c01c 	str	ip, [r1, #-28]	; 0xffffffe4
 c1086bc:	e513c018 	ldr	ip, [r3, #-24]	; 0xffffffe8
 c1086c0:	e501c018 	str	ip, [r1, #-24]	; 0xffffffe8
 c1086c4:	e513c014 	ldr	ip, [r3, #-20]	; 0xffffffec
 c1086c8:	e501c014 	str	ip, [r1, #-20]	; 0xffffffec
 c1086cc:	e513c010 	ldr	ip, [r3, #-16]
 c1086d0:	e501c010 	str	ip, [r1, #-16]
 c1086d4:	e513c00c 	ldr	ip, [r3, #-12]
 c1086d8:	e501c00c 	str	ip, [r1, #-12]
 c1086dc:	e513c008 	ldr	ip, [r3, #-8]
 c1086e0:	e501c008 	str	ip, [r1, #-8]
 c1086e4:	e513c004 	ldr	ip, [r3, #-4]
 c1086e8:	e501c004 	str	ip, [r1, #-4]
 c1086ec:	e061c002 	rsb	ip, r1, r2
 c1086f0:	e35c003f 	cmp	ip, #63	; 0x3f
 c1086f4:	e1a04003 	mov	r4, r3
 c1086f8:	e1a0c001 	mov	ip, r1
 c1086fc:	e2833040 	add	r3, r3, #64	; 0x40
 c108700:	e2811040 	add	r1, r1, #64	; 0x40
 c108704:	caffffd8 	bgt	c10866c <memcpy+0xb8>
 c108708:	e1a03004 	mov	r3, r4
 c10870c:	ea000007 	b	c108730 <memcpy+0x17c>
 c108710:	e5131010 	ldr	r1, [r3, #-16]
 c108714:	e50c1010 	str	r1, [ip, #-16]
 c108718:	e513100c 	ldr	r1, [r3, #-12]
 c10871c:	e50c100c 	str	r1, [ip, #-12]
 c108720:	e5131008 	ldr	r1, [r3, #-8]
 c108724:	e50c1008 	str	r1, [ip, #-8]
 c108728:	e5131004 	ldr	r1, [r3, #-4]
 c10872c:	e50c1004 	str	r1, [ip, #-4]
 c108730:	e1a0100c 	mov	r1, ip
 c108734:	e06cc002 	rsb	ip, ip, r2
 c108738:	e35c000f 	cmp	ip, #15
 c10873c:	e1a04003 	mov	r4, r3
 c108740:	e281c010 	add	ip, r1, #16
 c108744:	e2833010 	add	r3, r3, #16
 c108748:	cafffff0 	bgt	c108710 <memcpy+0x15c>
 c10874c:	e1a03004 	mov	r3, r4
 c108750:	ea000002 	b	c108760 <memcpy+0x1ac>
 c108754:	e59cc000 	ldr	ip, [ip]
 c108758:	e481c004 	str	ip, [r1], #4
 c10875c:	e2833004 	add	r3, r3, #4
 c108760:	e061c002 	rsb	ip, r1, r2
 c108764:	e35c0003 	cmp	ip, #3
 c108768:	e1a0c003 	mov	ip, r3
 c10876c:	cafffff8 	bgt	c108754 <memcpy+0x1a0>
 c108770:	eaffffba 	b	c108660 <memcpy+0xac>
